 exectask

 Timestamp is 58ba71d4 (Fri Mar 03 23:50:44 2017)

 Preferred load address is 0000000140000000

 Start         Length     Name                   Class
 0001:00000000 000a5ac8H .text                   CODE
 0001:000a5ac8 0000000cH .text$di                CODE
 0001:000a5ae0 00000b00H .text$mn                CODE
 0001:000a65e0 000000cdH .text$x                 CODE
 0001:000a66b0 00000049H .text$yd                CODE
 0002:00000000 00000b40H .idata$5                DATA
 0002:00000b40 00000008H .CRT$XCA                DATA
 0002:00000b48 00000008H .CRT$XCAA               DATA
 0002:00000b50 00000008H .CRT$XCL                DATA
 0002:00000b58 00001cd8H .CRT$XCU                DATA
 0002:00002830 00000008H .CRT$XCZ                DATA
 0002:00002838 00000008H .CRT$XIA                DATA
 0002:00002840 00000008H .CRT$XIAA               DATA
 0002:00002848 00000008H .CRT$XIC                DATA
 0002:00002850 00000008H .CRT$XIY                DATA
 0002:00002858 00000008H .CRT$XIZ                DATA
 0002:00002860 000181b0H .rdata                  DATA
 0002:0001aa10 0000005cH .rdata$debug            DATA
 0002:0001aa70 00000074H .rdata$r                DATA
 0002:0001aae8 00000008H .rtc$IAA                DATA
 0002:0001aaf0 00000008H .rtc$IZZ                DATA
 0002:0001aaf8 00000008H .rtc$TAA                DATA
 0002:0001ab00 00000008H .rtc$TZZ                DATA
 0002:0001ab08 000126ccH .xdata                  DATA
 0002:0002d1e0 0000022eH .edata                  DATA
 0002:0002d410 000000dcH .idata$2                DATA
 0002:0002d4ec 00000014H .idata$3                DATA
 0002:0002d500 00000b40H .idata$4                DATA
 0002:0002e040 00001f7cH .idata$6                DATA
 0003:00000000 000013e0H .data                   DATA
 0003:000013e0 00000020H .data$r                 DATA
 0003:00001400 00009188H .bss                    DATA
 0004:00000000 0000b1e4H .pdata                  DATA
 0005:00000000 00002b98H .data1                  DATA

  Address         Publics by Value              Rva+Base               Lib:Object

 0000:00000000       __guard_flags              0000000000000000     <absolute>
 0000:00000000       __guard_fids_table         0000000000000000     <absolute>
 0000:00000000       ___safe_se_handler_table   0000000000000000     <absolute>
 0000:00000000       ___safe_se_handler_count   0000000000000000     <absolute>
 0000:00000000       __guard_fids_count         0000000000000000     <absolute>
 0000:00000000       __ImageBase                0000000140000000     <linker-defined>
 0001:00000042       sprvfexExecCmd             0000000140001042 f   sprvfex.obj
 0001:00000238       main                       0000000140001238 f   sprvfex.obj
 0001:0000026c       sprvfexCheckOsRelease      000000014000126c f   sprvfex.obj
 0001:00000798       sprvfexGetLoginShell       0000000140001798 f   sprvfex.obj
 0001:000007b6       sprvfex_getUniqueUserOrGroupID 00000001400017b6 f   sprvfex.obj
 0001:000007ec       sprvfex_getuniqueIDLocal   00000001400017ec f   sprvfex.obj
 0001:00000822       sprvfex_getuniqueIDWithNIS 0000000140001822 f   sprvfex.obj
 0001:00000858       sprvfexChkgrp              0000000140001858 f   sprvfex.obj
 0001:0000087e       sprvfexChkHostsFile        000000014000187e f   sprvfex.obj
 0001:0000089c       sprvfex_getInfoForUID      000000014000189c f   sprvfex.obj
 0001:000008c2       sprvfex_delFile            00000001400018c2 f   sprvfex.obj
 0001:000008f0       sprvfex_getspaceavail      00000001400018f0 f   sprvfex.obj
 0001:00000bd4       sprvfex_checkNetCon        0000000140001bd4 f   sprvfex.obj
 0001:00000d2a       sprvfex_checkNetReach      0000000140001d2a f   sprvfex.obj
 0001:00000e4e       sprvfex_getdirsize         0000000140001e4e f   sprvfex.obj
 0001:00001afe       sprvfexChkFile             0000000140002afe f   sprvfex.obj
 0001:00001f82       sprvfexChkFileLink         0000000140002f82 f   sprvfex.obj
 0001:00001fb0       sprvfexChkFileInSystem     0000000140002fb0 f   sprvfex.obj
 0001:000023dc       sprvfexCheckFileVer        00000001400033dc f   sprvfex.obj
 0001:000029b0       sprvfex_getDiskInfoForPath 00000001400039b0 f   sprvfex.obj
 0001:00002ad4       sprvfexgetDeviceFileID     0000000140003ad4 f   sprvfex.obj
 0001:00002afa       sprvfexGetFileAttributes   0000000140003afa f   sprvfex.obj
 0001:00003252       sprvfexGetFileInfo         0000000140004252 f   sprvfex.obj
 0001:000039c8       sprvfex_getUsmDevInfo      00000001400049c8 f   sprvfex.obj
 0001:000039ee       sprvfex_getUdevInfo        00000001400049ee f   sprvfex.obj
 0001:00003a14       sprvfexGetLongestValidDirpath 0000000140004a14 f   sprvfex.obj
 0001:00003fba       sprvfexLongestValidDirpath 0000000140004fba f   sprvfex.obj
 0001:0000428c       sprvfex_getbugsymbols      000000014000528c f   sprvfex.obj
 0001:000042b2       sprvfex_setusermask        00000001400052b2 f   sprvfex.obj
 0001:000042ca       sprvfex_fnmatch            00000001400052ca f   sprvfex.obj
 0001:00004466       sprvfex_chkdirstructure    0000000140005466 f   sprvfex.obj
 0001:0000538a       sprvfexCreateProcess       000000014000638a f   sprvfex.obj
 0001:0000575e       sprvfex_setPortableLocale  000000014000675e f   sprvfex.obj
 0001:0000583e       sprvfex_checkservice       000000014000683e f   sprvfex.obj
 0001:00006062       sprvfex_getallrlimits      0000000140007062 f   sprvfex.obj
 0001:00006080       sprvfex_checkPort          0000000140007080 f   sprvfex.obj
 0001:00006790       sprvfex_clear_errdesc      0000000140007790 f   sprvfex.obj
 0001:00006864       sprvfex_scratchtobuf       0000000140007864 f   sprvfex.obj
 0001:00006b44       sprvfex_chkICMPPing        0000000140007b44 f   sprvfex.obj
 0001:000074e8       sprvfexWritePingCmdOutputToFile 00000001400084e8 f   sprvfex.obj
 0001:00007922       sprvfexFileExists          0000000140008922 f   sprvfex.obj
 0001:000079a4       GetOracleObjects           00000001400089a4 f   OracleLinkSupport.obj
 0001:00007c80       GetAllPhysicalDrives2K     0000000140008c80 f   OracleLinkSupport.obj
 0001:00008294       GetAllPhysicalDrives       0000000140009294 f   OracleLinkSupport.obj
 0001:00008850       QueryOpenPhysicalDisk      0000000140009850 f   OracleLinkSupport.obj
 0001:00008c78       QueryDiskPartitions        0000000140009c78 f   OracleLinkSupport.obj
 0001:0000951e       QueryForOraclePartitionInfo 000000014000a51e f   OracleLinkSupport.obj
 0001:00009e74       CreateOracleLinks          000000014000ae74 f   OracleLinkSupport.obj
 0001:00009fc2       CreateSymbolicLink         000000014000afc2 f   OracleLinkSupport.obj
 0001:0000a1a0       CreateLinksFromGUI         000000014000b1a0 f   OracleLinkSupport.obj
 0001:0000a606       MarkPartitionTable         000000014000b606 f   OracleLinkSupport.obj
 0001:0000a990       FindDiskNumberInfo         000000014000b990 f   OracleLinkSupport.obj
 0001:0000aa24       GetDiskNumberFromArg       000000014000ba24 f   OracleLinkSupport.obj
 0001:0000ab3e       DeleteDiskData             000000014000bb3e f   OracleLinkSupport.obj
 0001:0000afc4       DeleteAllDriveLettersForPartition 000000014000bfc4 f   OracleLinkSupport.obj
 0001:0000b07c       DeleteAllDosDevices        000000014000c07c f   OracleLinkSupport.obj
 0001:0000b2ae       ReleaseListOfDevices       000000014000c2ae f   OracleLinkSupport.obj
 0001:0000b380       ReleaseListOfRegDevices    000000014000c380 f   OracleLinkSupport.obj
 0001:0000b3ee       DeleteDriveLetters         000000014000c3ee f   OracleLinkSupport.obj
 0001:0000b46c       DeleteAllDiskInfo          000000014000c46c f   OracleLinkSupport.obj
 0001:0000b4ec       DeleteDeviceName           000000014000c4ec f   OracleLinkSupport.obj
 0001:0000b732       DeleteDiskInfo             000000014000c732 f   OracleLinkSupport.obj
 0001:0000b7e6       RegenerateSymbolicLinks    000000014000c7e6 f   OracleLinkSupport.obj
 0001:0000b8ac       GetListOfDefinedDevices    000000014000c8ac f   OracleLinkSupport.obj
 0001:0000bf00       GetAllRegEntries           000000014000cf00 f   OracleLinkSupport.obj
 0001:0000c1f2       DeleteRegDeviceName        000000014000d1f2 f   OracleLinkSupport.obj
 0001:0000c2c6       UpdateOracleMap            000000014000d2c6 f   OracleLinkSupport.obj
 0001:0000c422       IsThisADriverLetter        000000014000d422 f   OracleLinkSupport.obj
 0001:0000c490       ResetPartitionInfo         000000014000d490 f   OracleLinkSupport.obj
 0001:0000c4f4       UpdateIOPartition          000000014000d4f4 f   OracleLinkSupport.obj
 0001:0000c8a2       IsThisAnOracleDisk         000000014000d8a2 f   OracleLinkSupport.obj
 0001:0000c900       GetDiskInfoFromSignature   000000014000d900 f   OracleLinkSupport.obj
 0001:0000c95e       IsThisAnOraclePartition    000000014000d95e f   OracleLinkSupport.obj
 0001:0000ca0a       IsLinkNameInUse            000000014000da0a f   OracleLinkSupport.obj
 0001:0000cb0c       ValidatePartitionNumber    000000014000db0c f   OracleLinkSupport.obj
 0001:0000cbb2       RemoveAllDosName           000000014000dbb2 f   OracleLinkSupport.obj
 0001:0000cbe2       UpdateDosDevices           000000014000dbe2 f   OracleLinkSupport.obj
 0001:0000cdda       FillOraclePart             000000014000ddda f   OracleLinkSupport.obj
 0001:0000cede       HasViewChanged             000000014000dede f   OracleLinkSupport.obj
 0001:0000d1f8       FindThisDisk               000000014000e1f8 f   OracleLinkSupport.obj
 0001:0000d25a       FindThisPartition          000000014000e25a f   OracleLinkSupport.obj
 0001:0000d344       ValidateNewPartitions      000000014000e344 f   OracleLinkSupport.obj
 0001:0000d3d8       QueryDosDeviceAll          000000014000e3d8 f   OracleLinkSupport.obj
 0001:0000d560       InitErrorLog               000000014000e560 f   LogSupport.obj
 0001:0000d6e8       LogMsg                     000000014000e6e8 f   LogSupport.obj
 0001:0000d88c       LogMsg2                    000000014000e88c f   LogSupport.obj
 0001:0000da02       LogError                   000000014000ea02 f   LogSupport.obj
 0001:0000e098       PrintError                 000000014000f098 f   DiskKey.obj
 0001:0000e142       DumpMember                 000000014000f142 f   DiskKey.obj
 0001:0000e15a       DumpFtInformation          000000014000f15a f   DiskKey.obj
 0001:0000e1d4       DumpPartition              000000014000f1d4 f   DiskKey.obj
 0001:0000e258       DumpDiskInformation        000000014000f258 f   DiskKey.obj
 0001:0000e33c       DumpAllInformation         000000014000f33c f   DiskKey.obj
 0001:0000e426       ReadDiskInformation        000000014000f426 f   DiskKey.obj
 0001:0000e69e       DiskKeyUpdate              000000014000f69e f   DiskKey.obj
 0001:0000e7a0       slosFillErrDup             000000014000f7a0 f   sclsi.obj
 0001:0000e874       slosOtherInfoDup           000000014000f874 f   sclsi.obj
 0001:0000e8e2       sclsierr                   000000014000f8e2 f   sclsi.obj
 0001:0000ea88       sclsiCrackName             000000014000fa88 f   sclsi.obj
 0001:0000efca       sclsiQueryIPv4Ex           000000014000ffca f   sclsi.obj
 0001:0000ff1e       sclsiInfoGetGW             0000000140010f1e f   sclsi.obj
 0001:00010a20       sclsiQueryIPv4             0000000140011a20 f   sclsi.obj
 0001:00010c64       sclsiTranslateNameIPv4     0000000140011c64 f   sclsi.obj
 0001:00010ea4       sclsiquery                 0000000140011ea4 f   sclsi.obj
 0001:00011272       sclsitranslate             0000000140012272 f   sclsi.obj
 0001:0001166c       sclsitranslatename         000000014001266c f   sclsi.obj
 0001:000117d2       sclsivalidate              00000001400127d2 f   sclsi.obj
 0001:000118d8       sclsinodequeryip6          00000001400128d8 f   sclsi.obj
 0001:00011c82       sclsinodequery             0000000140012c82 f   sclsi.obj
 0001:000124a8       sclsiroutequeryv6          00000001400134a8 f   sclsi.obj
 0001:0001250c       sclsiroutequery            000000014001350c f   sclsi.obj
 0001:00012570       sclsiroutedel              0000000140013570 f   sclsi.obj
 0001:000125d4       sclsirouteadd              00000001400135d4 f   sclsi.obj
 0001:00012638       sclsiroutedelv6            0000000140013638 f   sclsi.obj
 0001:0001269c       sclsirouteaddv6            000000014001369c f   sclsi.obj
 0001:00012700       sGetIpInterfaceDetails     0000000140013700 f   sclsi.obj
 0001:000128de       sclsiGetIpInterfaceDetails 00000001400138de f   sclsi.obj
 0001:00012f08       sclsiaddaddrs              0000000140013f08 f   sclsi.obj
 0001:00013762       sclsiaddaddrsv6            0000000140014762 f   sclsi.obj
 0001:00013b42       sclsistatip                0000000140014b42 f   sclsi.obj
 0001:00013bee       sclsistatipv6              0000000140014bee f   sclsi.obj
 0001:00014552       sclsideladdrs              0000000140015552 f   sclsi.obj
 0001:00014b4a       sclsideladdrsv6            0000000140015b4a f   sclsi.obj
 0001:00014f92       sclsigetvifname            0000000140015f92 f   sclsi.obj
 0001:00014ffe       sclsiQueryIPv6EX           0000000140015ffe f   sclsi.obj
 0001:00016652       sclsidhcpfilter            0000000140017652 f   sclsi.obj
 0001:00016680       sclsidhcprecv              0000000140017680 f   sclsi.obj
 0001:000166b6       sclsidhcpctxfree           00000001400176b6 f   sclsi.obj
 0001:000166d0       prvfexmain                 00000001400176d0 f   oraexectask:prvfex.obj
 0001:0001b076       prvfexallocm               000000014001c076 f   oraexectask:prvfex.obj
 0001:0001b250       prvfexfreem                000000014001c250 f   oraexectask:prvfex.obj
 0001:0001bc20       prvfex_checkremotessh      000000014001cc20 f   oraexectask:prvfex.obj
 0001:0001cec6       prvfexOpenFileToWrite      000000014001dec6 f   oraexectask:prvfex.obj
 0001:0001d092       prvfexWrapInt              000000014001e092 f   oraexectask:prvfex.obj
 0001:0001d400       prvfexWrapText             000000014001e400 f   oraexectask:prvfex.obj
 0001:0001d62e       prvfex_wttspad_cmd_res     000000014001e62e f   oraexectask:prvfex.obj
 0001:0001d8ba       prvfex_wttspad_trc         000000014001e8ba f   oraexectask:prvfex.obj
 0001:0001d92a       prvfex_wttspad_ptxt        000000014001e92a f   oraexectask:prvfex.obj
 0001:00020528       prvfex_own_spadname        0000000140021528 f   oraexectask:prvfex.obj
 0001:00020d66       prvfexRunExe               0000000140021d66 f   oraexectask:prvfex.obj
 0001:00020eb0       prvfexRunExeNoErr          0000000140021eb0 f   oraexectask:prvfex.obj
 0001:00020ffa       prvfex_oputtoval           0000000140021ffa f   oraexectask:prvfex.obj
 0001:0002130c       prvfex_oputtobuf           000000014002230c f   oraexectask:prvfex.obj
 0001:000215ec       prvfex_getcname            00000001400225ec f   oraexectask:prvfex.obj
 0001:000216c2       prvfexGetSysParam          00000001400226c2 f   oraexectask:prvfex.obj
 0001:0002180c       prvfexGetAllSysParam       000000014002280c f   oraexectask:prvfex.obj
 0001:0002182a       prvfexRunGenCmd            000000014002282a f   oraexectask:prvfex.obj
 0001:00021a64       prvfex_killproc            0000000140022a64 f   oraexectask:prvfex.obj
 0001:00021d48       prvfex_gethostname         0000000140022d48 f   oraexectask:prvfex.obj
 0001:00023126       parsePingDetailsFile       0000000140024126 f   oraexectask:prvfex.obj
 0001:00024480       prvc_prvcctx_init          0000000140025480 f   oraexectask:prvc.obj
 0001:000252fe       prvc_witspad_eres          00000001400262fe f   oraexectask:prvc.obj
 0001:0002544e       prvc_witspad_vres          000000014002644e f   oraexectask:prvc.obj
 0001:0002559e       prvc_wttspad_vres          000000014002659e f   oraexectask:prvc.obj
 0001:0002560e       prvc_wttspad_val           000000014002660e f   oraexectask:prvc.obj
 0001:0002567e       prvc_wttspad_err           000000014002667e f   oraexectask:prvc.obj
 0001:000256ee       prvc_wttspad_log           00000001400266ee f   oraexectask:prvc.obj
 0001:0002575e       prvc_wttspad_trc           000000014002675e f   oraexectask:prvc.obj
 0001:000257ce       prvc_wttspad_ptxt          00000001400267ce f   oraexectask:prvc.obj
 0001:0002583e       prvc_wttspad_initcmd       000000014002683e f   oraexectask:prvc.obj
 0001:000258ae       prvc_wttspad_host          00000001400268ae f   oraexectask:prvc.obj
 0001:0002591e       prvc_wttspad_cmdlog        000000014002691e f   oraexectask:prvc.obj
 0001:000262b6       prvcCopyFile               00000001400272b6 f   oraexectask:prvc.obj
 0001:00026486       prvcCopyFileToStdOut       0000000140027486 f   oraexectask:prvc.obj
 0001:000265ea       prvcFileClose              00000001400275ea f   oraexectask:prvc.obj
 0001:000266a0       prvcOpenFileToWrite        00000001400276a0 f   oraexectask:prvc.obj
 0001:0002686c       prvcOpenFileToRead         000000014002786c f   oraexectask:prvc.obj
 0001:00026a3a       prvcGetSlosStr             0000000140027a3a f   oraexectask:prvc.obj
 0001:00026f2e       prvcCrtStdErrFile          0000000140027f2e f   oraexectask:prvc.obj
 0001:00026fb4       prvcRdStdErrFile           0000000140027fb4 f   oraexectask:prvc.obj
 0001:0002728c       prvcallocm_cmdlog          000000014002828c f   oraexectask:prvc.obj
 0001:000277fc       prvcallocm_cmd_out         00000001400287fc f   oraexectask:prvc.obj
 0001:00027a50       prvc_add_cmdlog            0000000140028a50 f   oraexectask:prvc.obj
 0001:00027ae0       prvc_free_cmdlog           0000000140028ae0 f   oraexectask:prvc.obj
 0001:00027bd8       prvc_addcmdout             0000000140028bd8 f   oraexectask:prvc.obj
 0001:00027caa       prvcCheckFileExist         0000000140028caa f   oraexectask:prvc.obj
 0001:000280d4       prvc_get_loc_errstr        00000001400290d4 f   oraexectask:prvc.obj
 0001:00028bd8       prvc_wttspad_errlog        0000000140029bd8 f   oraexectask:prvc.obj
 0001:0002920c       prvc_wttspad_errcmd        000000014002a20c f   oraexectask:prvc.obj
 0001:00029b56       prvc_wttspad_errfile       000000014002ab56 f   oraexectask:prvc.obj
 0001:0002a50c       prvc_wttspad_errapi        000000014002b50c f   oraexectask:prvc.obj
 0001:0002b3be       prvc_wttspad_errslos       000000014002c3be f   oraexectask:prvc.obj
 0001:0002b736       prvc_wttspad_infolog       000000014002c736 f   oraexectask:prvc.obj
 0001:0002c3e6       prvcalloc_infolog          000000014002d3e6 f   oraexectask:prvc.obj
 0001:0002c584       prvcalloc_errdesc          000000014002d584 f   oraexectask:prvc.obj
 0001:0002c6e8       prvcallocandcopystr        000000014002d6e8 f   oraexectask:prvc.obj
 0001:0002c7d2       prvcallocandappendstr      000000014002d7d2 f   oraexectask:prvc.obj
 0001:0002cb36       prvcreplacestr             000000014002db36 f   oraexectask:prvc.obj
 0001:0002cdb6       prvc_getnodename           000000014002ddb6 f   oraexectask:prvc.obj
 0001:0002cec6       prvc_adderrfilearg         000000014002dec6 f   oraexectask:prvc.obj
 0001:0002d040       prvc_addslosstring         000000014002e040 f   oraexectask:prvc.obj
 0001:0002d106       prvc_add_errdesc           000000014002e106 f   oraexectask:prvc.obj
 0001:0002d374       prvc_add_errlog            000000014002e374 f   oraexectask:prvc.obj
 0001:0002d404       prvc_add_infolog           000000014002e404 f   oraexectask:prvc.obj
 0001:0002d4de       prvc_add_cmd_err           000000014002e4de f   oraexectask:prvc.obj
 0001:0002d5d4       prvc_add_cmd_err_withoutput 000000014002e5d4 f   oraexectask:prvc.obj
 0001:0002d782       prvc_add_api_err           000000014002e782 f   oraexectask:prvc.obj
 0001:0002dac8       prvc_add_file_err          000000014002eac8 f   oraexectask:prvc.obj
 0001:0002dcce       prvc_add_slos_err          000000014002ecce f   oraexectask:prvc.obj
 0001:0002de96       prvc_add_cmd_api_info      000000014002ee96 f   oraexectask:prvc.obj
 0001:0002e008       prvc_add_debug_txt         000000014002f008 f   oraexectask:prvc.obj
 0001:0002e054       prvc_free_errlog           000000014002f054 f   oraexectask:prvc.obj
 0001:0002e15a       prvc_free_errdesc          000000014002f15a f   oraexectask:prvc.obj
 0001:0002e222       prvc_free_errcmd           000000014002f222 f   oraexectask:prvc.obj
 0001:0002e2c2       prvc_free_errfile          000000014002f2c2 f   oraexectask:prvc.obj
 0001:0002e3e4       prvc_free_errapi           000000014002f3e4 f   oraexectask:prvc.obj
 0001:0002e4de       prvc_free_errslos          000000014002f4de f   oraexectask:prvc.obj
 0001:0002e53c       prvc_free_infolog          000000014002f53c f   oraexectask:prvc.obj
 0001:0002e5e8       ssprvfexCheckMemory        000000014002f5e8 f   oraexectask:ssprvfex.obj
 0001:0002e886       ssprvfexCheckAvailMemory   000000014002f886 f   oraexectask:ssprvfex.obj
 0001:0002eb0e       ssprvfexCheckRunlevel      000000014002fb0e f   oraexectask:ssprvfex.obj
 0001:0002ecca       ssprvfexCheckOsver         000000014002fcca f   oraexectask:ssprvfex.obj
 0001:0002f234       ssprvfexChkospatch         0000000140030234 f   oraexectask:ssprvfex.obj
 0001:0002f6a2       ssprvfexCheckArchitecture  00000001400306a2 f   oraexectask:ssprvfex.obj
 0001:0002f8c4       ssprvfexCheckUmask         00000001400308c4 f   oraexectask:ssprvfex.obj
 0001:0002f8e2       ssprvfexCheckSwap          00000001400308e2 f   oraexectask:ssprvfex.obj
 0001:0002fb6a       ssprvfexChkpkg             0000000140030b6a f   oraexectask:ssprvfex.obj
 0001:0002fb90       ssprvfexGetAllPackages     0000000140030b90 f   oraexectask:ssprvfex.obj
 0001:0002fbae       ssprvfexGetKerParam        0000000140030bae f   oraexectask:ssprvfex.obj
 0001:0002fbd4       ssprvfexGetConfigKerParam  0000000140030bd4 f   oraexectask:ssprvfex.obj
 0001:0002fbfa       ssprvfexChkusr             0000000140030bfa f   oraexectask:ssprvfex.obj
 0001:0002fc20       ssprvfexGetUsrGps          0000000140030c20 f   oraexectask:ssprvfex.obj
 0001:0003034e       ssprvfex_getStInfo         000000014003134e f   oraexectask:ssprvfex.obj
 0001:0003086c       ssprvfex_checkasmstamp     000000014003186c f   oraexectask:ssprvfex.obj
 0001:00030e1a       ssprvfex_getsttype         0000000140031e1a f   oraexectask:ssprvfex.obj
 0001:00031970       ssprvfexCheckDiskAFDCapable 0000000140032970 f   oraexectask:ssprvfex.obj
 0001:00032292       ssprvfexChkalive           0000000140033292 f   oraexectask:ssprvfex.obj
 0001:00032812       ssprvfex_getrlimit         0000000140033812 f   oraexectask:ssprvfex.obj
 0001:00032848       ssprvfex_gettimezone       0000000140033848 f   oraexectask:ssprvfex.obj
 0001:00032c7e       ssprvfexRunCmdLoginshell   0000000140033c7e f   oraexectask:ssprvfex.obj
 0001:00032ca4       ssprvfexLogSysErrorMsg     0000000140033ca4 f   oraexectask:ssprvfex.obj
 0001:00032e9e       ssprvfexGetSysErrorMsg     0000000140033e9e f   oraexectask:ssprvfex.obj
 0001:00032fde       ssprvfex_getFsStorage      0000000140033fde f   oraexectask:ssprvfex.obj
 0001:00033396       ssprvfex_getDiskStorage    0000000140034396 f   oraexectask:ssprvfex.obj
 0001:00033754       ssprvfex_getstorage        0000000140034754 f   oraexectask:ssprvfex.obj
 0001:0003441e       ssprvfexGetAllEnvVarByPID  000000014003541e f   oraexectask:ssprvfex.obj
 0001:00034444       ssprvfex_getallrlimitsbypid 0000000140035444 f   oraexectask:ssprvfex.obj
 0001:0003446c       sprvsgt_getSpaceAvail      000000014003546c f   oraexectask:sprvsgt.obj
 0001:0003462a       sprvsgt_getStInfo          000000014003562a f   oraexectask:sprvsgt.obj
 0001:000347e4       sprvsgt_getFSType          00000001400357e4 f   oraexectask:sprvsgt.obj
 0001:00035614       sprvsgt_resolveASMStamp    0000000140036614 f   oraexectask:sprvsgt.obj
 0001:000363be       sprvsgt_getDiskInfoForPath 00000001400373be f   oraexectask:sprvsgt.obj
 0001:000373c6       sprvsgt_printFSType        00000001400383c6 f   oraexectask:sprvsgt.obj
 0001:00037544       sprvsgt_printDiskInfoForPath 0000000140038544 f   oraexectask:sprvsgt.obj
 0001:0003768a       sprvsgt_printStorageData   000000014003868a f   oraexectask:sprvsgt.obj
 0001:0003794a       sprvsgt_destroy            000000014003894a f   oraexectask:sprvsgt.obj
 0001:00037c2c       gai_strerrorA              0000000140038c2c f i oraexectask:sprvncon.obj
 0001:00038430       sprvnc_ICMPPing            0000000140039430 f   oraexectask:sprvncon.obj
 0001:00039086       sprvnc_ICMP6Ping           000000014003a086 f   oraexectask:sprvncon.obj
 0001:0003a1c2       sprvnc_ICMPPingAll         000000014003b1c2 f   oraexectask:sprvncon.obj
 0001:0003a490       sprvnc_ICMP6PingAll        000000014003b490 f   oraexectask:sprvncon.obj
 0001:0003aec6       sprvnc_ping                000000014003bec6 f   oraexectask:sprvncon.obj
 0001:0003b788       sprvnc_pingAll             000000014003c788 f   oraexectask:sprvncon.obj
 0001:0003c1d0       sprvnc_cli_to_serv         000000014003d1d0 f   oraexectask:sprvncon.obj
 0001:0003c206       sprvnc_startServer         000000014003d206 f   oraexectask:sprvncon.obj
 0001:0003c23c       sprvnc_accept              000000014003d23c f   oraexectask:sprvncon.obj
 0001:0003c2d4       sprvc_get_destdirname      000000014003d2d4 f   oraexectask:sprvc.obj
 0001:0003c3ba       sprvc_create_scratch       000000014003d3ba f   oraexectask:sprvc.obj
 0001:0003c4e4       sprvc_get_exoutname        000000014003d4e4 f   oraexectask:sprvc.obj
 0001:0003c6da       sprvc_get_spadname         000000014003d6da f   oraexectask:sprvc.obj
 0001:0003c8d0       sprvc_kill                 000000014003d8d0 f   oraexectask:sprvc.obj
 0001:0003cb00       sprvc_getpid               000000014003db00 f   oraexectask:sprvc.obj
 0001:0003cb1c       sprvc_gethostname          000000014003db1c f   oraexectask:sprvc.obj
 0001:0003cc48       sprvcGetDebugFp            000000014003dc48 f   oraexectask:sprvc.obj
 0001:0003cd00       sprvcEnableTrace           000000014003dd00 f   oraexectask:sprvc.obj
 0001:0003cd5a       sprvcTraceEnabled          000000014003dd5a f   oraexectask:sprvc.obj
 0001:0003cd70       sprvcGetDebugHdr           000000014003dd70 f   oraexectask:sprvc.obj
 0001:0003ce68       prvng_isprivate            000000014003de68 f   oraexectask:prvng.obj
 0001:0003d0a4       prvng_ctx_init             000000014003e0a4 f   oraexectask:prvng.obj
 0001:0003d0d4       prvng_getIfData            000000014003e0d4 f   oraexectask:prvng.obj
 0001:0003d298       prvng_getIfDataByName      000000014003e298 f   oraexectask:prvng.obj
 0001:0003d4fc       prvng_printIfData          000000014003e4fc f   oraexectask:prvng.obj
 0001:0003e2d0       prvng_getIPMPInfo          000000014003f2d0 f   oraexectask:prvng.obj
 0001:0003e36a       prvng_getNICBindOrder      000000014003f36a f   oraexectask:prvng.obj
 0001:0003ec56       prvt_findFreePort          000000014003fc56 f   oraexectask:prvnt.obj
 0001:0003f410       prvnt_tcpListen            0000000140040410 f   oraexectask:prvnt.obj
 0001:0004182e       prvnt_tcpChkTCPConnectivity 000000014004282e f   oraexectask:prvnt.obj
 0001:00044484       prvni_ipmi_ping            0000000140045484 f   oraexectask:prvni.obj
 0001:0004468c       prvnm_multicast_listen     000000014004568c f   oraexectask:prvnm.obj
 0001:00046010       prvnm_multicast_get_group_ips 0000000140047010 f   oraexectask:prvnm.obj
 0001:00046fe2       prvnm_multicast_kill_msg   0000000140047fe2 f   oraexectask:prvnm.obj
 0001:000475ea       prvnm_bcast_listen         00000001400485ea f   oraexectask:prvnm.obj
 0001:000483e2       prvnm_bcast_get_group_ips  00000001400493e2 f   oraexectask:prvnm.obj
 0001:00049270       prvnu_checkPort            000000014004a270 f   oraexectask:prvnu.obj
 0001:00049748       prvnu_checkPortForSubnet   000000014004a748 f   oraexectask:prvnu.obj
 0001:00049d04       prvn_getcname              000000014004ad04 f   oraexectask:sprvngcname.obj
 0001:00049d32       sprvng_getdefgw            000000014004ad32 f   oraexectask:sprvngcname.obj
 0001:0004a2e2       sprvng_cmpsubnet           000000014004b2e2 f   oraexectask:sprvngcname.obj
 0001:0004a3c4       ??2@YAPEAX_KPEAX@Z         000000014004b3c4 f i oraexectask:prvFixupMain.obj
 0001:0004a3f0       ??_Eerror_category@std@@UEAAPEAXI@Z 000000014004b3f0 f i oraexectask:prvFixupMain.obj
 0001:0004a3f0       ??_Gerror_category@std@@UEAAPEAXI@Z 000000014004b3f0 f i oraexectask:prvFixupMain.obj
 0001:0004a434       ??_G_Generic_error_category@std@@UEAAPEAXI@Z 000000014004b434 f i oraexectask:prvFixupMain.obj
 0001:0004a434       ??_E_Generic_error_category@std@@UEAAPEAXI@Z 000000014004b434 f i oraexectask:prvFixupMain.obj
 0001:0004a478       ??_G_System_error_category@std@@UEAAPEAXI@Z 000000014004b478 f i oraexectask:prvFixupMain.obj
 0001:0004a478       ??_E_System_error_category@std@@UEAAPEAXI@Z 000000014004b478 f i oraexectask:prvFixupMain.obj
 0001:0004a478       ??_E_Iostream_error_category@std@@UEAAPEAXI@Z 000000014004b478 f i oraexectask:prvFixupMain.obj
 0001:0004a478       ??_G_Iostream_error_category@std@@UEAAPEAXI@Z 000000014004b478 f i oraexectask:prvFixupMain.obj
 0001:0004a4bc       ?compare@?$char_traits@D@std@@SAHPEBD0_K@Z 000000014004b4bc f i oraexectask:prvFixupMain.obj
 0001:0004a524       ?length@?$char_traits@D@std@@SA_KPEBD@Z 000000014004b524 f i oraexectask:prvFixupMain.obj
 0001:0004a574       ?copy@?$char_traits@D@std@@SAPEADPEADPEBD_K@Z 000000014004b574 f i oraexectask:prvFixupMain.obj
 0001:0004a5e0       ?find@?$char_traits@D@std@@SAPEBDPEBD_KAEBD@Z 000000014004b5e0 f i oraexectask:prvFixupMain.obj
 0001:0004a660       ?move@?$char_traits@D@std@@SAPEADPEADPEBD_K@Z 000000014004b660 f i oraexectask:prvFixupMain.obj
 0001:0004a6d8       ?assign@?$char_traits@D@std@@SAXAEADAEBD@Z 000000014004b6d8 f i oraexectask:prvFixupMain.obj
 0001:0004a708       ?allocate@?$allocator@D@std@@QEAAPEAD_K@Z 000000014004b708 f i oraexectask:prvFixupMain.obj
 0001:0004a744       ?max_size@?$allocator@D@std@@QEBA_KXZ 000000014004b744 f i oraexectask:prvFixupMain.obj
 0001:0004a764       ??$construct@PEADAEAPEAD@?$allocator@D@std@@QEAAXPEAPEADAEAPEAD@Z 000000014004b764 f i oraexectask:prvFixupMain.obj
 0001:0004a850       ?max_size@?$allocator_traits@V?$allocator@D@std@@@std@@SA_KAEBV?$allocator@D@2@@Z 000000014004b850 f i oraexectask:prvFixupMain.obj
 0001:0004a87c       ??$destroy@PEAD@?$allocator_traits@V?$allocator@D@std@@@std@@SAXAEAV?$allocator@D@1@PEAPEAD@Z 000000014004b87c f i oraexectask:prvFixupMain.obj
 0001:0004a8ac       ??$construct@PEADAEAPEAD@?$allocator_traits@V?$allocator@D@std@@@std@@SAXAEAV?$allocator@D@1@PEAPEADAEAPEAD@Z 000000014004b8ac f i oraexectask:prvFixupMain.obj
 0001:0004a904       ?allocate@?$_Wrap_alloc@V?$allocator@D@std@@@std@@QEAAPEAD_K@Z 000000014004b904 f i oraexectask:prvFixupMain.obj
 0001:0004a93c       ?max_size@?$_Wrap_alloc@V?$allocator@D@std@@@std@@QEBA_KXZ 000000014004b93c f i oraexectask:prvFixupMain.obj
 0001:0004a970       ??$destroy@PEAD@?$_Wrap_alloc@V?$allocator@D@std@@@std@@QEAAXPEAPEAD@Z 000000014004b970 f i oraexectask:prvFixupMain.obj
 0001:0004a9a0       ??$construct@PEADAEAPEAD@?$_Wrap_alloc@V?$allocator@D@std@@@std@@QEAAXPEAPEADAEAPEAD@Z 000000014004b9a0 f i oraexectask:prvFixupMain.obj
 0001:0004a9f8       ??0?$_String_val@U?$_Simple_types@D@std@@@std@@QEAA@XZ 000000014004b9f8 f i oraexectask:prvFixupMain.obj
 0001:0004aa2c       ?_Myptr@?$_String_val@U?$_Simple_types@D@std@@@std@@QEBAPEBDXZ 000000014004ba2c f i oraexectask:prvFixupMain.obj
 0001:0004aa2c       ?_Myptr@?$_String_val@U?$_Simple_types@D@std@@@std@@QEAAPEADXZ 000000014004ba2c f i oraexectask:prvFixupMain.obj
 0001:0004aa7c       ??0?$_String_alloc@$0A@U?$_String_base_types@DV?$allocator@D@std@@@std@@@std@@QEAA@AEBV?$allocator@D@1@@Z 000000014004ba7c f i oraexectask:prvFixupMain.obj
 0001:0004aab0       ?_Getal@?$_String_alloc@$0A@U?$_String_base_types@DV?$allocator@D@std@@@std@@@std@@QEBA?AU?$_Wrap_alloc@V?$allocator@D@std@@@2@XZ 000000014004bab0 f i oraexectask:prvFixupMain.obj
 0001:0004aab0       ?_Getal@?$_Vector_alloc@$0A@U?$_Vec_base_types@PEAVNameValuePair@prv_fixup@@V?$allocator@PEAVNameValuePair@prv_fixup@@@std@@@std@@@std@@QEBA?AU?$_Wrap_alloc@V?$allocator@PEAVNameValuePair@prv_fixup@@@std@@@2@XZ 000000014004bab0 f i oraexectask:prvFixupUtility.obj
 0001:0004aab0       ?_Getal@?$_Vector_alloc@$0A@U?$_Vec_base_types@PEAVFixupTask@prv_fixup@@V?$allocator@PEAVFixupTask@prv_fixup@@@std@@@std@@@std@@QEBA?AU?$_Wrap_alloc@V?$allocator@PEAVFixupTask@prv_fixup@@@std@@@2@XZ 000000014004bab0 f i oraexectask:prvFixupHandler.obj
 0001:0004aab0       ?_Getal@?$_Vector_alloc@$0A@U?$_Vec_base_types@V?$basic_string@DU?$char_traits@D@std@@V?$allocator@D@2@@std@@V?$allocator@V?$basic_string@DU?$char_traits@D@std@@V?$allocator@D@2@@std@@@2@@std@@@std@@QEBA?AU?$_Wrap_alloc@V?$allocator@V?$basic_string@DU?$char_traits@D@std@@V?$allocator@D@2@@std@@@std@@@2@XZ 000000014004bab0 f i oraexectask:prvFixupUtility.obj
 0001:0004aab0       ?_Getal@?$_Vector_alloc@$0A@U?$_Vec_base_types@PEAVXmlNode@prv_fixup@@V?$allocator@PEAVXmlNode@prv_fixup@@@std@@@std@@@std@@QEBA?AU?$_Wrap_alloc@V?$allocator@PEAVXmlNode@prv_fixup@@@std@@@2@XZ 000000014004bab0 f i oraexectask:prvFixupUtility.obj
 0001:0004aab0       ?_Getal@?$_Vector_alloc@$0A@U?$_Vec_base_types@PEAVNativeError@prv_fixup@@V?$allocator@PEAVNativeError@prv_fixup@@@std@@@std@@@std@@QEBA?AU?$_Wrap_alloc@V?$allocator@PEAVNativeError@prv_fixup@@@std@@@2@XZ 000000014004bab0 f i oraexectask:prvFixupResult.obj
 0001:0004aab0       ?_Getal@?$_Vector_alloc@$0A@U?$_Vec_base_types@PEAVScript@prv_fixup@@V?$allocator@PEAVScript@prv_fixup@@@std@@@std@@@std@@QEBA?AU?$_Wrap_alloc@V?$allocator@PEAVScript@prv_fixup@@@std@@@2@XZ 000000014004bab0 f i oraexectask:prvFixupTaskData.obj
 0001:0004aab0       ?_Getal@?$_Vector_alloc@$0A@U?$_Vec_base_types@PEAVFixupData@prv_fixup@@V?$allocator@PEAVFixupData@prv_fixup@@@std@@@std@@@std@@QEBA?AU?$_Wrap_alloc@V?$allocator@PEAVFixupData@prv_fixup@@@std@@@2@XZ 000000014004bab0 f i oraexectask:prvFixupHandler.obj
 0001:0004aab0       ?_Getal@?$_Vector_alloc@$0A@U?$_Vec_base_types@PEBV?$basic_string@DU?$char_traits@D@std@@V?$allocator@D@2@@std@@V?$allocator@PEBV?$basic_string@DU?$char_traits@D@std@@V?$allocator@D@2@@std@@@2@@std@@@std@@QEBA?AU?$_Wrap_alloc@V?$allocator@PEBV?$basic_string@DU?$char_traits@D@std@@V?$allocator@D@2@@std@@@std@@@2@XZ 000000014004bab0 f i oraexectask:sprvFixupUtility.obj
 0001:0004aab0       ?_Getal@?$_Vector_alloc@$0A@U?$_Vec_base_types@PEAVNLSError@prv_fixup@@V?$allocator@PEAVNLSError@prv_fixup@@@std@@@std@@@std@@QEBA?AU?$_Wrap_alloc@V?$allocator@PEAVNLSError@prv_fixup@@@std@@@2@XZ 000000014004bab0 f i oraexectask:prvFixupUtility.obj
 0001:0004aae4       ??0?$basic_string@DU?$char_traits@D@std@@V?$allocator@D@2@@std@@QEAA@XZ 000000014004bae4 f i oraexectask:prvFixupMain.obj
 0001:0004ab48       ??0?$basic_string@DU?$char_traits@D@std@@V?$allocator@D@2@@std@@QEAA@AEBV01@_K1AEBV?$allocator@D@1@@Z 000000014004bb48 f i oraexectask:prvFixupMain.obj
 0001:0004abe8       ??0?$basic_string@DU?$char_traits@D@std@@V?$allocator@D@2@@std@@QEAA@PEBD@Z 000000014004bbe8 f i oraexectask:prvFixupMain.obj
 0001:0004ac68       ??0?$basic_string@DU?$char_traits@D@std@@V?$allocator@D@2@@std@@QEAA@$$QEAV01@@Z 000000014004bc68 f i oraexectask:prvFixupMain.obj
 0001:0004acf8       ?_Assign_rv@?$basic_string@DU?$char_traits@D@std@@V?$allocator@D@2@@std@@QEAAX$$QEAV12@@Z 000000014004bcf8 f i oraexectask:prvFixupMain.obj
 0001:0004add4       ??1?$basic_string@DU?$char_traits@D@std@@V?$allocator@D@2@@std@@QEAA@XZ 000000014004bdd4 f i oraexectask:prvFixupMain.obj
 0001:0004ae10       ??Y?$basic_string@DU?$char_traits@D@std@@V?$allocator@D@2@@std@@QEAAAEAV01@AEBV01@@Z 000000014004be10 f i oraexectask:prvFixupMain.obj
 0001:0004ae48       ??Y?$basic_string@DU?$char_traits@D@std@@V?$allocator@D@2@@std@@QEAAAEAV01@PEBD@Z 000000014004be48 f i oraexectask:prvFixupMain.obj
 0001:0004ae80       ?append@?$basic_string@DU?$char_traits@D@std@@V?$allocator@D@2@@std@@QEAAAEAV12@AEBV12@@Z 000000014004be80 f i oraexectask:prvFixupMain.obj
 0001:0004aedc       ?append@?$basic_string@DU?$char_traits@D@std@@V?$allocator@D@2@@std@@QEAAAEAV12@AEBV12@_K1@Z 000000014004bedc f i oraexectask:prvFixupMain.obj
 0001:0004b094       ?append@?$basic_string@DU?$char_traits@D@std@@V?$allocator@D@2@@std@@QEAAAEAV12@PEBD_K@Z 000000014004c094 f i oraexectask:prvFixupMain.obj
 0001:0004b240       ?append@?$basic_string@DU?$char_traits@D@std@@V?$allocator@D@2@@std@@QEAAAEAV12@PEBD@Z 000000014004c240 f i oraexectask:prvFixupMain.obj
 0001:0004b298       ?assign@?$basic_string@DU?$char_traits@D@std@@V?$allocator@D@2@@std@@QEAAAEAV12@AEBV12@_K1@Z 000000014004c298 f i oraexectask:prvFixupMain.obj
 0001:0004b448       ?assign@?$basic_string@DU?$char_traits@D@std@@V?$allocator@D@2@@std@@QEAAAEAV12@PEBD_K@Z 000000014004c448 f i oraexectask:prvFixupMain.obj
 0001:0004b56c       ?assign@?$basic_string@DU?$char_traits@D@std@@V?$allocator@D@2@@std@@QEAAAEAV12@PEBD@Z 000000014004c56c f i oraexectask:prvFixupMain.obj
 0001:0004b5c4       ?insert@?$basic_string@DU?$char_traits@D@std@@V?$allocator@D@2@@std@@QEAAAEAV12@_KAEBV12@00@Z 000000014004c5c4 f i oraexectask:prvFixupMain.obj
 0001:0004b8cc       ?insert@?$basic_string@DU?$char_traits@D@std@@V?$allocator@D@2@@std@@QEAAAEAV12@_KPEBD0@Z 000000014004c8cc f i oraexectask:prvFixupMain.obj
 0001:0004bb48       ?insert@?$basic_string@DU?$char_traits@D@std@@V?$allocator@D@2@@std@@QEAAAEAV12@_KPEBD@Z 000000014004cb48 f i oraexectask:prvFixupMain.obj
 0001:0004bbb8       ?erase@?$basic_string@DU?$char_traits@D@std@@V?$allocator@D@2@@std@@QEAAAEAV12@_K@Z 000000014004cbb8 f i oraexectask:prvFixupMain.obj
 0001:0004bc0c       ?erase@?$basic_string@DU?$char_traits@D@std@@V?$allocator@D@2@@std@@QEAAAEAV12@_K0@Z 000000014004cc0c f i oraexectask:prvFixupMain.obj
 0001:0004bcf8       ?c_str@?$basic_string@DU?$char_traits@D@std@@V?$allocator@D@2@@std@@QEBAPEBDXZ 000000014004ccf8 f i oraexectask:prvFixupMain.obj
 0001:0004bd2c       ?size@?$basic_string@DU?$char_traits@D@std@@V?$allocator@D@2@@std@@QEBA_KXZ 000000014004cd2c f i oraexectask:prvFixupMain.obj
 0001:0004bd2c       ?length@?$basic_string@DU?$char_traits@D@std@@V?$allocator@D@2@@std@@QEBA_KXZ 000000014004cd2c f i oraexectask:prvFixupMain.obj
 0001:0004bd54       ?max_size@?$basic_string@DU?$char_traits@D@std@@V?$allocator@D@2@@std@@QEBA_KXZ 000000014004cd54 f i oraexectask:prvFixupMain.obj
 0001:0004bdc8       ?reserve@?$basic_string@DU?$char_traits@D@std@@V?$allocator@D@2@@std@@QEAAX_K@Z 000000014004cdc8 f i oraexectask:prvFixupMain.obj
 0001:0004be54       ?find@?$basic_string@DU?$char_traits@D@std@@V?$allocator@D@2@@std@@QEBA_KPEBD_K1@Z 000000014004ce54 f i oraexectask:prvFixupMain.obj
 0001:0004c01c       ?find@?$basic_string@DU?$char_traits@D@std@@V?$allocator@D@2@@std@@QEBA_KPEBD_K@Z 000000014004d01c f i oraexectask:prvFixupMain.obj
 0001:0004c08c       ?substr@?$basic_string@DU?$char_traits@D@std@@V?$allocator@D@2@@std@@QEBA?AV12@_K0@Z 000000014004d08c f i oraexectask:prvFixupMain.obj
 0001:0004c11c       ?get_allocator@?$basic_string@DU?$char_traits@D@std@@V?$allocator@D@2@@std@@QEBA?AV?$allocator@D@2@XZ 000000014004d11c f i oraexectask:prvFixupMain.obj
 0001:0004c11c       ?get_allocator@?$vector@V?$basic_string@DU?$char_traits@D@std@@V?$allocator@D@2@@std@@V?$allocator@V?$basic_string@DU?$char_traits@D@std@@V?$allocator@D@2@@std@@@2@@std@@QEBA?AV?$allocator@V?$basic_string@DU?$char_traits@D@std@@V?$allocator@D@2@@std@@@2@XZ 000000014004d11c f i oraexectask:prvFixupXmlParser.obj
 0001:0004c168       ?_Copy@?$basic_string@DU?$char_traits@D@std@@V?$allocator@D@2@@std@@QEAAX_K0@Z 000000014004d168 f i oraexectask:prvFixupMain.obj
 0001:0004c498       ?_Eos@?$basic_string@DU?$char_traits@D@std@@V?$allocator@D@2@@std@@QEAAX_K@Z 000000014004d498 f i oraexectask:prvFixupMain.obj
 0001:0004c4f4       ?_Grow@?$basic_string@DU?$char_traits@D@std@@V?$allocator@D@2@@std@@QEAA_N_K_N@Z 000000014004d4f4 f i oraexectask:prvFixupMain.obj
 0001:0004c60c       ?_Inside@?$basic_string@DU?$char_traits@D@std@@V?$allocator@D@2@@std@@QEAA_NPEBD@Z 000000014004d60c f i oraexectask:prvFixupMain.obj
 0001:0004c688       ?_Tidy@?$basic_string@DU?$char_traits@D@std@@V?$allocator@D@2@@std@@QEAAX_N_K@Z 000000014004d688 f i oraexectask:prvFixupMain.obj
 0001:0004c7a4       ?_Xlen@?$basic_string@DU?$char_traits@D@std@@V?$allocator@D@2@@std@@QEBAXXZ 000000014004d7a4 f i oraexectask:prvFixupMain.obj
 0001:0004c7cc       ?_Xran@?$basic_string@DU?$char_traits@D@std@@V?$allocator@D@2@@std@@QEBAXXZ 000000014004d7cc f i oraexectask:prvFixupMain.obj
 0001:0004c7f4       ??0error_category@std@@QEAA@XZ 000000014004d7f4 f i oraexectask:prvFixupMain.obj
 0001:0004c820       ??1error_category@std@@UEAA@XZ 000000014004d820 f i oraexectask:prvFixupMain.obj
 0001:0004c848       ?default_error_condition@error_category@std@@UEBA?AVerror_condition@2@H@Z 000000014004d848 f i oraexectask:prvFixupMain.obj
 0001:0004c898       ?equivalent@error_category@std@@UEBA_NHAEBVerror_condition@2@@Z 000000014004d898 f i oraexectask:prvFixupMain.obj
 0001:0004c924       ?equivalent@error_category@std@@UEBA_NAEBVerror_code@2@H@Z 000000014004d924 f i oraexectask:prvFixupMain.obj
 0001:0004c9b8       ??8error_category@std@@QEBA_NAEBV01@@Z 000000014004d9b8 f i oraexectask:prvFixupMain.obj
 0001:0004ca00       ?value@error_code@std@@QEBAHXZ 000000014004da00 f i oraexectask:prvFixupMain.obj
 0001:0004ca20       ??0error_condition@std@@QEAA@HAEBVerror_category@1@@Z 000000014004da20 f i oraexectask:prvFixupMain.obj
 0001:0004ca60       ?value@error_condition@std@@QEBAHXZ 000000014004da60 f i oraexectask:prvFixupMain.obj
 0001:0004ca84       ?category@error_condition@std@@QEBAAEBVerror_category@2@XZ 000000014004da84 f i oraexectask:prvFixupMain.obj
 0001:0004caac       ??8error_condition@std@@QEBA_NAEBV01@@Z 000000014004daac f i oraexectask:prvFixupMain.obj
 0001:0004cb58       ??0_Generic_error_category@std@@QEAA@XZ 000000014004db58 f i oraexectask:prvFixupMain.obj
 0001:0004cb94       ?name@_Generic_error_category@std@@UEBAPEBDXZ 000000014004db94 f i oraexectask:prvFixupMain.obj
 0001:0004cbb4       ?message@_Generic_error_category@std@@UEBA?AV?$basic_string@DU?$char_traits@D@std@@V?$allocator@D@2@@2@H@Z 000000014004dbb4 f i oraexectask:prvFixupMain.obj
 0001:0004cc2c       ??1_Generic_error_category@std@@UEAA@XZ 000000014004dc2c f i oraexectask:prvFixupMain.obj
 0001:0004cc50       ??0_Iostream_error_category@std@@QEAA@XZ 000000014004dc50 f i oraexectask:prvFixupMain.obj
 0001:0004cc8c       ?name@_Iostream_error_category@std@@UEBAPEBDXZ 000000014004dc8c f i oraexectask:prvFixupMain.obj
 0001:0004ccac       ?message@_Iostream_error_category@std@@UEBA?AV?$basic_string@DU?$char_traits@D@std@@V?$allocator@D@2@@2@H@Z 000000014004dcac f i oraexectask:prvFixupMain.obj
 0001:0004cd24       ??1_System_error_category@std@@UEAA@XZ 000000014004dd24 f i oraexectask:prvFixupMain.obj
 0001:0004cd24       ??1_Iostream_error_category@std@@UEAA@XZ 000000014004dd24 f i oraexectask:prvFixupMain.obj
 0001:0004cd48       ??0_System_error_category@std@@QEAA@XZ 000000014004dd48 f i oraexectask:prvFixupMain.obj
 0001:0004cd84       ?name@_System_error_category@std@@UEBAPEBDXZ 000000014004dd84 f i oraexectask:prvFixupMain.obj
 0001:0004cda4       ?message@_System_error_category@std@@UEBA?AV?$basic_string@DU?$char_traits@D@std@@V?$allocator@D@2@@2@H@Z 000000014004dda4 f i oraexectask:prvFixupMain.obj
 0001:0004ce1c       ?default_error_condition@_System_error_category@std@@UEBA?AVerror_condition@2@H@Z 000000014004de1c f i oraexectask:prvFixupMain.obj
 0001:0004cec4       ??1FixupException@prv_fixup@@QEAA@XZ 000000014004dec4 f i oraexectask:prvFixupMain.obj
 0001:0004cec4       ??1XmlParserException@prv_fixup@@QEAA@XZ 000000014004dec4 f i oraexectask:prvFixupMain.obj
 0001:0004cee8       ?generic_category@std@@YAAEBVerror_category@1@XZ 000000014004dee8 f i oraexectask:prvFixupMain.obj
 0001:0004cf08       ?system_category@std@@YAAEBVerror_category@1@XZ 000000014004df08 f i oraexectask:prvFixupMain.obj
 0001:0004cf28       ??$?HDU?$char_traits@D@std@@V?$allocator@D@1@@std@@YA?AV?$basic_string@DU?$char_traits@D@std@@V?$allocator@D@2@@0@PEBDAEBV10@@Z 000000014004df28 f i oraexectask:prvFixupMain.obj
 0001:0004d058       ??$?HDU?$char_traits@D@std@@V?$allocator@D@1@@std@@YA?AV?$basic_string@DU?$char_traits@D@std@@V?$allocator@D@2@@0@$$QEAV10@PEBD@Z 000000014004e058 f i oraexectask:prvFixupMain.obj
 0001:0004d0bc       ??$?HDU?$char_traits@D@std@@V?$allocator@D@1@@std@@YA?AV?$basic_string@DU?$char_traits@D@std@@V?$allocator@D@2@@0@$$QEAV10@AEBV10@@Z 000000014004e0bc f i oraexectask:prvFixupMain.obj
 0001:0004d120       ??$?HDU?$char_traits@D@std@@V?$allocator@D@1@@std@@YA?AV?$basic_string@DU?$char_traits@D@std@@V?$allocator@D@2@@0@PEBD$$QEAV10@@Z 000000014004e120 f i oraexectask:prvFixupMain.obj
 0001:0004d194       ??$_Allocate@D@std@@YAPEAD_KPEAD@Z 000000014004e194 f i oraexectask:prvFixupMain.obj
 0001:0004d204       prvRunFixup                000000014004e204 f   oraexectask:prvFixupMain.obj
 0001:0004eff6       prvFixupMemFree            000000014004fff6 f   oraexectask:prvFixupMain.obj
 0001:00050650       __sti__?_Generic_object@?$_Error_objects@H@std@@2V_Generic_error_category@2@A 0000000140051650 f i oraexectask:prvFixupMain.obj
 0001:00050698       __sti__?_Iostream_object@?$_Error_objects@H@std@@2V_Iostream_error_category@2@A 0000000140051698 f i oraexectask:prvFixupMain.obj
 0001:000506e0       __sti__?_System_object@?$_Error_objects@H@std@@2V_System_error_category@2@A 00000001400516e0 f i oraexectask:prvFixupMain.obj
 0001:00050728       __sti__?id@?$num_put@DV?$back_insert_iterator@V?$basic_string@DU?$char_traits@D@std@@V?$allocator@D@2@@std@@@std@@@std@@2V0locale@2@A 0000000140051728 f i oraexectask:prvFixupMain.obj
 0001:00050774       __sti__?id@?$num_put@_WV?$back_insert_iterator@V?$basic_string@_WU?$char_traits@_W@std@@V?$allocator@_W@2@@std@@@std@@@std@@2V0locale@2@A 0000000140051774 f i oraexectask:prvFixupMain.obj
 0001:000507c0       prvSetupUserEquivalence    00000001400517c0 f   oraexectask:sprvFixupSetupUserEquivalence.obj
 0001:00051f22       sprvs_isPartValid          0000000140052f22 f   oraexectask:sprvsgsi.obj
 0001:00051fc0       sprvs_getDiskInfo          0000000140052fc0 f   oraexectask:sprvsgsi.obj
 0001:000528ee       sprvs_getVolumeInfo        00000001400538ee f   oraexectask:sprvsgsi.obj
 0001:00052fc0       sprvs_getAllDrivesInfo     0000000140053fc0 f   oraexectask:sprvsgsi.obj
 0001:000533a2       sprvs_freeDiskInfo         00000001400543a2 f   oraexectask:sprvsgsi.obj
 0001:000534fa       sprvs_freeAll              00000001400544fa f   oraexectask:sprvsgsi.obj
 0001:00053562       sprvs_printFormatedResult  0000000140054562 f   oraexectask:sprvsgsi.obj
 0001:0005378a       sprvsgsi_printDiskResult   000000014005478a f   oraexectask:sprvsgsi.obj
 0001:00054032       sprvsgsi_getDiskBySignature 0000000140055032 f   oraexectask:sprvsgsi.obj
 0001:00054a96       sprvsgsi_getFileSystemInfo 0000000140055a96 f   oraexectask:sprvsgsi.obj
 0001:00054d76       sprvsgsi_printFileSystemResult 0000000140055d76 f   oraexectask:sprvsgsi.obj
 0001:00055420       sprvn_init                 0000000140056420 f   oraexectask:sprvn.obj
 0001:0005552c       sprvn_destroy              000000014005652c f   oraexectask:sprvn.obj
 0001:0005556a       sprvn_socket               000000014005656a f   oraexectask:sprvn.obj
 0001:0005565c       sprvn_close                000000014005665c f   oraexectask:sprvn.obj
 0001:00055838       sprvn_bind                 0000000140056838 f   oraexectask:sprvn.obj
 0001:0005593e       sprvn_bind_address         000000014005693e f   oraexectask:sprvn.obj
 0001:00055b96       sprvn_recvfrom             0000000140056b96 f   oraexectask:sprvn.obj
 0001:00055caa       sprvn_sendto               0000000140056caa f   oraexectask:sprvn.obj
 0001:00055dbc       sprvn_setsockopt           0000000140056dbc f   oraexectask:sprvn.obj
 0001:00055eb8       sprvn_fork                 0000000140056eb8 f   oraexectask:sprvn.obj
 0001:00055ed6       sprvn_select               0000000140056ed6 f   oraexectask:sprvn.obj
 0001:00055fe0       sprvn_setalarm             0000000140056fe0 f   oraexectask:sprvn.obj
 0001:00056254       sprvn_setup_msghdr         0000000140057254 f   oraexectask:sprvn.obj
 0001:000562fc       sprvn_sendmsg              00000001400572fc f   oraexectask:sprvn.obj
 0001:000563fa       sprvn_getaddrinfo          00000001400573fa f   oraexectask:sprvn.obj
 0001:00056606       sprvn_freeaddrinfo         0000000140057606 f   oraexectask:sprvn.obj
 0001:0005663c       sprvn_getsockname          000000014005763c f   oraexectask:sprvn.obj
 0001:00056858       sprvn_ntop                 0000000140057858 f   oraexectask:sprvn.obj
 0001:00056b7a       sprvn_get_port             0000000140057b7a f   oraexectask:sprvn.obj
 0001:00056bfc       sprvn_set_port             0000000140057bfc f   oraexectask:sprvn.obj
 0001:00056c7c       sprvn_listen               0000000140057c7c f   oraexectask:sprvn.obj
 0001:00056e7c       sprvn_accept               0000000140057e7c f   oraexectask:sprvn.obj
 0001:00057102       sprvn_connect              0000000140058102 f   oraexectask:sprvn.obj
 0001:0005731c       sprvn_recv                 000000014005831c f   oraexectask:sprvn.obj
 0001:0005756c       sprvn_send                 000000014005856c f   oraexectask:sprvn.obj
 0001:000577bc       ssprvn_getIPMPGroupInfo    00000001400587bc f   oraexectask:ssprvn.obj
 0001:000577ea       ssprvn_getNICBindOrder     00000001400587ea f   oraexectask:ssprvn.obj
 0001:000585d8       sprvni_ipmi_init           00000001400595d8 f   oraexectask:sprvni.obj
 0001:0005863a       sprvni_ipmi_send           000000014005963a f   oraexectask:sprvni.obj
 0001:00058672       sprvni_ipmi_recv           0000000140059672 f   oraexectask:sprvni.obj
 0001:000586c4       ??0?$basic_string@DU?$char_traits@D@std@@V?$allocator@D@2@@std@@QEAA@AEBV01@@Z 00000001400596c4 f i oraexectask:prvFixupConstants.obj
 0001:0005877c       ??$?HDU?$char_traits@D@std@@V?$allocator@D@1@@std@@YA?AV?$basic_string@DU?$char_traits@D@std@@V?$allocator@D@2@@0@AEBV10@0@Z 000000014005977c f i oraexectask:prvFixupConstants.obj
 0001:000588ac       ?setWorkDirPath@Constants@prv_fixup@@SAXAEBV?$basic_string@DU?$char_traits@D@std@@V?$allocator@D@2@@std@@@Z 00000001400598ac f   oraexectask:prvFixupConstants.obj
 0001:00058988       ?setFixupDataFilePath@Constants@prv_fixup@@SAXAEBV?$basic_string@DU?$char_traits@D@std@@V?$allocator@D@2@@std@@@Z 0000000140059988 f   oraexectask:prvFixupConstants.obj
 0001:00058a64       ?setLocalNodeName@Constants@prv_fixup@@SAXAEBV?$basic_string@DU?$char_traits@D@std@@V?$allocator@D@2@@std@@@Z 0000000140059a64 f   oraexectask:prvFixupConstants.obj
 0001:00058b40       ?getScratchPadPath@Constants@prv_fixup@@SAPEBV?$basic_string@DU?$char_traits@D@std@@V?$allocator@D@2@@std@@XZ 0000000140059b40 f   oraexectask:prvFixupConstants.obj
 0001:00058f36       ?getErrorPadPath@Constants@prv_fixup@@SAPEBV?$basic_string@DU?$char_traits@D@std@@V?$allocator@D@2@@std@@XZ 0000000140059f36 f   oraexectask:prvFixupConstants.obj
 0001:0005932c       ?getExecTraceFilePath@Constants@prv_fixup@@SAPEBV?$basic_string@DU?$char_traits@D@std@@V?$allocator@D@2@@std@@XZ 000000014005a32c f   oraexectask:prvFixupConstants.obj
 0001:00059722       ?getWorkDirPath@Constants@prv_fixup@@SAPEBV?$basic_string@DU?$char_traits@D@std@@V?$allocator@D@2@@std@@XZ 000000014005a722 f   oraexectask:prvFixupConstants.obj
 0001:0005973a       ?getFixupDataFilePath@Constants@prv_fixup@@SAPEBV?$basic_string@DU?$char_traits@D@std@@V?$allocator@D@2@@std@@XZ 000000014005a73a f   oraexectask:prvFixupConstants.obj
 0001:00059752       ?getLocalNodeName@Constants@prv_fixup@@SAPEBV?$basic_string@DU?$char_traits@D@std@@V?$allocator@D@2@@std@@XZ 000000014005a752 f   oraexectask:prvFixupConstants.obj
 0001:0005976a       ?getfixupOutputFilePath@Constants@prv_fixup@@SAPEBV?$basic_string@DU?$char_traits@D@std@@V?$allocator@D@2@@std@@XZ 000000014005a76a f   oraexectask:prvFixupConstants.obj
 0001:00059cd0       ?getProcessID@Constants@prv_fixup@@SAPEBV?$basic_string@DU?$char_traits@D@std@@V?$allocator@D@2@@std@@XZ 000000014005acd0 f   oraexectask:prvFixupConstants.obj
 0001:0005a258       ??_E?$basic_filebuf@DU?$char_traits@D@std@@@std@@UEAAPEAXI@Z 000000014005b258 f i oraexectask:prvFixupTrace.obj
 0001:0005a258       ??_G?$basic_filebuf@DU?$char_traits@D@std@@@std@@UEAAPEAXI@Z 000000014005b258 f i oraexectask:prvFixupTrace.obj
 0001:0005a29c       ??_E?$basic_ofstream@DU?$char_traits@D@std@@@std@@UEAAPEAXI@Z 000000014005b29c f i oraexectask:prvFixupTrace.obj
 0001:0005a29c       ??_G?$basic_ofstream@DU?$char_traits@D@std@@@std@@UEAAPEAXI@Z 000000014005b29c f i oraexectask:prvFixupTrace.obj
 0001:0005a2f0       ?assign@?$char_traits@D@std@@SAPEADPEAD_KD@Z 000000014005b2f0 f i oraexectask:prvFixupTrace.obj
 0001:0005a344       ?to_char_type@?$char_traits@D@std@@SADAEBH@Z 000000014005b344 f i oraexectask:prvFixupTrace.obj
 0001:0005a36c       ?to_int_type@?$char_traits@D@std@@SAHAEBD@Z 000000014005b36c f i oraexectask:prvFixupTrace.obj
 0001:0005a398       ?eq_int_type@?$char_traits@D@std@@SA_NAEBH0@Z 000000014005b398 f i oraexectask:prvFixupTrace.obj
 0001:0005a3e4       ?not_eof@?$char_traits@D@std@@SAHAEBH@Z 000000014005b3e4 f i oraexectask:prvFixupTrace.obj
 0001:0005a444       ?eof@?$char_traits@D@std@@SAHXZ 000000014005b444 f i oraexectask:prvFixupTrace.obj
 0001:0005a45c       ??0?$basic_string@DU?$char_traits@D@std@@V?$allocator@D@2@@std@@QEAA@_KD@Z 000000014005b45c f i oraexectask:prvFixupTrace.obj
 0001:0005a4f0       ?append@?$basic_string@DU?$char_traits@D@std@@V?$allocator@D@2@@std@@QEAAAEAV12@_KD@Z 000000014005b4f0 f i oraexectask:prvFixupTrace.obj
 0001:0005a5d4       ?assign@?$basic_string@DU?$char_traits@D@std@@V?$allocator@D@2@@std@@QEAAAEAV12@_KD@Z 000000014005b5d4 f i oraexectask:prvFixupTrace.obj
 0001:0005a688       ?begin@?$basic_string@DU?$char_traits@D@std@@V?$allocator@D@2@@std@@QEAA?AV?$_String_iterator@V?$_String_val@U?$_Simple_types@D@std@@@std@@@2@XZ 000000014005b688 f i oraexectask:prvFixupTrace.obj
 0001:0005a6e0       ?empty@?$basic_string@DU?$char_traits@D@std@@V?$allocator@D@2@@std@@QEBA_NXZ 000000014005b6e0 f i oraexectask:prvFixupTrace.obj
 0001:0005a718       ?_Chassign@?$basic_string@DU?$char_traits@D@std@@V?$allocator@D@2@@std@@QEAAX_K0D@Z 000000014005b718 f i oraexectask:prvFixupTrace.obj
 0001:0005a7b0       ??1locale@std@@QEAA@XZ     000000014005b7b0 f i oraexectask:prvFixupTrace.obj
 0001:0005a854       ?_Getfacet@locale@std@@QEBAPEBVfacet@12@_K@Z 000000014005b854 f i oraexectask:prvFixupTrace.obj
 0001:0005a924       ??1_Sentry_base@?$basic_istream@DU?$char_traits@D@std@@@std@@QEAA@XZ 000000014005b924 f i oraexectask:sprvFixupUtility.obj
 0001:0005a924       ??1_Sentry_base@?$basic_ostream@DU?$char_traits@D@std@@@std@@QEAA@XZ 000000014005b924 f i oraexectask:prvFixupTrace.obj
 0001:0005aa04       ??0sentry@?$basic_ostream@DU?$char_traits@D@std@@@std@@QEAA@AEAV12@@Z 000000014005ba04 f i oraexectask:prvFixupTrace.obj
 0001:0005acb8       ??1sentry@?$basic_ostream@DU?$char_traits@D@std@@@std@@QEAA@XZ 000000014005bcb8 f i oraexectask:prvFixupTrace.obj
 0001:0005ad44       ??Bsentry@?$basic_ostream@DU?$char_traits@D@std@@@std@@QEBA_NXZ 000000014005bd44 f i oraexectask:prvFixupTrace.obj
 0001:0005ad44       ??Bsentry@?$basic_istream@DU?$char_traits@D@std@@@std@@QEBA_NXZ 000000014005bd44 f i oraexectask:sprvFixupUtility.obj
 0001:0005ad64       ??0?$basic_filebuf@DU?$char_traits@D@std@@@std@@QEAA@PEAU_iobuf@@@Z 000000014005bd64 f i oraexectask:prvFixupTrace.obj
 0001:0005adfc       ??1?$basic_filebuf@DU?$char_traits@D@std@@@std@@UEAA@XZ 000000014005bdfc f i oraexectask:prvFixupTrace.obj
 0001:0005aeb0       ?is_open@?$basic_filebuf@DU?$char_traits@D@std@@@std@@QEBA_NXZ 000000014005beb0 f i oraexectask:prvFixupTrace.obj
 0001:0005aee8       ?open@?$basic_filebuf@DU?$char_traits@D@std@@@std@@QEAAPEAV12@PEBDHH@Z 000000014005bee8 f i oraexectask:prvFixupTrace.obj
 0001:0005b074       ?close@?$basic_filebuf@DU?$char_traits@D@std@@@std@@QEAAPEAV12@XZ 000000014005c074 f i oraexectask:prvFixupTrace.obj
 0001:0005b11c       ?_Lock@?$basic_filebuf@DU?$char_traits@D@std@@@std@@UEAAXXZ 000000014005c11c f i oraexectask:prvFixupTrace.obj
 0001:0005b15c       ?_Unlock@?$basic_filebuf@DU?$char_traits@D@std@@@std@@UEAAXXZ 000000014005c15c f i oraexectask:prvFixupTrace.obj
 0001:0005b19c       ?overflow@?$basic_filebuf@DU?$char_traits@D@std@@@std@@MEAAHH@Z 000000014005c19c f i oraexectask:prvFixupTrace.obj
 0001:0005ba4c       ?pbackfail@?$basic_filebuf@DU?$char_traits@D@std@@@std@@MEAAHH@Z 000000014005ca4c f i oraexectask:prvFixupTrace.obj
 0001:0005bccc       ?underflow@?$basic_filebuf@DU?$char_traits@D@std@@@std@@MEAAHXZ 000000014005cccc f i oraexectask:prvFixupTrace.obj
 0001:0005be20       ?uflow@?$basic_filebuf@DU?$char_traits@D@std@@@std@@MEAAHXZ 000000014005ce20 f i oraexectask:prvFixupTrace.obj
 0001:0005c65c       ?seekoff@?$basic_filebuf@DU?$char_traits@D@std@@@std@@MEAA?AV?$fpos@H@2@_JHH@Z 000000014005d65c f i oraexectask:prvFixupTrace.obj
 0001:0005c830       ?seekpos@?$basic_filebuf@DU?$char_traits@D@std@@@std@@MEAA?AV?$fpos@H@2@V32@H@Z 000000014005d830 f i oraexectask:prvFixupTrace.obj
 0001:0005ca2c       ?setbuf@?$basic_filebuf@DU?$char_traits@D@std@@@std@@MEAAPEAV?$basic_streambuf@DU?$char_traits@D@std@@@2@PEAD_J@Z 000000014005da2c f i oraexectask:prvFixupTrace.obj
 0001:0005cb0c       ?sync@?$basic_filebuf@DU?$char_traits@D@std@@@std@@MEAAHXZ 000000014005db0c f i oraexectask:prvFixupTrace.obj
 0001:0005cbfc       ?imbue@?$basic_filebuf@DU?$char_traits@D@std@@@std@@MEAAXAEBVlocale@2@@Z 000000014005dbfc f i oraexectask:prvFixupTrace.obj
 0001:0005cc3c       ?_Init@?$basic_filebuf@DU?$char_traits@D@std@@@std@@IEAAXPEAU_iobuf@@W4_Initfl@12@@Z 000000014005dc3c f i oraexectask:prvFixupTrace.obj
 0001:0005cd5c       ?_Endwrite@?$basic_filebuf@DU?$char_traits@D@std@@@std@@IEAA_NXZ 000000014005dd5c f i oraexectask:prvFixupTrace.obj
 0001:0005d32c       ?_Initcvt@?$basic_filebuf@DU?$char_traits@D@std@@@std@@IEAAXPEBV?$codecvt@DDH@2@@Z 000000014005e32c f i oraexectask:prvFixupTrace.obj
 0001:0005d394       ?_Reset_back@?$basic_filebuf@DU?$char_traits@D@std@@@std@@AEAAXXZ 000000014005e394 f i oraexectask:prvFixupTrace.obj
 0001:0005d41c       ?_Set_back@?$basic_filebuf@DU?$char_traits@D@std@@@std@@AEAAXXZ 000000014005e41c f i oraexectask:prvFixupTrace.obj
 0001:0005d4f0       ??0?$basic_ofstream@DU?$char_traits@D@std@@@std@@QEAA@PEBDHH@Z 000000014005e4f0 f i oraexectask:prvFixupTrace.obj
 0001:0005d830       ??1?$basic_ofstream@DU?$char_traits@D@std@@@std@@UEAA@XZ 000000014005e830 f i oraexectask:prvFixupTrace.obj
 0001:0005d8a0       ?is_open@?$basic_ofstream@DU?$char_traits@D@std@@@std@@QEBA_NXZ 000000014005e8a0 f i oraexectask:prvFixupTrace.obj
 0001:0005d8d0       ?open@?$basic_ofstream@DU?$char_traits@D@std@@@std@@QEAAXPEBDHH@Z 000000014005e8d0 f i oraexectask:prvFixupTrace.obj
 0001:0005d9b0       ?close@?$basic_ofstream@DU?$char_traits@D@std@@@std@@QEAAXXZ 000000014005e9b0 f i oraexectask:prvFixupTrace.obj
 0001:0005da24       ??0?$_String_const_iterator@V?$_String_val@U?$_Simple_types@D@std@@@std@@@std@@QEAA@PEBDPEBU_Container_base0@1@@Z 000000014005ea24 f i oraexectask:prvFixupTrace.obj
 0001:0005da6c       ??0?$_String_iterator@V?$_String_val@U?$_Simple_types@D@std@@@std@@@std@@QEAA@PEADPEBU_Container_base0@1@@Z 000000014005ea6c f i oraexectask:prvFixupTrace.obj
 0001:0005dabc       ??D?$_String_iterator@V?$_String_val@U?$_Simple_types@D@std@@@std@@@std@@QEBAAEADXZ 000000014005eabc f i oraexectask:prvFixupTrace.obj
 0001:0005dabc       ??D?$_Vector_iterator@V?$_Vector_val@U?$_Simple_types@V?$basic_string@DU?$char_traits@D@std@@V?$allocator@D@2@@std@@@std@@@std@@@std@@QEBAAEAV?$basic_string@DU?$char_traits@D@std@@V?$allocator@D@2@@1@XZ 000000014005eabc f i oraexectask:prvFixupXmlParser.obj
 0001:0005dae8       ??0?$fpos@H@std@@QEAA@_J@Z 000000014005eae8 f i oraexectask:prvFixupTrace.obj
 0001:0005db30       ??0?$fpos@H@std@@QEAA@H_J@Z 000000014005eb30 f i oraexectask:prvFixupTrace.obj
 0001:0005db7c       ?state@?$fpos@H@std@@QEBAHXZ 000000014005eb7c f i oraexectask:prvFixupTrace.obj
 0001:0005db7c       ?getErrorCode@NativeError@prv_fixup@@QEBA?BHXZ 000000014005eb7c f i oraexectask:prvFixupXmlParser.obj
 0001:0005db9c       ?seekpos@?$fpos@H@std@@QEBA_JXZ 000000014005eb9c f i oraexectask:prvFixupTrace.obj
 0001:0005db9c       ?getName@NameValuePair@prv_fixup@@QEBAPEBV?$basic_string@DU?$char_traits@D@std@@V?$allocator@D@2@@std@@XZ 000000014005eb9c f i oraexectask:prvFixupUtility.obj
 0001:0005db9c       ?getErrMessage@NativeError@prv_fixup@@QEBAPEBV?$basic_string@DU?$char_traits@D@std@@V?$allocator@D@2@@std@@XZ 000000014005eb9c f i oraexectask:prvFixupResult.obj
 0001:0005db9c       ?category@error_code@std@@QEBAAEBVerror_category@2@XZ 000000014005eb9c f i oraexectask:prvFixupMain.obj
 0001:0005db9c       ?getMsgID@NLSError@prv_fixup@@QEBAPEBV?$basic_string@DU?$char_traits@D@std@@V?$allocator@D@2@@std@@XZ 000000014005eb9c f i oraexectask:prvFixupUtility.obj
 0001:0005dbbc       ??B?$fpos@H@std@@QEBA_JXZ  000000014005ebbc f i oraexectask:prvFixupTrace.obj
 0001:0005dbe8       ??$_Fgetc@D@std@@YA_NAEADPEAU_iobuf@@@Z 000000014005ebe8 f i oraexectask:prvFixupTrace.obj
 0001:0005dc48       ??$_Fputc@D@std@@YA_NDPEAU_iobuf@@@Z 000000014005ec48 f i oraexectask:prvFixupTrace.obj
 0001:0005dca0       ??$_Ungetc@D@std@@YA_NAEBDPEAU_iobuf@@@Z 000000014005eca0 f i oraexectask:prvFixupTrace.obj
 0001:0005dd00       ??$?6DU?$char_traits@D@std@@V?$allocator@D@1@@std@@YAAEAV?$basic_ostream@DU?$char_traits@D@std@@@0@AEAV10@AEBV?$basic_string@DU?$char_traits@D@std@@V?$allocator@D@2@@0@@Z 000000014005ed00 f i oraexectask:prvFixupTrace.obj
 0001:0005e504       ??$?6U?$char_traits@D@std@@@std@@YAAEAV?$basic_ostream@DU?$char_traits@D@std@@@0@AEAV10@PEBD@Z 000000014005f504 f i oraexectask:prvFixupTrace.obj
 0001:0005ecf4       ??$endl@DU?$char_traits@D@std@@@std@@YAAEAV?$basic_ostream@DU?$char_traits@D@std@@@0@AEAV10@@Z 000000014005fcf4 f i oraexectask:prvFixupTrace.obj
 0001:0005ed94       ??$use_facet@V?$codecvt@DDH@std@@@std@@YAAEBV?$codecvt@DDH@0@AEBVlocale@0@@Z 000000014005fd94 f i oraexectask:prvFixupTrace.obj
 0001:0005efa8       ??_D?$basic_ofstream@DU?$char_traits@D@std@@@std@@QEAAXXZ 000000014005ffa8 f i oraexectask:prvFixupTrace.obj
 0001:0005efe8       ??_E?$basic_ofstream@DU?$char_traits@D@std@@@std@@$4PPPPPPPM@A@EAAPEAXI@Z 000000014005ffe8 f i oraexectask:prvFixupTrace.obj
 0001:0005f0d4       ?trace@Trace@prv_fixup@@SAXAEBV?$basic_string@DU?$char_traits@D@std@@V?$allocator@D@2@@std@@0W4TRACE_LEVEL@2@@Z 00000001400600d4 f   oraexectask:prvFixupTrace.obj
 0001:0005f36a       ?trace@Trace@prv_fixup@@SAXAEBV?$basic_string@DU?$char_traits@D@std@@V?$allocator@D@2@@std@@0@Z 000000014006036a f   oraexectask:prvFixupTrace.obj
 0001:0005f3aa       ?setTraceLevel@Trace@prv_fixup@@SAXAEBH@Z 00000001400603aa f   oraexectask:prvFixupTrace.obj
 0001:0005f4c2       ?close@Trace@prv_fixup@@SAXXZ 00000001400604c2 f   oraexectask:prvFixupTrace.obj
 0001:0005f4e2       ?getTraceFileName@Trace@prv_fixup@@SAPEBV?$basic_string@DU?$char_traits@D@std@@V?$allocator@D@2@@std@@XZ 00000001400604e2 f   oraexectask:prvFixupTrace.obj
 0001:0005fe08       ??_E?$basic_ifstream@DU?$char_traits@D@std@@@std@@UEAAPEAXI@Z 0000000140060e08 f i oraexectask:sprvFixupUtility.obj
 0001:0005fe08       ??_G?$basic_ifstream@DU?$char_traits@D@std@@@std@@UEAAPEAXI@Z 0000000140060e08 f i oraexectask:sprvFixupUtility.obj
 0001:0005fe5c       ??Y?$basic_string@DU?$char_traits@D@std@@V?$allocator@D@2@@std@@QEAAAEAV01@D@Z 0000000140060e5c f i oraexectask:sprvFixupUtility.obj
 0001:0005fea4       ?compare@?$basic_string@DU?$char_traits@D@std@@V?$allocator@D@2@@std@@QEBAHPEBD@Z 0000000140060ea4 f i oraexectask:sprvFixupUtility.obj
 0001:0005ff20       ?compare@?$basic_string@DU?$char_traits@D@std@@V?$allocator@D@2@@std@@QEBAH_K0PEBD0@Z 0000000140060f20 f i oraexectask:sprvFixupUtility.obj
 0001:0006004c       ??0_Sentry_base@?$basic_ostream@DU?$char_traits@D@std@@@std@@QEAA@AEAV12@@Z 000000014006104c f i oraexectask:prvFixupTrace.obj
 0001:0006004c       ??0_Sentry_base@?$basic_istream@DU?$char_traits@D@std@@@std@@QEAA@AEAV12@@Z 000000014006104c f i oraexectask:sprvFixupUtility.obj
 0001:00060144       ??0sentry@?$basic_istream@DU?$char_traits@D@std@@@std@@QEAA@AEAV12@_N@Z 0000000140061144 f i oraexectask:sprvFixupUtility.obj
 0001:000601e8       ??1sentry@?$basic_istream@DU?$char_traits@D@std@@@std@@QEAA@XZ 00000001400611e8 f i oraexectask:sprvFixupUtility.obj
 0001:0006020c       ??$construct@PEBV?$basic_string@DU?$char_traits@D@std@@V?$allocator@D@2@@std@@PEBV12@@?$allocator@PEBV?$basic_string@DU?$char_traits@D@std@@V?$allocator@D@2@@std@@@std@@QEAAXPEAPEBV?$basic_string@DU?$char_traits@D@std@@V?$allocator@D@2@@1@$$QEAPEBV21@@Z 000000014006120c f i oraexectask:sprvFixupUtility.obj
 0001:000602f8       ??$construct@PEBV?$basic_string@DU?$char_traits@D@std@@V?$allocator@D@2@@std@@PEBV12@@?$allocator_traits@V?$allocator@PEBV?$basic_string@DU?$char_traits@D@std@@V?$allocator@D@2@@std@@@std@@@std@@SAXAEAV?$allocator@PEBV?$basic_string@DU?$char_traits@D@std@@V?$allocator@D@2@@std@@@1@PEAPEBV?$basic_string@DU?$char_traits@D@std@@V?$allocator@D@2@@1@$$QEAPEBV31@@Z 00000001400612f8 f i oraexectask:sprvFixupUtility.obj
 0001:00060350       ??0?$_Wrap_alloc@V?$allocator@PEAVScript@prv_fixup@@@std@@@std@@QEAA@XZ 0000000140061350 f i oraexectask:prvFixupTaskData.obj
 0001:00060350       ??0?$_Wrap_alloc@V?$allocator@PEAVXmlNode@prv_fixup@@@std@@@std@@QEAA@XZ 0000000140061350 f i oraexectask:prvFixupUtility.obj
 0001:00060350       ??0?$_Wrap_alloc@V?$allocator@D@std@@@std@@QEAA@XZ 0000000140061350 f i oraexectask:prvFixupMain.obj
 0001:00060350       ??0?$_Wrap_alloc@V?$allocator@PEAVFixupTask@prv_fixup@@@std@@@std@@QEAA@XZ 0000000140061350 f i oraexectask:prvFixupHandler.obj
 0001:00060350       ??0?$_Wrap_alloc@V?$allocator@PEAVNLSError@prv_fixup@@@std@@@std@@QEAA@XZ 0000000140061350 f i oraexectask:prvFixupUtility.obj
 0001:00060350       ??0?$_Wrap_alloc@V?$allocator@PEAVFixupData@prv_fixup@@@std@@@std@@QEAA@XZ 0000000140061350 f i oraexectask:prvFixupHandler.obj
 0001:00060350       ??0?$_Wrap_alloc@V?$allocator@PEAVNativeError@prv_fixup@@@std@@@std@@QEAA@XZ 0000000140061350 f i oraexectask:prvFixupResult.obj
 0001:00060350       ??0?$_Wrap_alloc@V?$allocator@PEBV?$basic_string@DU?$char_traits@D@std@@V?$allocator@D@2@@std@@@std@@@std@@QEAA@XZ 0000000140061350 f i oraexectask:sprvFixupUtility.obj
 0001:00060350       ??0?$_Wrap_alloc@V?$allocator@PEAVNameValuePair@prv_fixup@@@std@@@std@@QEAA@XZ 0000000140061350 f i oraexectask:prvFixupUtility.obj
 0001:00060350       ??0?$_Wrap_alloc@V?$allocator@V?$basic_string@DU?$char_traits@D@std@@V?$allocator@D@2@@std@@@std@@@std@@QEAA@XZ 0000000140061350 f i oraexectask:prvFixupUtility.obj
 0001:0006037c       ??$construct@PEBV?$basic_string@DU?$char_traits@D@std@@V?$allocator@D@2@@std@@PEBV12@@?$_Wrap_alloc@V?$allocator@PEBV?$basic_string@DU?$char_traits@D@std@@V?$allocator@D@2@@std@@@std@@@std@@QEAAXPEAPEBV?$basic_string@DU?$char_traits@D@std@@V?$allocator@D@2@@1@$$QEAPEBV21@@Z 000000014006137c f i oraexectask:sprvFixupUtility.obj
 0001:000603d4       ??0?$vector@PEBV?$basic_string@DU?$char_traits@D@std@@V?$allocator@D@2@@std@@V?$allocator@PEBV?$basic_string@DU?$char_traits@D@std@@V?$allocator@D@2@@std@@@2@@std@@QEAA@AEBV01@@Z 00000001400613d4 f i oraexectask:sprvFixupUtility.obj
 0001:00060564       ?push_back@?$vector@PEBV?$basic_string@DU?$char_traits@D@std@@V?$allocator@D@2@@std@@V?$allocator@PEBV?$basic_string@DU?$char_traits@D@std@@V?$allocator@D@2@@std@@@2@@std@@QEAAX$$QEAPEBV?$basic_string@DU?$char_traits@D@std@@V?$allocator@D@2@@2@@Z 0000000140061564 f i oraexectask:sprvFixupUtility.obj
 0001:00060798       ?empty@?$vector@PEBV?$basic_string@DU?$char_traits@D@std@@V?$allocator@D@2@@std@@V?$allocator@PEBV?$basic_string@DU?$char_traits@D@std@@V?$allocator@D@2@@std@@@2@@std@@QEBA_NXZ 0000000140061798 f i oraexectask:sprvFixupUtility.obj
 0001:000607e0       ?at@?$vector@PEAVXmlNode@prv_fixup@@V?$allocator@PEAVXmlNode@prv_fixup@@@std@@@std@@QEBAAEBQEAVXmlNode@prv_fixup@@_K@Z 00000001400617e0 f i oraexectask:prvFixupXmlNode.obj
 0001:000607e0       ?at@?$vector@PEAVNameValuePair@prv_fixup@@V?$allocator@PEAVNameValuePair@prv_fixup@@@std@@@std@@QEBAAEBQEAVNameValuePair@prv_fixup@@_K@Z 00000001400617e0 f i oraexectask:prvFixupXmlNode.obj
 0001:000607e0       ?at@?$vector@PEAVFixupData@prv_fixup@@V?$allocator@PEAVFixupData@prv_fixup@@@std@@@std@@QEAAAEAPEAVFixupData@prv_fixup@@_K@Z 00000001400617e0 f i oraexectask:prvFixupXmlParser.obj
 0001:000607e0       ?at@?$vector@PEAVFixupData@prv_fixup@@V?$allocator@PEAVFixupData@prv_fixup@@@std@@@std@@QEBAAEBQEAVFixupData@prv_fixup@@_K@Z 00000001400617e0 f i oraexectask:prvFixupTask.obj
 0001:000607e0       ?at@?$vector@PEAVFixupTask@prv_fixup@@V?$allocator@PEAVFixupTask@prv_fixup@@@std@@@std@@QEAAAEAPEAVFixupTask@prv_fixup@@_K@Z 00000001400617e0 f i oraexectask:prvFixupHandler.obj
 0001:000607e0       ?at@?$vector@PEBV?$basic_string@DU?$char_traits@D@std@@V?$allocator@D@2@@std@@V?$allocator@PEBV?$basic_string@DU?$char_traits@D@std@@V?$allocator@D@2@@std@@@2@@std@@QEAAAEAPEBV?$basic_string@DU?$char_traits@D@std@@V?$allocator@D@2@@2@_K@Z 00000001400617e0 f i oraexectask:sprvFixupUtility.obj
 0001:000607e0       ?at@?$vector@PEAVNativeError@prv_fixup@@V?$allocator@PEAVNativeError@prv_fixup@@@std@@@std@@QEBAAEBQEAVNativeError@prv_fixup@@_K@Z 00000001400617e0 f i oraexectask:prvFixupResult.obj
 0001:000607e0       ?at@?$vector@PEAVNativeError@prv_fixup@@V?$allocator@PEAVNativeError@prv_fixup@@@std@@@std@@QEAAAEAPEAVNativeError@prv_fixup@@_K@Z 00000001400617e0 f i oraexectask:prvFixupXmlParser.obj
 0001:000607e0       ?at@?$vector@PEAVXmlNode@prv_fixup@@V?$allocator@PEAVXmlNode@prv_fixup@@@std@@@std@@QEAAAEAPEAVXmlNode@prv_fixup@@_K@Z 00000001400617e0 f i oraexectask:prvFixupUtility.obj
 0001:000607e0       ?at@?$vector@PEBV?$basic_string@DU?$char_traits@D@std@@V?$allocator@D@2@@std@@V?$allocator@PEBV?$basic_string@DU?$char_traits@D@std@@V?$allocator@D@2@@std@@@2@@std@@QEBAAEBQEBV?$basic_string@DU?$char_traits@D@std@@V?$allocator@D@2@@2@_K@Z 00000001400617e0 f i oraexectask:prvFixupTaskData.obj
 0001:000607e0       ?at@?$vector@PEAVNameValuePair@prv_fixup@@V?$allocator@PEAVNameValuePair@prv_fixup@@@std@@@std@@QEAAAEAPEAVNameValuePair@prv_fixup@@_K@Z 00000001400617e0 f i oraexectask:prvFixupUtility.obj
 0001:000607e0       ?at@?$vector@PEAVNLSError@prv_fixup@@V?$allocator@PEAVNLSError@prv_fixup@@@std@@@std@@QEAAAEAPEAVNLSError@prv_fixup@@_K@Z 00000001400617e0 f i oraexectask:prvFixupUtility.obj
 0001:0006083c       ?_Buy@?$vector@PEAVScript@prv_fixup@@V?$allocator@PEAVScript@prv_fixup@@@std@@@std@@IEAA_N_K@Z 000000014006183c f i oraexectask:prvFixupTaskData.obj
 0001:0006083c       ?_Buy@?$vector@PEAVNativeError@prv_fixup@@V?$allocator@PEAVNativeError@prv_fixup@@@std@@@std@@IEAA_N_K@Z 000000014006183c f i oraexectask:prvFixupResult.obj
 0001:0006083c       ?_Buy@?$vector@PEBV?$basic_string@DU?$char_traits@D@std@@V?$allocator@D@2@@std@@V?$allocator@PEBV?$basic_string@DU?$char_traits@D@std@@V?$allocator@D@2@@std@@@2@@std@@IEAA_N_K@Z 000000014006183c f i oraexectask:sprvFixupUtility.obj
 0001:0006083c       ?_Buy@?$vector@PEAVNLSError@prv_fixup@@V?$allocator@PEAVNLSError@prv_fixup@@@std@@@std@@IEAA_N_K@Z 000000014006183c f i oraexectask:prvFixupResult.obj
 0001:0006083c       ?_Buy@?$vector@PEAVFixupData@prv_fixup@@V?$allocator@PEAVFixupData@prv_fixup@@@std@@@std@@IEAA_N_K@Z 000000014006183c f i oraexectask:prvFixupTask.obj
 0001:0006083c       ?_Buy@?$vector@PEAVXmlNode@prv_fixup@@V?$allocator@PEAVXmlNode@prv_fixup@@@std@@@std@@IEAA_N_K@Z 000000014006183c f i oraexectask:prvFixupXmlNode.obj
 0001:0006083c       ?_Buy@?$vector@PEAVNameValuePair@prv_fixup@@V?$allocator@PEAVNameValuePair@prv_fixup@@@std@@@std@@IEAA_N_K@Z 000000014006183c f i oraexectask:prvFixupXmlNode.obj
 0001:0006083c       ?_Buy@?$vector@PEAVFixupTask@prv_fixup@@V?$allocator@PEAVFixupTask@prv_fixup@@@std@@@std@@IEAA_N_K@Z 000000014006183c f i oraexectask:prvFixupFactory.obj
 0001:0006091c       ?_Reallocate@?$vector@PEBV?$basic_string@DU?$char_traits@D@std@@V?$allocator@D@2@@std@@V?$allocator@PEBV?$basic_string@DU?$char_traits@D@std@@V?$allocator@D@2@@std@@@2@@std@@IEAAX_K@Z 000000014006191c f i oraexectask:sprvFixupUtility.obj
 0001:00060b58       ?_Reserve@?$vector@PEBV?$basic_string@DU?$char_traits@D@std@@V?$allocator@D@2@@std@@V?$allocator@PEBV?$basic_string@DU?$char_traits@D@std@@V?$allocator@D@2@@std@@@2@@std@@IEAAX_K@Z 0000000140061b58 f i oraexectask:sprvFixupUtility.obj
 0001:00060c10       ??$_Umove@PEAPEAVScript@prv_fixup@@@?$vector@PEAVScript@prv_fixup@@V?$allocator@PEAVScript@prv_fixup@@@std@@@std@@IEAAPEAPEAVScript@prv_fixup@@PEAPEAV23@00@Z 0000000140061c10 f i oraexectask:prvFixupTaskData.obj
 0001:00060c10       ??$_Umove@PEAPEBV?$basic_string@DU?$char_traits@D@std@@V?$allocator@D@2@@std@@@?$vector@PEBV?$basic_string@DU?$char_traits@D@std@@V?$allocator@D@2@@std@@V?$allocator@PEBV?$basic_string@DU?$char_traits@D@std@@V?$allocator@D@2@@std@@@2@@std@@IEAAPEAPEBV?$basic_string@DU?$char_traits@D@std@@V?$allocator@D@2@@1@PEAPEBV21@00@Z 0000000140061c10 f i oraexectask:sprvFixupUtility.obj
 0001:00060c10       ??$_Umove@PEAPEAVFixupTask@prv_fixup@@@?$vector@PEAVFixupTask@prv_fixup@@V?$allocator@PEAVFixupTask@prv_fixup@@@std@@@std@@IEAAPEAPEAVFixupTask@prv_fixup@@PEAPEAV23@00@Z 0000000140061c10 f i oraexectask:prvFixupFactory.obj
 0001:00060c10       ??$_Umove@PEAPEAVNameValuePair@prv_fixup@@@?$vector@PEAVNameValuePair@prv_fixup@@V?$allocator@PEAVNameValuePair@prv_fixup@@@std@@@std@@IEAAPEAPEAVNameValuePair@prv_fixup@@PEAPEAV23@00@Z 0000000140061c10 f i oraexectask:prvFixupXmlNode.obj
 0001:00060c10       ??$_Umove@PEAPEAVNativeError@prv_fixup@@@?$vector@PEAVNativeError@prv_fixup@@V?$allocator@PEAVNativeError@prv_fixup@@@std@@@std@@IEAAPEAPEAVNativeError@prv_fixup@@PEAPEAV23@00@Z 0000000140061c10 f i oraexectask:prvFixupResult.obj
 0001:00060c10       ??$_Umove@PEAPEAVNLSError@prv_fixup@@@?$vector@PEAVNLSError@prv_fixup@@V?$allocator@PEAVNLSError@prv_fixup@@@std@@@std@@IEAAPEAPEAVNLSError@prv_fixup@@PEAPEAV23@00@Z 0000000140061c10 f i oraexectask:prvFixupResult.obj
 0001:00060c10       ??$_Umove@PEAPEAVXmlNode@prv_fixup@@@?$vector@PEAVXmlNode@prv_fixup@@V?$allocator@PEAVXmlNode@prv_fixup@@@std@@@std@@IEAAPEAPEAVXmlNode@prv_fixup@@PEAPEAV23@00@Z 0000000140061c10 f i oraexectask:prvFixupXmlNode.obj
 0001:00060c8c       ??0?$basic_ifstream@DU?$char_traits@D@std@@@std@@QEAA@XZ 0000000140061c8c f i oraexectask:sprvFixupUtility.obj
 0001:00060e74       ??0?$basic_ifstream@DU?$char_traits@D@std@@@std@@QEAA@PEBDHH@Z 0000000140061e74 f i oraexectask:sprvFixupUtility.obj
 0001:000611b4       ??1?$basic_ifstream@DU?$char_traits@D@std@@@std@@UEAA@XZ 00000001400621b4 f i oraexectask:sprvFixupUtility.obj
 0001:00061224       ?open@?$basic_ifstream@DU?$char_traits@D@std@@@std@@QEAAXPEBDHH@Z 0000000140062224 f i oraexectask:sprvFixupUtility.obj
 0001:00061304       ?close@?$basic_ifstream@DU?$char_traits@D@std@@@std@@QEAAXXZ 0000000140062304 f i oraexectask:sprvFixupUtility.obj
 0001:00061378       ??0?$_Vector_const_iterator@V?$_Vector_val@U?$_Simple_types@PEAVFixupTask@prv_fixup@@@std@@@std@@@std@@QEAA@PEAPEAVFixupTask@prv_fixup@@PEBU_Container_base0@1@@Z 0000000140062378 f i oraexectask:prvFixupFactory.obj
 0001:00061378       ??0?$_Vector_const_iterator@V?$_Vector_val@U?$_Simple_types@PEAVNameValuePair@prv_fixup@@@std@@@std@@@std@@QEAA@PEAPEAVNameValuePair@prv_fixup@@PEBU_Container_base0@1@@Z 0000000140062378 f i oraexectask:prvFixupXmlNode.obj
 0001:00061378       ??0?$_Vector_const_iterator@V?$_Vector_val@U?$_Simple_types@PEAVNLSError@prv_fixup@@@std@@@std@@@std@@QEAA@PEAPEAVNLSError@prv_fixup@@PEBU_Container_base0@1@@Z 0000000140062378 f i oraexectask:prvFixupResult.obj
 0001:00061378       ??0?$_Vector_const_iterator@V?$_Vector_val@U?$_Simple_types@PEAVNativeError@prv_fixup@@@std@@@std@@@std@@QEAA@PEAPEAVNativeError@prv_fixup@@PEBU_Container_base0@1@@Z 0000000140062378 f i oraexectask:prvFixupResult.obj
 0001:00061378       ??0?$_Vector_const_iterator@V?$_Vector_val@U?$_Simple_types@PEAVXmlNode@prv_fixup@@@std@@@std@@@std@@QEAA@PEAPEAVXmlNode@prv_fixup@@PEBU_Container_base0@1@@Z 0000000140062378 f i oraexectask:prvFixupXmlNode.obj
 0001:00061378       ??0?$_Vector_const_iterator@V?$_Vector_val@U?$_Simple_types@PEBV?$basic_string@DU?$char_traits@D@std@@V?$allocator@D@2@@std@@@std@@@std@@@std@@QEAA@PEAPEBV?$basic_string@DU?$char_traits@D@std@@V?$allocator@D@2@@1@PEBU_Container_base0@1@@Z 0000000140062378 f i oraexectask:sprvFixupUtility.obj
 0001:00061378       ??0?$_Vector_const_iterator@V?$_Vector_val@U?$_Simple_types@V?$basic_string@DU?$char_traits@D@std@@V?$allocator@D@2@@std@@@std@@@std@@@std@@QEAA@PEAV?$basic_string@DU?$char_traits@D@std@@V?$allocator@D@2@@1@PEBU_Container_base0@1@@Z 0000000140062378 f i oraexectask:prvFixupUtility.obj
 0001:00061378       ??0?$_Vector_const_iterator@V?$_Vector_val@U?$_Simple_types@PEAVFixupData@prv_fixup@@@std@@@std@@@std@@QEAA@PEAPEAVFixupData@prv_fixup@@PEBU_Container_base0@1@@Z 0000000140062378 f i oraexectask:prvFixupTask.obj
 0001:00061378       ??0?$_Vector_const_iterator@V?$_Vector_val@U?$_Simple_types@PEAVScript@prv_fixup@@@std@@@std@@@std@@QEAA@PEAPEAVScript@prv_fixup@@PEBU_Container_base0@1@@Z 0000000140062378 f i oraexectask:prvFixupTaskData.obj
 0001:000613c0       ??0XmlParserException@prv_fixup@@QEAA@AEBV01@@Z 00000001400623c0 f i oraexectask:prvFixupXmlParser.obj
 0001:000613c0       ??0FixupException@prv_fixup@@QEAA@AEBV01@@Z 00000001400623c0 f i oraexectask:sprvFixupUtility.obj
 0001:000613c0       ??0FixupException@prv_fixup@@QEAA@AEBV?$basic_string@DU?$char_traits@D@std@@V?$allocator@D@2@@std@@@Z 00000001400623c0 f i oraexectask:sprvFixupUtility.obj
 0001:000613c0       ??0XmlParserException@prv_fixup@@QEAA@AEBV?$basic_string@DU?$char_traits@D@std@@V?$allocator@D@2@@std@@@Z 00000001400623c0 f i oraexectask:prvFixupXmlParser.obj
 0001:000613f8       ??0NLSError@prv_fixup@@QEAA@AEBV?$basic_string@DU?$char_traits@D@std@@V?$allocator@D@2@@std@@_NAEBHHZZ 00000001400623f8 f i oraexectask:sprvFixupUtility.obj
 0001:0006180c       ??$getline@DU?$char_traits@D@std@@V?$allocator@D@2@@std@@YAAEAV?$basic_istream@DU?$char_traits@D@std@@@0@AEAV10@AEAV?$basic_string@DU?$char_traits@D@std@@V?$allocator@D@2@@0@@Z 000000014006280c f i oraexectask:sprvFixupUtility.obj
 0001:000618b0       ??$?HDU?$char_traits@D@std@@V?$allocator@D@1@@std@@YA?AV?$basic_string@DU?$char_traits@D@std@@V?$allocator@D@2@@0@AEBV10@PEBD@Z 00000001400628b0 f i oraexectask:sprvFixupUtility.obj
 0001:000619e0       ??$_Uninit_copy@PEBQEAVFixupData@prv_fixup@@PEAPEAV12@U?$_Wrap_alloc@V?$allocator@PEAVFixupData@prv_fixup@@@std@@@std@@@std@@YAPEAPEAVFixupData@prv_fixup@@PEBQEAV12@0PEAPEAV12@AEAU?$_Wrap_alloc@V?$allocator@PEAVFixupData@prv_fixup@@@std@@@0@@Z 00000001400629e0 f i oraexectask:prvFixupTask.obj
 0001:000619e0       ??$_Uninit_copy@PEBQEBV?$basic_string@DU?$char_traits@D@std@@V?$allocator@D@2@@std@@PEAPEBV12@U?$_Wrap_alloc@V?$allocator@PEBV?$basic_string@DU?$char_traits@D@std@@V?$allocator@D@2@@std@@@std@@@2@@std@@YAPEAPEBV?$basic_string@DU?$char_traits@D@std@@V?$allocator@D@2@@0@PEBQEBV10@0PEAPEBV10@AEAU?$_Wrap_alloc@V?$allocator@PEBV?$basic_string@DU?$char_traits@D@std@@V?$allocator@D@2@@std@@@std@@@0@@Z 00000001400629e0 f i oraexectask:sprvFixupUtility.obj
 0001:000619e0       ??$_Uninit_copy@PEBQEAVXmlNode@prv_fixup@@PEAPEAV12@U?$_Wrap_alloc@V?$allocator@PEAVXmlNode@prv_fixup@@@std@@@std@@@std@@YAPEAPEAVXmlNode@prv_fixup@@PEBQEAV12@0PEAPEAV12@AEAU?$_Wrap_alloc@V?$allocator@PEAVXmlNode@prv_fixup@@@std@@@0@@Z 00000001400629e0 f i oraexectask:prvFixupXmlNode.obj
 0001:000619e0       ??$_Uninit_copy@PEBQEAVNLSError@prv_fixup@@PEAPEAV12@U?$_Wrap_alloc@V?$allocator@PEAVNLSError@prv_fixup@@@std@@@std@@@std@@YAPEAPEAVNLSError@prv_fixup@@PEBQEAV12@0PEAPEAV12@AEAU?$_Wrap_alloc@V?$allocator@PEAVNLSError@prv_fixup@@@std@@@0@@Z 00000001400629e0 f i oraexectask:prvFixupResult.obj
 0001:000619e0       ??$_Uninit_copy@PEBQEAVScript@prv_fixup@@PEAPEAV12@U?$_Wrap_alloc@V?$allocator@PEAVScript@prv_fixup@@@std@@@std@@@std@@YAPEAPEAVScript@prv_fixup@@PEBQEAV12@0PEAPEAV12@AEAU?$_Wrap_alloc@V?$allocator@PEAVScript@prv_fixup@@@std@@@0@@Z 00000001400629e0 f i oraexectask:prvFixupTaskData.obj
 0001:000619e0       ??$_Uninit_copy@PEBQEAVNameValuePair@prv_fixup@@PEAPEAV12@U?$_Wrap_alloc@V?$allocator@PEAVNameValuePair@prv_fixup@@@std@@@std@@@std@@YAPEAPEAVNameValuePair@prv_fixup@@PEBQEAV12@0PEAPEAV12@AEAU?$_Wrap_alloc@V?$allocator@PEAVNameValuePair@prv_fixup@@@std@@@0@@Z 00000001400629e0 f i oraexectask:prvFixupXmlNode.obj
 0001:000619e0       ??$_Uninit_copy@PEBQEAVNativeError@prv_fixup@@PEAPEAV12@U?$_Wrap_alloc@V?$allocator@PEAVNativeError@prv_fixup@@@std@@@std@@@std@@YAPEAPEAVNativeError@prv_fixup@@PEBQEAV12@0PEAPEAV12@AEAU?$_Wrap_alloc@V?$allocator@PEAVNativeError@prv_fixup@@@std@@@0@@Z 00000001400629e0 f i oraexectask:prvFixupResult.obj
 0001:000619e0       ??$_Uninit_copy@PEBQEAVFixupTask@prv_fixup@@PEAPEAV12@U?$_Wrap_alloc@V?$allocator@PEAVFixupTask@prv_fixup@@@std@@@std@@@std@@YAPEAPEAVFixupTask@prv_fixup@@PEBQEAV12@0PEAPEAV12@AEAU?$_Wrap_alloc@V?$allocator@PEAVFixupTask@prv_fixup@@@std@@@0@@Z 00000001400629e0 f i oraexectask:prvFixupFactory.obj
 0001:00061ab4       ??$_Rechecked@PEAPEBV?$basic_string@DU?$char_traits@D@std@@V?$allocator@D@2@@std@@PEAPEBV12@@std@@YAAEAPEAPEBV?$basic_string@DU?$char_traits@D@std@@V?$allocator@D@2@@0@AEAPEAPEBV10@PEAPEBV10@@Z 0000000140062ab4 f i oraexectask:sprvFixupUtility.obj
 0001:00061ab4       ??$_Rechecked@PEAV?$basic_string@DU?$char_traits@D@std@@V?$allocator@D@2@@std@@PEAV12@@std@@YAAEAPEAV?$basic_string@DU?$char_traits@D@std@@V?$allocator@D@2@@0@AEAPEAV10@PEAV10@@Z 0000000140062ab4 f i oraexectask:prvFixupUtility.obj
 0001:00061ab4       ??$_Rechecked@PEAPEAVNameValuePair@prv_fixup@@PEAPEAV12@@std@@YAAEAPEAPEAVNameValuePair@prv_fixup@@AEAPEAPEAV12@PEAPEAV12@@Z 0000000140062ab4 f i oraexectask:prvFixupXmlNode.obj
 0001:00061ab4       ??$_Rechecked@PEAPEAVNativeError@prv_fixup@@PEAPEAV12@@std@@YAAEAPEAPEAVNativeError@prv_fixup@@AEAPEAPEAV12@PEAPEAV12@@Z 0000000140062ab4 f i oraexectask:prvFixupResult.obj
 0001:00061ab4       ??$_Rechecked@PEAPEAVScript@prv_fixup@@PEAPEAV12@@std@@YAAEAPEAPEAVScript@prv_fixup@@AEAPEAPEAV12@PEAPEAV12@@Z 0000000140062ab4 f i oraexectask:prvFixupTaskData.obj
 0001:00061ab4       ??$_Rechecked@PEAPEAVFixupTask@prv_fixup@@PEAPEAV12@@std@@YAAEAPEAPEAVFixupTask@prv_fixup@@AEAPEAPEAV12@PEAPEAV12@@Z 0000000140062ab4 f i oraexectask:prvFixupFactory.obj
 0001:00061ab4       ??$_Rechecked@PEAPEAVXmlNode@prv_fixup@@PEAPEAV12@@std@@YAAEAPEAPEAVXmlNode@prv_fixup@@AEAPEAPEAV12@PEAPEAV12@@Z 0000000140062ab4 f i oraexectask:prvFixupXmlNode.obj
 0001:00061ab4       ??$_Rechecked@PEAPEAVFixupData@prv_fixup@@PEAPEAV12@@std@@YAAEAPEAPEAVFixupData@prv_fixup@@AEAPEAPEAV12@PEAPEAV12@@Z 0000000140062ab4 f i oraexectask:prvFixupXmlParser.obj
 0001:00061ab4       ??$_Rechecked@PEAPEAVNLSError@prv_fixup@@PEAPEAV12@@std@@YAAEAPEAPEAVNLSError@prv_fixup@@AEAPEAPEAV12@PEAPEAV12@@Z 0000000140062ab4 f i oraexectask:prvFixupResult.obj
 0001:00061ae4       ??$_Ptr_cat@PEAVNameValuePair@prv_fixup@@PEAV12@@std@@YA?AU_Scalar_ptr_iterator_tag@0@PEBQEAVNameValuePair@prv_fixup@@PEAPEAV23@@Z 0000000140062ae4 f i oraexectask:prvFixupXmlNode.obj
 0001:00061ae4       ??$_Ptr_cat@PEAVFixupTask@prv_fixup@@PEAV12@@std@@YA?AU_Scalar_ptr_iterator_tag@0@PEAPEAVFixupTask@prv_fixup@@0@Z 0000000140062ae4 f i oraexectask:prvFixupHandler.obj
 0001:00061ae4       ??$_Ptr_cat@PEAVXmlNode@prv_fixup@@PEAV12@@std@@YA?AU_Scalar_ptr_iterator_tag@0@PEBQEAVXmlNode@prv_fixup@@PEAPEAV23@@Z 0000000140062ae4 f i oraexectask:prvFixupXmlNode.obj
 0001:00061ae4       ??$_Ptr_cat@V?$move_iterator@V?$_Vector_iterator@V?$_Vector_val@U?$_Simple_types@V?$basic_string@DU?$char_traits@D@std@@V?$allocator@D@2@@std@@@std@@@std@@@std@@@std@@PEAV?$basic_string@DU?$char_traits@D@std@@V?$allocator@D@2@@2@@std@@YA?AU_Nonscalar_ptr_iterator_tag@0@AEAV?$move_iterator@V?$_Vector_iterator@V?$_Vector_val@U?$_Simple_types@V?$basic_string@DU?$char_traits@D@std@@V?$allocator@D@2@@std@@@std@@@std@@@std@@@0@AEAPEAV?$basic_string@DU?$char_traits@D@std@@V?$allocator@D@2@@0@@Z 0000000140062ae4 f i oraexectask:prvFixupXmlParser.obj
 0001:00061ae4       ??$_Ptr_cat@V?$basic_string@DU?$char_traits@D@std@@V?$allocator@D@2@@std@@V12@@std@@YA?AU_Nonscalar_ptr_iterator_tag@0@PEBV?$basic_string@DU?$char_traits@D@std@@V?$allocator@D@2@@0@PEAV20@@Z 0000000140062ae4 f i oraexectask:prvFixupUtility.obj
 0001:00061ae4       ??$_Ptr_cat@PEAVNativeError@prv_fixup@@PEAV12@@std@@YA?AU_Scalar_ptr_iterator_tag@0@PEAPEAVNativeError@prv_fixup@@0@Z 0000000140062ae4 f i oraexectask:prvFixupResult.obj
 0001:00061ae4       ??$_Ptr_cat@PEAVFixupData@prv_fixup@@PEAV12@@std@@YA?AU_Scalar_ptr_iterator_tag@0@PEBQEAVFixupData@prv_fixup@@PEAPEAV23@@Z 0000000140062ae4 f i oraexectask:prvFixupTask.obj
 0001:00061ae4       ??$_Ptr_cat@PEAVScript@prv_fixup@@PEAV12@@std@@YA?AU_Scalar_ptr_iterator_tag@0@PEBQEAVScript@prv_fixup@@PEAPEAV23@@Z 0000000140062ae4 f i oraexectask:prvFixupTaskData.obj
 0001:00061ae4       ??$_Ptr_cat@V?$basic_string@DU?$char_traits@D@std@@V?$allocator@D@2@@std@@V12@@std@@YA?AU_Nonscalar_ptr_iterator_tag@0@PEAV?$basic_string@DU?$char_traits@D@std@@V?$allocator@D@2@@0@0@Z 0000000140062ae4 f i oraexectask:prvFixupUtility.obj
 0001:00061ae4       ??$_Ptr_cat@PEAVFixupTask@prv_fixup@@PEAV12@@std@@YA?AU_Scalar_ptr_iterator_tag@0@PEBQEAVFixupTask@prv_fixup@@PEAPEAV23@@Z 0000000140062ae4 f i oraexectask:prvFixupFactory.obj
 0001:00061ae4       ??$_Ptr_cat@PEAVNameValuePair@prv_fixup@@PEAV12@@std@@YA?AU_Scalar_ptr_iterator_tag@0@PEAPEAVNameValuePair@prv_fixup@@0@Z 0000000140062ae4 f i oraexectask:prvFixupUtility.obj
 0001:00061ae4       ??$_Ptr_cat@PEBV?$basic_string@DU?$char_traits@D@std@@V?$allocator@D@2@@std@@PEBV12@@std@@YA?AU_Scalar_ptr_iterator_tag@0@PEBQEBV?$basic_string@DU?$char_traits@D@std@@V?$allocator@D@2@@0@PEAPEBV20@@Z 0000000140062ae4 f i oraexectask:sprvFixupUtility.obj
 0001:00061ae4       ??$_Ptr_cat@PEAVNLSError@prv_fixup@@PEAV12@@std@@YA?AU_Scalar_ptr_iterator_tag@0@PEAPEAVNLSError@prv_fixup@@0@Z 0000000140062ae4 f i oraexectask:prvFixupUtility.obj
 0001:00061ae4       ??$_Ptr_cat@PEAVNLSError@prv_fixup@@PEAV12@@std@@YA?AU_Scalar_ptr_iterator_tag@0@PEBQEAVNLSError@prv_fixup@@PEAPEAV23@@Z 0000000140062ae4 f i oraexectask:prvFixupResult.obj
 0001:00061ae4       ??$_Ptr_cat@PEBV?$basic_string@DU?$char_traits@D@std@@V?$allocator@D@2@@std@@PEBV12@@std@@YA?AU_Scalar_ptr_iterator_tag@0@PEAPEBV?$basic_string@DU?$char_traits@D@std@@V?$allocator@D@2@@0@0@Z 0000000140062ae4 f i oraexectask:sprvFixupUtility.obj
 0001:00061ae4       ??$_Ptr_cat@PEAVXmlNode@prv_fixup@@PEAV12@@std@@YA?AU_Scalar_ptr_iterator_tag@0@PEAPEAVXmlNode@prv_fixup@@0@Z 0000000140062ae4 f i oraexectask:prvFixupUtility.obj
 0001:00061ae4       ??$_Ptr_cat@PEAVScript@prv_fixup@@PEAV12@@std@@YA?AU_Scalar_ptr_iterator_tag@0@PEAPEAVScript@prv_fixup@@0@Z 0000000140062ae4 f i oraexectask:prvFixupTaskData.obj
 0001:00061ae4       ??$_Ptr_cat@PEAVNativeError@prv_fixup@@PEAV12@@std@@YA?AU_Scalar_ptr_iterator_tag@0@PEBQEAVNativeError@prv_fixup@@PEAPEAV23@@Z 0000000140062ae4 f i oraexectask:prvFixupResult.obj
 0001:00061ae4       ??$_Ptr_cat@PEAVFixupData@prv_fixup@@PEAV12@@std@@YA?AU_Scalar_ptr_iterator_tag@0@PEAPEAVFixupData@prv_fixup@@0@Z 0000000140062ae4 f i oraexectask:prvFixupHandler.obj
 0001:00061b08       ??$_Uninitialized_move@PEAPEBV?$basic_string@DU?$char_traits@D@std@@V?$allocator@D@2@@std@@PEAPEBV12@U?$_Wrap_alloc@V?$allocator@PEBV?$basic_string@DU?$char_traits@D@std@@V?$allocator@D@2@@std@@@std@@@2@@std@@YAPEAPEBV?$basic_string@DU?$char_traits@D@std@@V?$allocator@D@2@@0@PEAPEBV10@00AEAU?$_Wrap_alloc@V?$allocator@PEBV?$basic_string@DU?$char_traits@D@std@@V?$allocator@D@2@@std@@@std@@@0@@Z 0000000140062b08 f i oraexectask:sprvFixupUtility.obj
 0001:00061b08       ??$_Uninitialized_move@PEAPEAVNLSError@prv_fixup@@PEAPEAV12@U?$_Wrap_alloc@V?$allocator@PEAVNLSError@prv_fixup@@@std@@@std@@@std@@YAPEAPEAVNLSError@prv_fixup@@PEAPEAV12@00AEAU?$_Wrap_alloc@V?$allocator@PEAVNLSError@prv_fixup@@@std@@@0@@Z 0000000140062b08 f i oraexectask:prvFixupResult.obj
 0001:00061b08       ??$_Uninitialized_move@PEAPEAVXmlNode@prv_fixup@@PEAPEAV12@U?$_Wrap_alloc@V?$allocator@PEAVXmlNode@prv_fixup@@@std@@@std@@@std@@YAPEAPEAVXmlNode@prv_fixup@@PEAPEAV12@00AEAU?$_Wrap_alloc@V?$allocator@PEAVXmlNode@prv_fixup@@@std@@@0@@Z 0000000140062b08 f i oraexectask:prvFixupXmlNode.obj
 0001:00061b08       ??$_Uninitialized_move@PEAPEAVFixupTask@prv_fixup@@PEAPEAV12@U?$_Wrap_alloc@V?$allocator@PEAVFixupTask@prv_fixup@@@std@@@std@@@std@@YAPEAPEAVFixupTask@prv_fixup@@PEAPEAV12@00AEAU?$_Wrap_alloc@V?$allocator@PEAVFixupTask@prv_fixup@@@std@@@0@@Z 0000000140062b08 f i oraexectask:prvFixupFactory.obj
 0001:00061b08       ??$_Uninitialized_move@PEAPEAVNameValuePair@prv_fixup@@PEAPEAV12@U?$_Wrap_alloc@V?$allocator@PEAVNameValuePair@prv_fixup@@@std@@@std@@@std@@YAPEAPEAVNameValuePair@prv_fixup@@PEAPEAV12@00AEAU?$_Wrap_alloc@V?$allocator@PEAVNameValuePair@prv_fixup@@@std@@@0@@Z 0000000140062b08 f i oraexectask:prvFixupXmlNode.obj
 0001:00061b08       ??$_Uninitialized_move@PEAPEAVNativeError@prv_fixup@@PEAPEAV12@U?$_Wrap_alloc@V?$allocator@PEAVNativeError@prv_fixup@@@std@@@std@@@std@@YAPEAPEAVNativeError@prv_fixup@@PEAPEAV12@00AEAU?$_Wrap_alloc@V?$allocator@PEAVNativeError@prv_fixup@@@std@@@0@@Z 0000000140062b08 f i oraexectask:prvFixupResult.obj
 0001:00061b08       ??$_Uninitialized_move@PEAPEAVScript@prv_fixup@@PEAPEAV12@U?$_Wrap_alloc@V?$allocator@PEAVScript@prv_fixup@@@std@@@std@@@std@@YAPEAPEAVScript@prv_fixup@@PEAPEAV12@00AEAU?$_Wrap_alloc@V?$allocator@PEAVScript@prv_fixup@@@std@@@0@@Z 0000000140062b08 f i oraexectask:prvFixupTaskData.obj
 0001:00061bc8       ??$_Uninit_move@PEAPEAVNameValuePair@prv_fixup@@PEAPEAV12@U?$_Wrap_alloc@V?$allocator@PEAVNameValuePair@prv_fixup@@@std@@@std@@@std@@YAPEAPEAVNameValuePair@prv_fixup@@PEAPEAV12@00AEAU?$_Wrap_alloc@V?$allocator@PEAVNameValuePair@prv_fixup@@@std@@@0@@Z 0000000140062bc8 f i oraexectask:prvFixupXmlNode.obj
 0001:00061bc8       ??$_Uninit_move@PEAPEAVFixupTask@prv_fixup@@PEAPEAV12@U?$_Wrap_alloc@V?$allocator@PEAVFixupTask@prv_fixup@@@std@@@std@@@std@@YAPEAPEAVFixupTask@prv_fixup@@PEAPEAV12@00AEAU?$_Wrap_alloc@V?$allocator@PEAVFixupTask@prv_fixup@@@std@@@0@@Z 0000000140062bc8 f i oraexectask:prvFixupFactory.obj
 0001:00061bc8       ??$_Uninit_move@PEAPEAVNativeError@prv_fixup@@PEAPEAV12@U?$_Wrap_alloc@V?$allocator@PEAVNativeError@prv_fixup@@@std@@@std@@@std@@YAPEAPEAVNativeError@prv_fixup@@PEAPEAV12@00AEAU?$_Wrap_alloc@V?$allocator@PEAVNativeError@prv_fixup@@@std@@@0@@Z 0000000140062bc8 f i oraexectask:prvFixupResult.obj
 0001:00061bc8       ??$_Uninit_move@PEAPEAVXmlNode@prv_fixup@@PEAPEAV12@U?$_Wrap_alloc@V?$allocator@PEAVXmlNode@prv_fixup@@@std@@@std@@@std@@YAPEAPEAVXmlNode@prv_fixup@@PEAPEAV12@00AEAU?$_Wrap_alloc@V?$allocator@PEAVXmlNode@prv_fixup@@@std@@@0@@Z 0000000140062bc8 f i oraexectask:prvFixupXmlNode.obj
 0001:00061bc8       ??$_Uninit_move@PEAPEBV?$basic_string@DU?$char_traits@D@std@@V?$allocator@D@2@@std@@PEAPEBV12@U?$_Wrap_alloc@V?$allocator@PEBV?$basic_string@DU?$char_traits@D@std@@V?$allocator@D@2@@std@@@std@@@2@@std@@YAPEAPEBV?$basic_string@DU?$char_traits@D@std@@V?$allocator@D@2@@0@PEAPEBV10@00AEAU?$_Wrap_alloc@V?$allocator@PEBV?$basic_string@DU?$char_traits@D@std@@V?$allocator@D@2@@std@@@std@@@0@@Z 0000000140062bc8 f i oraexectask:sprvFixupUtility.obj
 0001:00061bc8       ??$_Uninit_move@PEAPEAVScript@prv_fixup@@PEAPEAV12@U?$_Wrap_alloc@V?$allocator@PEAVScript@prv_fixup@@@std@@@std@@@std@@YAPEAPEAVScript@prv_fixup@@PEAPEAV12@00AEAU?$_Wrap_alloc@V?$allocator@PEAVScript@prv_fixup@@@std@@@0@@Z 0000000140062bc8 f i oraexectask:prvFixupTaskData.obj
 0001:00061bc8       ??$_Uninit_move@PEAPEAVNLSError@prv_fixup@@PEAPEAV12@U?$_Wrap_alloc@V?$allocator@PEAVNLSError@prv_fixup@@@std@@@std@@@std@@YAPEAPEAVNLSError@prv_fixup@@PEAPEAV12@00AEAU?$_Wrap_alloc@V?$allocator@PEAVNLSError@prv_fixup@@@std@@@0@@Z 0000000140062bc8 f i oraexectask:prvFixupResult.obj
 0001:00061cc4       ??$_Val_type@PEAPEAVNameValuePair@prv_fixup@@@std@@YAPEAPEAVNameValuePair@prv_fixup@@PEAPEAV12@@Z 0000000140062cc4 f i oraexectask:prvFixupXmlNode.obj
 0001:00061cc4       ??$_Val_type@PEAV?$basic_string@DU?$char_traits@D@std@@V?$allocator@D@2@@std@@@std@@YAPEAV?$basic_string@DU?$char_traits@D@std@@V?$allocator@D@2@@0@PEAV10@@Z 0000000140062cc4 f i oraexectask:prvFixupUtility.obj
 0001:00061cc4       ??$_Val_type@PEAPEBV?$basic_string@DU?$char_traits@D@std@@V?$allocator@D@2@@std@@@std@@YAPEAPEBV?$basic_string@DU?$char_traits@D@std@@V?$allocator@D@2@@0@PEAPEBV10@@Z 0000000140062cc4 f i oraexectask:sprvFixupUtility.obj
 0001:00061cc4       ??$_Val_type@PEAPEAVScript@prv_fixup@@@std@@YAPEAPEAVScript@prv_fixup@@PEAPEAV12@@Z 0000000140062cc4 f i oraexectask:prvFixupTaskData.obj
 0001:00061cc4       ??$_Val_type@PEAPEAVNativeError@prv_fixup@@@std@@YAPEAPEAVNativeError@prv_fixup@@PEAPEAV12@@Z 0000000140062cc4 f i oraexectask:prvFixupResult.obj
 0001:00061cc4       ??$_Val_type@PEAPEAVFixupTask@prv_fixup@@@std@@YAPEAPEAVFixupTask@prv_fixup@@PEAPEAV12@@Z 0000000140062cc4 f i oraexectask:prvFixupFactory.obj
 0001:00061cc4       ??$_Val_type@PEAPEAVNLSError@prv_fixup@@@std@@YAPEAPEAVNLSError@prv_fixup@@PEAPEAV12@@Z 0000000140062cc4 f i oraexectask:prvFixupResult.obj
 0001:00061cc4       ??$_Val_type@PEAPEAVXmlNode@prv_fixup@@@std@@YAPEAPEAVXmlNode@prv_fixup@@PEAPEAV12@@Z 0000000140062cc4 f i oraexectask:prvFixupXmlNode.obj
 0001:00061cc4       ??$_Val_type@PEAPEAVFixupData@prv_fixup@@@std@@YAPEAPEAVFixupData@prv_fixup@@PEAPEAV12@@Z 0000000140062cc4 f i oraexectask:prvFixupXmlParser.obj
 0001:00061ce4       ??$_Uninit_copy@QEAVNLSError@prv_fixup@@PEAV12@@std@@YAPEAPEAVNLSError@prv_fixup@@PEBQEAV12@0PEAPEAV12@AEAU?$_Wrap_alloc@V?$allocator@PEAVNLSError@prv_fixup@@@std@@@0@U_Scalar_ptr_iterator_tag@0@@Z 0000000140062ce4 f i oraexectask:prvFixupResult.obj
 0001:00061ce4       ??$_Uninit_copy@QEAVXmlNode@prv_fixup@@PEAV12@@std@@YAPEAPEAVXmlNode@prv_fixup@@PEBQEAV12@0PEAPEAV12@AEAU?$_Wrap_alloc@V?$allocator@PEAVXmlNode@prv_fixup@@@std@@@0@U_Scalar_ptr_iterator_tag@0@@Z 0000000140062ce4 f i oraexectask:prvFixupXmlNode.obj
 0001:00061ce4       ??$_Uninit_copy@QEAVNameValuePair@prv_fixup@@PEAV12@@std@@YAPEAPEAVNameValuePair@prv_fixup@@PEBQEAV12@0PEAPEAV12@AEAU?$_Wrap_alloc@V?$allocator@PEAVNameValuePair@prv_fixup@@@std@@@0@U_Scalar_ptr_iterator_tag@0@@Z 0000000140062ce4 f i oraexectask:prvFixupXmlNode.obj
 0001:00061ce4       ??$_Uninit_copy@QEAVScript@prv_fixup@@PEAV12@@std@@YAPEAPEAVScript@prv_fixup@@PEBQEAV12@0PEAPEAV12@AEAU?$_Wrap_alloc@V?$allocator@PEAVScript@prv_fixup@@@std@@@0@U_Scalar_ptr_iterator_tag@0@@Z 0000000140062ce4 f i oraexectask:prvFixupTaskData.obj
 0001:00061ce4       ??$_Uninit_copy@QEAVFixupTask@prv_fixup@@PEAV12@@std@@YAPEAPEAVFixupTask@prv_fixup@@PEBQEAV12@0PEAPEAV12@AEAU?$_Wrap_alloc@V?$allocator@PEAVFixupTask@prv_fixup@@@std@@@0@U_Scalar_ptr_iterator_tag@0@@Z 0000000140062ce4 f i oraexectask:prvFixupFactory.obj
 0001:00061ce4       ??$_Uninit_move@PEAVScript@prv_fixup@@PEAV12@PEAV12@@std@@YAPEAPEAVScript@prv_fixup@@PEAPEAV12@00AEAU?$_Wrap_alloc@V?$allocator@PEAVScript@prv_fixup@@@std@@@0@0U_Scalar_ptr_iterator_tag@0@@Z 0000000140062ce4 f i oraexectask:prvFixupTaskData.obj
 0001:00061ce4       ??$_Uninit_move@PEAVFixupData@prv_fixup@@PEAV12@PEAV12@@std@@YAPEAPEAVFixupData@prv_fixup@@PEAPEAV12@00AEAU?$_Wrap_alloc@V?$allocator@PEAVFixupData@prv_fixup@@@std@@@0@0U_Scalar_ptr_iterator_tag@0@@Z 0000000140062ce4 f i oraexectask:prvFixupXmlParser.obj
 0001:00061ce4       ??$_Uninit_move@PEAVFixupTask@prv_fixup@@PEAV12@PEAV12@@std@@YAPEAPEAVFixupTask@prv_fixup@@PEAPEAV12@00AEAU?$_Wrap_alloc@V?$allocator@PEAVFixupTask@prv_fixup@@@std@@@0@0U_Scalar_ptr_iterator_tag@0@@Z 0000000140062ce4 f i oraexectask:prvFixupFactory.obj
 0001:00061ce4       ??$_Uninit_copy@QEAVFixupData@prv_fixup@@PEAV12@@std@@YAPEAPEAVFixupData@prv_fixup@@PEBQEAV12@0PEAPEAV12@AEAU?$_Wrap_alloc@V?$allocator@PEAVFixupData@prv_fixup@@@std@@@0@U_Scalar_ptr_iterator_tag@0@@Z 0000000140062ce4 f i oraexectask:prvFixupTask.obj
 0001:00061ce4       ??$_Uninit_move@PEAVNameValuePair@prv_fixup@@PEAV12@PEAV12@@std@@YAPEAPEAVNameValuePair@prv_fixup@@PEAPEAV12@00AEAU?$_Wrap_alloc@V?$allocator@PEAVNameValuePair@prv_fixup@@@std@@@0@0U_Scalar_ptr_iterator_tag@0@@Z 0000000140062ce4 f i oraexectask:prvFixupXmlNode.obj
 0001:00061ce4       ??$_Uninit_move@PEAVNLSError@prv_fixup@@PEAV12@PEAV12@@std@@YAPEAPEAVNLSError@prv_fixup@@PEAPEAV12@00AEAU?$_Wrap_alloc@V?$allocator@PEAVNLSError@prv_fixup@@@std@@@0@0U_Scalar_ptr_iterator_tag@0@@Z 0000000140062ce4 f i oraexectask:prvFixupResult.obj
 0001:00061ce4       ??$_Uninit_move@PEAVNativeError@prv_fixup@@PEAV12@PEAV12@@std@@YAPEAPEAVNativeError@prv_fixup@@PEAPEAV12@00AEAU?$_Wrap_alloc@V?$allocator@PEAVNativeError@prv_fixup@@@std@@@0@0U_Scalar_ptr_iterator_tag@0@@Z 0000000140062ce4 f i oraexectask:prvFixupResult.obj
 0001:00061ce4       ??$_Uninit_copy@QEBV?$basic_string@DU?$char_traits@D@std@@V?$allocator@D@2@@std@@PEBV12@@std@@YAPEAPEBV?$basic_string@DU?$char_traits@D@std@@V?$allocator@D@2@@0@PEBQEBV10@0PEAPEBV10@AEAU?$_Wrap_alloc@V?$allocator@PEBV?$basic_string@DU?$char_traits@D@std@@V?$allocator@D@2@@std@@@std@@@0@U_Scalar_ptr_iterator_tag@0@@Z 0000000140062ce4 f i oraexectask:sprvFixupUtility.obj
 0001:00061ce4       ??$_Uninit_move@PEBV?$basic_string@DU?$char_traits@D@std@@V?$allocator@D@2@@std@@PEBV12@PEBV12@@std@@YAPEAPEBV?$basic_string@DU?$char_traits@D@std@@V?$allocator@D@2@@0@PEAPEBV10@00AEAU?$_Wrap_alloc@V?$allocator@PEBV?$basic_string@DU?$char_traits@D@std@@V?$allocator@D@2@@std@@@std@@@0@0U_Scalar_ptr_iterator_tag@0@@Z 0000000140062ce4 f i oraexectask:sprvFixupUtility.obj
 0001:00061ce4       ??$_Uninit_move@PEAVXmlNode@prv_fixup@@PEAV12@PEAV12@@std@@YAPEAPEAVXmlNode@prv_fixup@@PEAPEAV12@00AEAU?$_Wrap_alloc@V?$allocator@PEAVXmlNode@prv_fixup@@@std@@@0@0U_Scalar_ptr_iterator_tag@0@@Z 0000000140062ce4 f i oraexectask:prvFixupXmlNode.obj
 0001:00061ce4       ??$_Uninit_copy@QEAVNativeError@prv_fixup@@PEAV12@@std@@YAPEAPEAVNativeError@prv_fixup@@PEBQEAV12@0PEAPEAV12@AEAU?$_Wrap_alloc@V?$allocator@PEAVNativeError@prv_fixup@@@std@@@0@U_Scalar_ptr_iterator_tag@0@@Z 0000000140062ce4 f i oraexectask:prvFixupResult.obj
 0001:00061d68       ??$_Unchecked@PEAPEAVNativeError@prv_fixup@@@std@@YAPEAPEAVNativeError@prv_fixup@@PEAPEAV12@@Z 0000000140062d68 f i oraexectask:prvFixupResult.obj
 0001:00061d68       ??$forward@AEAPEAVXmlNode@prv_fixup@@@std@@YAAEAPEAVXmlNode@prv_fixup@@AEAPEAV12@@Z 0000000140062d68 f i oraexectask:prvFixupXmlNode.obj
 0001:00061d68       ??$forward@AEAPEAD@std@@YAAEAPEADAEAPEAD@Z 0000000140062d68 f i oraexectask:prvFixupMain.obj
 0001:00061d68       ??$_Unchecked@PEAPEAVFixupTask@prv_fixup@@@std@@YAPEAPEAVFixupTask@prv_fixup@@PEAPEAV12@@Z 0000000140062d68 f i oraexectask:prvFixupFactory.obj
 0001:00061d68       ??0?$allocator@PEAVNLSError@prv_fixup@@@std@@QEAA@XZ 0000000140062d68 f i oraexectask:prvFixupUtility.obj
 0001:00061d68       ??0?$allocator@PEAVNativeError@prv_fixup@@@std@@QEAA@XZ 0000000140062d68 f i oraexectask:prvFixupResult.obj
 0001:00061d68       ??0?$allocator@PEAVNameValuePair@prv_fixup@@@std@@QEAA@XZ 0000000140062d68 f i oraexectask:prvFixupUtility.obj
 0001:00061d68       ??$forward@AEBQEAVScript@prv_fixup@@@std@@YAAEBQEAVScript@prv_fixup@@AEBQEAV12@@Z 0000000140062d68 f i oraexectask:prvFixupTaskData.obj
 0001:00061d68       ??$forward@AEAPEAVNLSError@prv_fixup@@@std@@YAAEAPEAVNLSError@prv_fixup@@AEAPEAV12@@Z 0000000140062d68 f i oraexectask:prvFixupResult.obj
 0001:00061d68       ??$forward@AEBQEAVFixupTask@prv_fixup@@@std@@YAAEBQEAVFixupTask@prv_fixup@@AEBQEAV12@@Z 0000000140062d68 f i oraexectask:prvFixupFactory.obj
 0001:00061d68       ??$_Unchecked@PEAPEBV?$basic_string@DU?$char_traits@D@std@@V?$allocator@D@2@@std@@@std@@YAPEAPEBV?$basic_string@DU?$char_traits@D@std@@V?$allocator@D@2@@0@PEAPEBV10@@Z 0000000140062d68 f i oraexectask:sprvFixupUtility.obj
 0001:00061d68       ??$forward@AEAV?$basic_string@DU?$char_traits@D@std@@V?$allocator@D@2@@std@@@std@@YAAEAV?$basic_string@DU?$char_traits@D@std@@V?$allocator@D@2@@0@AEAV10@@Z 0000000140062d68 f i oraexectask:prvFixupUtility.obj
 0001:00061d68       ??0?$allocator@V?$basic_string@DU?$char_traits@D@std@@V?$allocator@D@2@@std@@@std@@QEAA@XZ 0000000140062d68 f i oraexectask:prvFixupUtility.obj
 0001:00061d68       ??$_Unchecked@PEAV?$basic_string@DU?$char_traits@D@std@@V?$allocator@D@2@@std@@@std@@YAPEAV?$basic_string@DU?$char_traits@D@std@@V?$allocator@D@2@@0@PEAV10@@Z 0000000140062d68 f i oraexectask:prvFixupUtility.obj
 0001:00061d68       ??$forward@AEBQEAVXmlNode@prv_fixup@@@std@@YAAEBQEAVXmlNode@prv_fixup@@AEBQEAV12@@Z 0000000140062d68 f i oraexectask:prvFixupXmlNode.obj
 0001:00061d68       ??$_Unchecked@PEAPEAVScript@prv_fixup@@@std@@YAPEAPEAVScript@prv_fixup@@PEAPEAV12@@Z 0000000140062d68 f i oraexectask:prvFixupTaskData.obj
 0001:00061d68       ??0?$allocator@D@std@@QEAA@XZ 0000000140062d68 f i oraexectask:prvFixupMain.obj
 0001:00061d68       ??$forward@AEBQEAVFixupData@prv_fixup@@@std@@YAAEBQEAVFixupData@prv_fixup@@AEBQEAV12@@Z 0000000140062d68 f i oraexectask:prvFixupXmlParser.obj
 0001:00061d68       ??$forward@PEAVFixupData@prv_fixup@@@std@@YA$$QEAPEAVFixupData@prv_fixup@@AEAPEAV12@@Z 0000000140062d68 f i oraexectask:prvFixupXmlParser.obj
 0001:00061d68       ?what@XmlParserException@prv_fixup@@QEBAAEBV?$basic_string@DU?$char_traits@D@std@@V?$allocator@D@2@@std@@XZ 0000000140062d68 f i oraexectask:prvFixupMain.obj
 0001:00061d68       ??$forward@AEBQEAVNameValuePair@prv_fixup@@@std@@YAAEBQEAVNameValuePair@prv_fixup@@AEBQEAV12@@Z 0000000140062d68 f i oraexectask:prvFixupXmlNode.obj
 0001:00061d68       ??0?$allocator@PEAVFixupTask@prv_fixup@@@std@@QEAA@XZ 0000000140062d68 f i oraexectask:prvFixupHandler.obj
 0001:00061d68       ??$forward@V?$basic_string@DU?$char_traits@D@std@@V?$allocator@D@2@@std@@@std@@YA$$QEAV?$basic_string@DU?$char_traits@D@std@@V?$allocator@D@2@@0@AEAV10@@Z 0000000140062d68 f i oraexectask:prvFixupMain.obj
 0001:00061d68       ??$forward@AEBQEAVNativeError@prv_fixup@@@std@@YAAEBQEAVNativeError@prv_fixup@@AEBQEAV12@@Z 0000000140062d68 f i oraexectask:prvFixupResult.obj
 0001:00061d68       ??0?$allocator@PEBV?$basic_string@DU?$char_traits@D@std@@V?$allocator@D@2@@std@@@std@@QEAA@XZ 0000000140062d68 f i oraexectask:sprvFixupUtility.obj
 0001:00061d68       ??$forward@AEAPEBV?$basic_string@DU?$char_traits@D@std@@V?$allocator@D@2@@std@@@std@@YAAEAPEBV?$basic_string@DU?$char_traits@D@std@@V?$allocator@D@2@@0@AEAPEBV10@@Z 0000000140062d68 f i oraexectask:prvFixupXmlParser.obj
 0001:00061d68       ?what@FixupException@prv_fixup@@QEBAAEBV?$basic_string@DU?$char_traits@D@std@@V?$allocator@D@2@@std@@XZ 0000000140062d68 f i oraexectask:prvFixupMain.obj
 0001:00061d68       ??$forward@AEBQEAVNLSError@prv_fixup@@@std@@YAAEBQEAVNLSError@prv_fixup@@AEBQEAV12@@Z 0000000140062d68 f i oraexectask:prvFixupResult.obj
 0001:00061d68       ??$forward@AEAPEAVNameValuePair@prv_fixup@@@std@@YAAEAPEAVNameValuePair@prv_fixup@@AEAPEAV12@@Z 0000000140062d68 f i oraexectask:prvFixupXmlNode.obj
 0001:00061d68       ??$forward@V?$vector@V?$basic_string@DU?$char_traits@D@std@@V?$allocator@D@2@@std@@V?$allocator@V?$basic_string@DU?$char_traits@D@std@@V?$allocator@D@2@@std@@@2@@std@@@std@@YA$$QEAV?$vector@V?$basic_string@DU?$char_traits@D@std@@V?$allocator@D@2@@std@@V?$allocator@V?$basic_string@DU?$char_traits@D@std@@V?$allocator@D@2@@std@@@2@@0@AEAV10@@Z 0000000140062d68 f i oraexectask:prvFixupUtility.obj
 0001:00061d68       ??$_Unchecked@PEAPEAVNLSError@prv_fixup@@@std@@YAPEAPEAVNLSError@prv_fixup@@PEAPEAV12@@Z 0000000140062d68 f i oraexectask:prvFixupResult.obj
 0001:00061d68       ??$forward@AEAPEAVFixupTask@prv_fixup@@@std@@YAAEAPEAVFixupTask@prv_fixup@@AEAPEAV12@@Z 0000000140062d68 f i oraexectask:prvFixupFactory.obj
 0001:00061d68       ??$forward@AEAPEAVScript@prv_fixup@@@std@@YAAEAPEAVScript@prv_fixup@@AEAPEAV12@@Z 0000000140062d68 f i oraexectask:prvFixupTaskData.obj
 0001:00061d68       ??$forward@AEBV?$basic_string@DU?$char_traits@D@std@@V?$allocator@D@2@@std@@@std@@YAAEBV?$basic_string@DU?$char_traits@D@std@@V?$allocator@D@2@@0@AEBV10@@Z 0000000140062d68 f i oraexectask:prvFixupUtility.obj
 0001:00061d68       ??$_Unchecked@PEAPEAVNameValuePair@prv_fixup@@@std@@YAPEAPEAVNameValuePair@prv_fixup@@PEAPEAV12@@Z 0000000140062d68 f i oraexectask:prvFixupXmlNode.obj
 0001:00061d68       ??$forward@AEAPEAVFixupData@prv_fixup@@@std@@YAAEAPEAVFixupData@prv_fixup@@AEAPEAV12@@Z 0000000140062d68 f i oraexectask:prvFixupXmlParser.obj
 0001:00061d68       ??$_Unchecked@PEAPEAVXmlNode@prv_fixup@@@std@@YAPEAPEAVXmlNode@prv_fixup@@PEAPEAV12@@Z 0000000140062d68 f i oraexectask:prvFixupXmlNode.obj
 0001:00061d68       ??$_Unchecked@PEAPEAVFixupData@prv_fixup@@@std@@YAPEAPEAVFixupData@prv_fixup@@PEAPEAV12@@Z 0000000140062d68 f i oraexectask:prvFixupXmlParser.obj
 0001:00061d68       ??$forward@AEAPEAVNativeError@prv_fixup@@@std@@YAAEAPEAVNativeError@prv_fixup@@AEAPEAV12@@Z 0000000140062d68 f i oraexectask:prvFixupResult.obj
 0001:00061d68       ??0?$allocator@PEAVFixupData@prv_fixup@@@std@@QEAA@XZ 0000000140062d68 f i oraexectask:prvFixupHandler.obj
 0001:00061d68       ??0?$allocator@PEAVXmlNode@prv_fixup@@@std@@QEAA@XZ 0000000140062d68 f i oraexectask:prvFixupUtility.obj
 0001:00061d68       ??$forward@AEBQEBV?$basic_string@DU?$char_traits@D@std@@V?$allocator@D@2@@std@@@std@@YAAEBQEBV?$basic_string@DU?$char_traits@D@std@@V?$allocator@D@2@@0@AEBQEBV10@@Z 0000000140062d68 f i oraexectask:prvFixupXmlParser.obj
 0001:00061d68       ??0?$allocator@PEAVScript@prv_fixup@@@std@@QEAA@XZ 0000000140062d68 f i oraexectask:prvFixupTaskData.obj
 0001:00061d68       ??$forward@PEBV?$basic_string@DU?$char_traits@D@std@@V?$allocator@D@2@@std@@@std@@YA$$QEAPEBV?$basic_string@DU?$char_traits@D@std@@V?$allocator@D@2@@0@AEAPEBV10@@Z 0000000140062d68 f i oraexectask:sprvFixupUtility.obj
 0001:00061d84       ??$getline@DU?$char_traits@D@std@@V?$allocator@D@2@@std@@YAAEAV?$basic_istream@DU?$char_traits@D@std@@@0@$$QEAV10@AEAV?$basic_string@DU?$char_traits@D@std@@V?$allocator@D@2@@0@D@Z 0000000140062d84 f i oraexectask:sprvFixupUtility.obj
 0001:0006228c       ??_G?$basic_string@DU?$char_traits@D@std@@V?$allocator@D@2@@std@@QEAAPEAXI@Z 000000014006328c f i oraexectask:sprvFixupUtility.obj
 0001:0006228c       ??_E?$basic_string@DU?$char_traits@D@std@@V?$allocator@D@2@@std@@QEAAPEAXI@Z 000000014006328c f i oraexectask:sprvFixupUtility.obj
 0001:000622d0       ??_D?$basic_ifstream@DU?$char_traits@D@std@@@std@@QEAAXXZ 00000001400632d0 f i oraexectask:sprvFixupUtility.obj
 0001:00062310       ??_E?$basic_ifstream@DU?$char_traits@D@std@@@std@@$4PPPPPPPM@A@EAAPEAXI@Z 0000000140063310 f i oraexectask:sprvFixupUtility.obj
 0001:000623fc       ?readScratchPad@sFixupUtil@prv_fixup@@CAXPEAVResult@2@@Z 00000001400633fc f   oraexectask:sprvFixupUtility.obj
 0001:00062996       ?readErrorPad@sFixupUtil@prv_fixup@@CAXPEBV?$basic_string@DU?$char_traits@D@std@@V?$allocator@D@2@@std@@AEBHPEAVResult@2@@Z 0000000140063996 f   oraexectask:sprvFixupUtility.obj
 0001:00062f68       ?runCommandInternal@sFixupUtil@prv_fixup@@CAHPEBV?$basic_string@DU?$char_traits@D@std@@V?$allocator@D@2@@std@@_N@Z 0000000140063f68 f   oraexectask:sprvFixupUtility.obj
 0001:000636c6       ?runCommand@sFixupUtil@prv_fixup@@SAHPEBV?$basic_string@DU?$char_traits@D@std@@V?$allocator@D@2@@std@@V?$vector@PEBV?$basic_string@DU?$char_traits@D@std@@V?$allocator@D@2@@std@@V?$allocator@PEBV?$basic_string@DU?$char_traits@D@std@@V?$allocator@D@2@@std@@@2@@4@PEAVResult@2@_N@Z 00000001400646c6 f   oraexectask:sprvFixupUtility.obj
 0001:000648ca       ?runCommand@sFixupUtil@prv_fixup@@SAHPEBV?$basic_string@DU?$char_traits@D@std@@V?$allocator@D@2@@std@@PEAVResult@2@_N@Z 00000001400658ca f   oraexectask:sprvFixupUtility.obj
 0001:000649da       ?argListToString@sFixupUtil@prv_fixup@@SA?AV?$basic_string@DU?$char_traits@D@std@@V?$allocator@D@2@@std@@V?$vector@PEBV?$basic_string@DU?$char_traits@D@std@@V?$allocator@D@2@@std@@V?$allocator@PEBV?$basic_string@DU?$char_traits@D@std@@V?$allocator@D@2@@std@@@2@@4@@Z 00000001400659da f   oraexectask:sprvFixupUtility.obj
 0001:00064bd2       ?runExe@sFixupUtil@prv_fixup@@SAHPEBV?$basic_string@DU?$char_traits@D@std@@V?$allocator@D@2@@std@@V?$vector@PEBV?$basic_string@DU?$char_traits@D@std@@V?$allocator@D@2@@std@@V?$allocator@PEBV?$basic_string@DU?$char_traits@D@std@@V?$allocator@D@2@@std@@@2@@4@PEAVResult@2@_N@Z 0000000140065bd2 f   oraexectask:sprvFixupUtility.obj
 0001:00064e0c       ?runExe@sFixupUtil@prv_fixup@@SAHPEBV?$basic_string@DU?$char_traits@D@std@@V?$allocator@D@2@@std@@V?$vector@PEBV?$basic_string@DU?$char_traits@D@std@@V?$allocator@D@2@@std@@V?$allocator@PEBV?$basic_string@DU?$char_traits@D@std@@V?$allocator@D@2@@std@@@2@@4@1PEAVResult@2@_N@Z 0000000140065e0c f   oraexectask:sprvFixupUtility.obj
 0001:00065c6c       ?addExecutableTracesToTraceFile@sFixupUtil@prv_fixup@@SAXPEBV?$basic_string@DU?$char_traits@D@std@@V?$allocator@D@2@@std@@@Z 0000000140066c6c f   oraexectask:sprvFixupUtility.obj
 0001:00066296       ?deleteFileIfExists@sFixupUtil@prv_fixup@@SAXPEBV?$basic_string@DU?$char_traits@D@std@@V?$allocator@D@2@@std@@@Z 0000000140067296 f   oraexectask:sprvFixupUtility.obj
 0001:0006640a       ?getCurrentDirPath@sFixupUtil@prv_fixup@@SAPEBV?$basic_string@DU?$char_traits@D@std@@V?$allocator@D@2@@std@@XZ 000000014006740a f   oraexectask:sprvFixupUtility.obj
 0001:00066736       ?createDirectory@sFixupUtil@prv_fixup@@SA_NPEBV?$basic_string@DU?$char_traits@D@std@@V?$allocator@D@2@@std@@AEBV34@PEAVResult@2@@Z 0000000140067736 f   oraexectask:sprvFixupUtility.obj
 0001:00066b3e       ?renameFile@sFixupUtil@prv_fixup@@SA_NPEBV?$basic_string@DU?$char_traits@D@std@@V?$allocator@D@2@@std@@0PEAVResult@2@@Z 0000000140067b3e f   oraexectask:sprvFixupUtility.obj
 0001:00066f68       ?checkFileExistence@sFixupUtil@prv_fixup@@SA_NPEBV?$basic_string@DU?$char_traits@D@std@@V?$allocator@D@2@@std@@@Z 0000000140067f68 f   oraexectask:sprvFixupUtility.obj
 0001:00067494       ?checkDirectoryExistence@sFixupUtil@prv_fixup@@SA_NPEBV?$basic_string@DU?$char_traits@D@std@@V?$allocator@D@2@@std@@@Z 0000000140068494 f   oraexectask:sprvFixupUtility.obj
 0001:0006782e       ?changeFilePermissions@sFixupUtil@prv_fixup@@SA_NPEBV?$basic_string@DU?$char_traits@D@std@@V?$allocator@D@2@@std@@AEBV34@PEAVResult@2@@Z 000000014006882e f   oraexectask:sprvFixupUtility.obj
 0001:0006785e       ?changeFileOwnerShip@sFixupUtil@prv_fixup@@SA_NPEBV?$basic_string@DU?$char_traits@D@std@@V?$allocator@D@2@@std@@AEBV34@1PEAVResult@2@@Z 000000014006885e f   oraexectask:sprvFixupUtility.obj
 0001:00067896       ?disposeScratchPad@sFixupUtil@prv_fixup@@SAXXZ 0000000140068896 f   oraexectask:sprvFixupUtility.obj
 0001:00067f8c       ?initScratchPad@sFixupUtil@prv_fixup@@SAXXZ 0000000140068f8c f   oraexectask:sprvFixupUtility.obj
 0001:00068f82       ?integerToString@prv_fixup@@YA?BV?$basic_string@DU?$char_traits@D@std@@V?$allocator@D@2@@std@@AEBH@Z 0000000140069f82 f   oraexectask:sprvFixupUtility.obj
 0001:00069110       ?errorNumberToString@prv_fixup@@YAPEBDAEBH@Z 000000014006a110 f   oraexectask:sprvFixupUtility.obj
 0001:00069142       ?boolToString@prv_fixup@@YA?BV?$basic_string@DU?$char_traits@D@std@@V?$allocator@D@2@@std@@_N@Z 000000014006a142 f   oraexectask:sprvFixupUtility.obj
 0001:0006919c       ?getFilePathSeparator@prv_fixup@@YA?BV?$basic_string@DU?$char_traits@D@std@@V?$allocator@D@2@@std@@XZ 000000014006a19c f   oraexectask:sprvFixupUtility.obj
 0001:000691d0       ?parseStringToLong@prv_fixup@@YAJAEBV?$basic_string@DU?$char_traits@D@std@@V?$allocator@D@2@@std@@AEBH@Z 000000014006a1d0 f   oraexectask:sprvFixupUtility.obj
 0001:0006972e       ?parseStringToUnsignedLong@prv_fixup@@YAKAEBV?$basic_string@DU?$char_traits@D@std@@V?$allocator@D@2@@std@@AEBH@Z 000000014006a72e f   oraexectask:sprvFixupUtility.obj
 0001:00069c8c       ?parseStringToDouble@prv_fixup@@YANAEBV?$basic_string@DU?$char_traits@D@std@@V?$allocator@D@2@@std@@@Z 000000014006ac8c f   oraexectask:sprvFixupUtility.obj
 0001:0006a668       ??$destroy@PEAD@?$allocator@D@std@@QEAAXPEAPEAD@Z 000000014006b668 f i oraexectask:prvFixupMain.obj
 0001:0006a668       ??3@YAXPEAX0@Z             000000014006b668 f i oraexectask:prvFixupMain.obj
 0001:0006a668       ?_Change_alloc@?$_Vector_alloc@$0A@U?$_Vec_base_types@V?$basic_string@DU?$char_traits@D@std@@V?$allocator@D@2@@std@@V?$allocator@V?$basic_string@DU?$char_traits@D@std@@V?$allocator@D@2@@std@@@2@@std@@@std@@QEAAXAEBU?$_Wrap_alloc@V?$allocator@V?$basic_string@DU?$char_traits@D@std@@V?$allocator@D@2@@std@@@std@@@2@@Z 000000014006b668 f i oraexectask:prvFixupXmlParser.obj
 0001:0006a668       ?_Compat@?$_String_const_iterator@V?$_String_val@U?$_Simple_types@D@std@@@std@@@std@@QEBAXAEBV12@@Z 000000014006b668 f i oraexectask:prvFixupUtility.obj
 0001:0006a668       ?_Change_alloc@?$_String_alloc@$0A@U?$_String_base_types@DV?$allocator@D@std@@@std@@@std@@QEAAXAEBU?$_Wrap_alloc@V?$allocator@D@std@@@2@@Z 000000014006b668 f i oraexectask:prvFixupUtility.obj
 0001:0006a668       ?_Adopt@_Iterator_base0@std@@QEAAXPEBX@Z 000000014006b668 f i oraexectask:prvFixupTrace.obj
 0001:0006a668       ?_Compat@?$_Vector_const_iterator@V?$_Vector_val@U?$_Simple_types@V?$basic_string@DU?$char_traits@D@std@@V?$allocator@D@2@@std@@@std@@@std@@@std@@QEBAXAEBV12@@Z 000000014006b668 f i oraexectask:prvFixupXmlParser.obj
 0001:0006a688       ??4?$basic_string@DU?$char_traits@D@std@@V?$allocator@D@2@@std@@QEAAAEAV01@$$QEAV01@@Z 000000014006b688 f i oraexectask:prvFixupUtility.obj
 0001:0006a7f0       ??4?$basic_string@DU?$char_traits@D@std@@V?$allocator@D@2@@std@@QEAAAEAV01@PEBD@Z 000000014006b7f0 f i oraexectask:prvFixupUtility.obj
 0001:0006a828       ?insert@?$basic_string@DU?$char_traits@D@std@@V?$allocator@D@2@@std@@QEAAAEAV12@_KAEBV12@@Z 000000014006b828 f i oraexectask:prvFixupUtility.obj
 0001:0006a89c       ?replace@?$basic_string@DU?$char_traits@D@std@@V?$allocator@D@2@@std@@QEAAAEAV12@_K0AEBV12@@Z 000000014006b89c f i oraexectask:prvFixupUtility.obj
 0001:0006a920       ?replace@?$basic_string@DU?$char_traits@D@std@@V?$allocator@D@2@@std@@QEAAAEAV12@_K0AEBV12@00@Z 000000014006b920 f i oraexectask:prvFixupUtility.obj
 0001:0006b084       ?replace@?$basic_string@DU?$char_traits@D@std@@V?$allocator@D@2@@std@@QEAAAEAV12@_K0PEBD0@Z 000000014006c084 f i oraexectask:prvFixupUtility.obj
 0001:0006b43c       ?replace@?$basic_string@DU?$char_traits@D@std@@V?$allocator@D@2@@std@@QEAAAEAV12@V?$_String_const_iterator@V?$_String_val@U?$_Simple_types@D@std@@@std@@@2@0V?$_String_iterator@V?$_String_val@U?$_Simple_types@D@std@@@std@@@2@1@Z 000000014006c43c f i oraexectask:prvFixupUtility.obj
 0001:0006b618       ?end@?$basic_string@DU?$char_traits@D@std@@V?$allocator@D@2@@std@@QEAA?AV?$_String_iterator@V?$_String_val@U?$_Simple_types@D@std@@@std@@@2@XZ 000000014006c618 f i oraexectask:prvFixupUtility.obj
 0001:0006b678       ?at@?$basic_string@DU?$char_traits@D@std@@V?$allocator@D@2@@std@@QEAAAEAD_K@Z 000000014006c678 f i oraexectask:prvFixupUtility.obj
 0001:0006b6d0       ?capacity@?$basic_string@DU?$char_traits@D@std@@V?$allocator@D@2@@std@@QEBA_KXZ 000000014006c6d0 f i oraexectask:prvFixupUtility.obj
 0001:0006b6f8       ?find@?$basic_string@DU?$char_traits@D@std@@V?$allocator@D@2@@std@@QEBA_KAEBV12@_K@Z 000000014006c6f8 f i oraexectask:prvFixupUtility.obj
 0001:0006b780       ?find_first_of@?$basic_string@DU?$char_traits@D@std@@V?$allocator@D@2@@std@@QEBA_KPEBD_K1@Z 000000014006c780 f i oraexectask:prvFixupUtility.obj
 0001:0006b898       ?find_first_of@?$basic_string@DU?$char_traits@D@std@@V?$allocator@D@2@@std@@QEBA_KPEBD_K@Z 000000014006c898 f i oraexectask:prvFixupUtility.obj
 0001:0006b908       ?find_first_not_of@?$basic_string@DU?$char_traits@D@std@@V?$allocator@D@2@@std@@QEBA_KPEBD_K1@Z 000000014006c908 f i oraexectask:prvFixupUtility.obj
 0001:0006ba10       ?find_first_not_of@?$basic_string@DU?$char_traits@D@std@@V?$allocator@D@2@@std@@QEBA_KPEBD_K@Z 000000014006ca10 f i oraexectask:prvFixupUtility.obj
 0001:0006ba80       ?find_last_not_of@?$basic_string@DU?$char_traits@D@std@@V?$allocator@D@2@@std@@QEBA_KPEBD_K1@Z 000000014006ca80 f i oraexectask:prvFixupUtility.obj
 0001:0006bbac       ?find_last_not_of@?$basic_string@DU?$char_traits@D@std@@V?$allocator@D@2@@std@@QEBA_KPEBD_K@Z 000000014006cbac f i oraexectask:prvFixupUtility.obj
 0001:0006bc1c       ?compare@?$basic_string@DU?$char_traits@D@std@@V?$allocator@D@2@@std@@QEBAHAEBV12@@Z 000000014006cc1c f i oraexectask:prvFixupUtility.obj
 0001:0006bcac       ?_Pdif@?$basic_string@DU?$char_traits@D@std@@V?$allocator@D@2@@std@@SA_KV?$_String_const_iterator@V?$_String_val@U?$_Simple_types@D@std@@@std@@@2@0@Z 000000014006ccac f i oraexectask:prvFixupUtility.obj
 0001:0006bcf8       ??$assign@V?$_String_iterator@V?$_String_val@U?$_Simple_types@D@std@@@std@@@std@@@?$basic_string@DU?$char_traits@D@std@@V?$allocator@D@2@@std@@QEAAAEAV01@V?$_String_iterator@V?$_String_val@U?$_Simple_types@D@std@@@std@@@1@0@Z 000000014006ccf8 f i oraexectask:prvFixupUtility.obj
 0001:0006bd98       ?_Xran@?$vector@PEAVNativeError@prv_fixup@@V?$allocator@PEAVNativeError@prv_fixup@@@std@@@std@@IEBAXXZ 000000014006cd98 f i oraexectask:prvFixupResult.obj
 0001:0006bd98       ?_Xran@?$vector@PEBV?$basic_string@DU?$char_traits@D@std@@V?$allocator@D@2@@std@@V?$allocator@PEBV?$basic_string@DU?$char_traits@D@std@@V?$allocator@D@2@@std@@@2@@std@@IEBAXXZ 000000014006cd98 f i oraexectask:sprvFixupUtility.obj
 0001:0006bd98       ?_Xran@?$vector@PEAVFixupData@prv_fixup@@V?$allocator@PEAVFixupData@prv_fixup@@@std@@@std@@IEBAXXZ 000000014006cd98 f i oraexectask:prvFixupXmlParser.obj
 0001:0006bd98       ?_Xran@?$vector@PEAVNameValuePair@prv_fixup@@V?$allocator@PEAVNameValuePair@prv_fixup@@@std@@@std@@IEBAXXZ 000000014006cd98 f i oraexectask:prvFixupUtility.obj
 0001:0006bd98       ?_Xran@?$vector@PEAVXmlNode@prv_fixup@@V?$allocator@PEAVXmlNode@prv_fixup@@@std@@@std@@IEBAXXZ 000000014006cd98 f i oraexectask:prvFixupUtility.obj
 0001:0006bd98       ?_Xran@?$vector@V?$basic_string@DU?$char_traits@D@std@@V?$allocator@D@2@@std@@V?$allocator@V?$basic_string@DU?$char_traits@D@std@@V?$allocator@D@2@@std@@@2@@std@@IEBAXXZ 000000014006cd98 f i oraexectask:prvFixupUtility.obj
 0001:0006bd98       ?_Xran@?$vector@PEAVNLSError@prv_fixup@@V?$allocator@PEAVNLSError@prv_fixup@@@std@@@std@@IEBAXXZ 000000014006cd98 f i oraexectask:prvFixupUtility.obj
 0001:0006bd98       ?_Xran@?$vector@PEAVFixupTask@prv_fixup@@V?$allocator@PEAVFixupTask@prv_fixup@@@std@@@std@@IEBAXXZ 000000014006cd98 f i oraexectask:prvFixupHandler.obj
 0001:0006bdc0       ?deallocate@?$allocator@PEAVNativeError@prv_fixup@@@std@@QEAAXPEAPEAVNativeError@prv_fixup@@_K@Z 000000014006cdc0 f i oraexectask:prvFixupResult.obj
 0001:0006bdc0       ?deallocate@?$allocator@V?$basic_string@DU?$char_traits@D@std@@V?$allocator@D@2@@std@@@std@@QEAAXPEAV?$basic_string@DU?$char_traits@D@std@@V?$allocator@D@2@@2@_K@Z 000000014006cdc0 f i oraexectask:prvFixupUtility.obj
 0001:0006bdc0       ?deallocate@?$allocator@PEAVNameValuePair@prv_fixup@@@std@@QEAAXPEAPEAVNameValuePair@prv_fixup@@_K@Z 000000014006cdc0 f i oraexectask:prvFixupUtility.obj
 0001:0006bdc0       ?deallocate@?$allocator@PEAVFixupTask@prv_fixup@@@std@@QEAAXPEAPEAVFixupTask@prv_fixup@@_K@Z 000000014006cdc0 f i oraexectask:prvFixupHandler.obj
 0001:0006bdc0       ?deallocate@?$allocator@PEAVFixupData@prv_fixup@@@std@@QEAAXPEAPEAVFixupData@prv_fixup@@_K@Z 000000014006cdc0 f i oraexectask:prvFixupHandler.obj
 0001:0006bdc0       ?deallocate@?$allocator@PEAVNLSError@prv_fixup@@@std@@QEAAXPEAPEAVNLSError@prv_fixup@@_K@Z 000000014006cdc0 f i oraexectask:prvFixupUtility.obj
 0001:0006bdc0       ?deallocate@?$allocator@PEBV?$basic_string@DU?$char_traits@D@std@@V?$allocator@D@2@@std@@@std@@QEAAXPEAPEBV?$basic_string@DU?$char_traits@D@std@@V?$allocator@D@2@@2@_K@Z 000000014006cdc0 f i oraexectask:sprvFixupUtility.obj
 0001:0006bdc0       ?deallocate@?$allocator@PEAVScript@prv_fixup@@@std@@QEAAXPEAPEAVScript@prv_fixup@@_K@Z 000000014006cdc0 f i oraexectask:prvFixupTaskData.obj
 0001:0006bdc0       ?deallocate@?$allocator@PEAVXmlNode@prv_fixup@@@std@@QEAAXPEAPEAVXmlNode@prv_fixup@@_K@Z 000000014006cdc0 f i oraexectask:prvFixupUtility.obj
 0001:0006bdc0       ?deallocate@?$allocator@D@std@@QEAAXPEAD_K@Z 000000014006cdc0 f i oraexectask:prvFixupMain.obj
 0001:0006bdf4       ?allocate@?$allocator@V?$basic_string@DU?$char_traits@D@std@@V?$allocator@D@2@@std@@@std@@QEAAPEAV?$basic_string@DU?$char_traits@D@std@@V?$allocator@D@2@@2@_K@Z 000000014006cdf4 f i oraexectask:prvFixupUtility.obj
 0001:0006be30       ?construct@?$allocator@V?$basic_string@DU?$char_traits@D@std@@V?$allocator@D@2@@std@@@std@@QEAAXPEAV?$basic_string@DU?$char_traits@D@std@@V?$allocator@D@2@@2@AEBV32@@Z 000000014006ce30 f i oraexectask:prvFixupUtility.obj
 0001:0006bf10       ?max_size@?$allocator@V?$basic_string@DU?$char_traits@D@std@@V?$allocator@D@2@@std@@@std@@QEBA_KXZ 000000014006cf10 f i oraexectask:prvFixupUtility.obj
 0001:0006bf34       ??$destroy@V?$basic_string@DU?$char_traits@D@std@@V?$allocator@D@2@@std@@@?$allocator@V?$basic_string@DU?$char_traits@D@std@@V?$allocator@D@2@@std@@@std@@QEAAXPEAV?$basic_string@DU?$char_traits@D@std@@V?$allocator@D@2@@1@@Z 000000014006cf34 f i oraexectask:prvFixupUtility.obj
 0001:0006bf60       ??$construct@V?$basic_string@DU?$char_traits@D@std@@V?$allocator@D@2@@std@@V12@@?$allocator@V?$basic_string@DU?$char_traits@D@std@@V?$allocator@D@2@@std@@@std@@QEAAXPEAV?$basic_string@DU?$char_traits@D@std@@V?$allocator@D@2@@1@$$QEAV21@@Z 000000014006cf60 f i oraexectask:prvFixupUtility.obj
 0001:0006c05c       ??$construct@V?$basic_string@DU?$char_traits@D@std@@V?$allocator@D@2@@std@@AEAV12@@?$allocator@V?$basic_string@DU?$char_traits@D@std@@V?$allocator@D@2@@std@@@std@@QEAAXPEAV?$basic_string@DU?$char_traits@D@std@@V?$allocator@D@2@@1@AEAV21@@Z 000000014006d05c f i oraexectask:prvFixupUtility.obj
 0001:0006c164       ?max_size@?$allocator_traits@V?$allocator@V?$basic_string@DU?$char_traits@D@std@@V?$allocator@D@2@@std@@@std@@@std@@SA_KAEBV?$allocator@V?$basic_string@DU?$char_traits@D@std@@V?$allocator@D@2@@std@@@2@@Z 000000014006d164 f i oraexectask:prvFixupUtility.obj
 0001:0006c190       ??$construct@V?$basic_string@DU?$char_traits@D@std@@V?$allocator@D@2@@std@@AEBV12@@?$allocator_traits@V?$allocator@V?$basic_string@DU?$char_traits@D@std@@V?$allocator@D@2@@std@@@std@@@std@@SAXAEAV?$allocator@V?$basic_string@DU?$char_traits@D@std@@V?$allocator@D@2@@std@@@1@PEAV?$basic_string@DU?$char_traits@D@std@@V?$allocator@D@2@@1@AEBV31@@Z 000000014006d190 f i oraexectask:prvFixupUtility.obj
 0001:0006c1e8       ??$destroy@V?$basic_string@DU?$char_traits@D@std@@V?$allocator@D@2@@std@@@?$allocator_traits@V?$allocator@V?$basic_string@DU?$char_traits@D@std@@V?$allocator@D@2@@std@@@std@@@std@@SAXAEAV?$allocator@V?$basic_string@DU?$char_traits@D@std@@V?$allocator@D@2@@std@@@1@PEAV?$basic_string@DU?$char_traits@D@std@@V?$allocator@D@2@@1@@Z 000000014006d1e8 f i oraexectask:prvFixupUtility.obj
 0001:0006c218       ??$construct@V?$basic_string@DU?$char_traits@D@std@@V?$allocator@D@2@@std@@V12@@?$allocator_traits@V?$allocator@V?$basic_string@DU?$char_traits@D@std@@V?$allocator@D@2@@std@@@std@@@std@@SAXAEAV?$allocator@V?$basic_string@DU?$char_traits@D@std@@V?$allocator@D@2@@std@@@1@PEAV?$basic_string@DU?$char_traits@D@std@@V?$allocator@D@2@@1@$$QEAV31@@Z 000000014006d218 f i oraexectask:prvFixupUtility.obj
 0001:0006c270       ??$construct@V?$basic_string@DU?$char_traits@D@std@@V?$allocator@D@2@@std@@AEAV12@@?$allocator_traits@V?$allocator@V?$basic_string@DU?$char_traits@D@std@@V?$allocator@D@2@@std@@@std@@@std@@SAXAEAV?$allocator@V?$basic_string@DU?$char_traits@D@std@@V?$allocator@D@2@@std@@@1@PEAV?$basic_string@DU?$char_traits@D@std@@V?$allocator@D@2@@1@AEAV31@@Z 000000014006d270 f i oraexectask:prvFixupUtility.obj
 0001:0006c2c8       ?allocate@?$_Wrap_alloc@V?$allocator@V?$basic_string@DU?$char_traits@D@std@@V?$allocator@D@2@@std@@@std@@@std@@QEAAPEAV?$basic_string@DU?$char_traits@D@std@@V?$allocator@D@2@@2@_K@Z 000000014006d2c8 f i oraexectask:prvFixupUtility.obj
 0001:0006c300       ?deallocate@?$_Wrap_alloc@V?$allocator@PEAVNativeError@prv_fixup@@@std@@@std@@QEAAXPEAPEAVNativeError@prv_fixup@@_K@Z 000000014006d300 f i oraexectask:prvFixupResult.obj
 0001:0006c300       ?deallocate@?$_Wrap_alloc@V?$allocator@PEAVXmlNode@prv_fixup@@@std@@@std@@QEAAXPEAPEAVXmlNode@prv_fixup@@_K@Z 000000014006d300 f i oraexectask:prvFixupUtility.obj
 0001:0006c300       ?deallocate@?$_Wrap_alloc@V?$allocator@PEAVNameValuePair@prv_fixup@@@std@@@std@@QEAAXPEAPEAVNameValuePair@prv_fixup@@_K@Z 000000014006d300 f i oraexectask:prvFixupUtility.obj
 0001:0006c300       ?deallocate@?$_Wrap_alloc@V?$allocator@PEBV?$basic_string@DU?$char_traits@D@std@@V?$allocator@D@2@@std@@@std@@@std@@QEAAXPEAPEBV?$basic_string@DU?$char_traits@D@std@@V?$allocator@D@2@@2@_K@Z 000000014006d300 f i oraexectask:sprvFixupUtility.obj
 0001:0006c300       ?deallocate@?$_Wrap_alloc@V?$allocator@PEAVScript@prv_fixup@@@std@@@std@@QEAAXPEAPEAVScript@prv_fixup@@_K@Z 000000014006d300 f i oraexectask:prvFixupTaskData.obj
 0001:0006c300       ?deallocate@?$_Wrap_alloc@V?$allocator@PEAVFixupData@prv_fixup@@@std@@@std@@QEAAXPEAPEAVFixupData@prv_fixup@@_K@Z 000000014006d300 f i oraexectask:prvFixupHandler.obj
 0001:0006c300       ?deallocate@?$_Wrap_alloc@V?$allocator@PEAVNLSError@prv_fixup@@@std@@@std@@QEAAXPEAPEAVNLSError@prv_fixup@@_K@Z 000000014006d300 f i oraexectask:prvFixupUtility.obj
 0001:0006c300       ?deallocate@?$_Wrap_alloc@V?$allocator@V?$basic_string@DU?$char_traits@D@std@@V?$allocator@D@2@@std@@@std@@@std@@QEAAXPEAV?$basic_string@DU?$char_traits@D@std@@V?$allocator@D@2@@2@_K@Z 000000014006d300 f i oraexectask:prvFixupUtility.obj
 0001:0006c300       ?deallocate@?$_Wrap_alloc@V?$allocator@D@std@@@std@@QEAAXPEAD_K@Z 000000014006d300 f i oraexectask:prvFixupMain.obj
 0001:0006c300       ?deallocate@?$_Wrap_alloc@V?$allocator@PEAVFixupTask@prv_fixup@@@std@@@std@@QEAAXPEAPEAVFixupTask@prv_fixup@@_K@Z 000000014006d300 f i oraexectask:prvFixupHandler.obj
 0001:0006c348       ?max_size@?$_Wrap_alloc@V?$allocator@V?$basic_string@DU?$char_traits@D@std@@V?$allocator@D@2@@std@@@std@@@std@@QEBA_KXZ 000000014006d348 f i oraexectask:prvFixupUtility.obj
 0001:0006c37c       ??$construct@V?$basic_string@DU?$char_traits@D@std@@V?$allocator@D@2@@std@@AEBV12@@?$_Wrap_alloc@V?$allocator@V?$basic_string@DU?$char_traits@D@std@@V?$allocator@D@2@@std@@@std@@@std@@QEAAXPEAV?$basic_string@DU?$char_traits@D@std@@V?$allocator@D@2@@1@AEBV21@@Z 000000014006d37c f i oraexectask:prvFixupUtility.obj
 0001:0006c3d4       ??$destroy@V?$basic_string@DU?$char_traits@D@std@@V?$allocator@D@2@@std@@@?$_Wrap_alloc@V?$allocator@V?$basic_string@DU?$char_traits@D@std@@V?$allocator@D@2@@std@@@std@@@std@@QEAAXPEAV?$basic_string@DU?$char_traits@D@std@@V?$allocator@D@2@@1@@Z 000000014006d3d4 f i oraexectask:prvFixupUtility.obj
 0001:0006c404       ??$construct@V?$basic_string@DU?$char_traits@D@std@@V?$allocator@D@2@@std@@V12@@?$_Wrap_alloc@V?$allocator@V?$basic_string@DU?$char_traits@D@std@@V?$allocator@D@2@@std@@@std@@@std@@QEAAXPEAV?$basic_string@DU?$char_traits@D@std@@V?$allocator@D@2@@1@$$QEAV21@@Z 000000014006d404 f i oraexectask:prvFixupUtility.obj
 0001:0006c45c       ??$construct@V?$basic_string@DU?$char_traits@D@std@@V?$allocator@D@2@@std@@AEAV12@@?$_Wrap_alloc@V?$allocator@V?$basic_string@DU?$char_traits@D@std@@V?$allocator@D@2@@std@@@std@@@std@@QEAAXPEAV?$basic_string@DU?$char_traits@D@std@@V?$allocator@D@2@@1@AEAV21@@Z 000000014006d45c f i oraexectask:prvFixupUtility.obj
 0001:0006c4b4       ??0?$vector@V?$basic_string@DU?$char_traits@D@std@@V?$allocator@D@2@@std@@V?$allocator@V?$basic_string@DU?$char_traits@D@std@@V?$allocator@D@2@@std@@@2@@std@@QEAA@AEBV01@@Z 000000014006d4b4 f i oraexectask:prvFixupUtility.obj
 0001:0006c644       ??0?$vector@V?$basic_string@DU?$char_traits@D@std@@V?$allocator@D@2@@std@@V?$allocator@V?$basic_string@DU?$char_traits@D@std@@V?$allocator@D@2@@std@@@2@@std@@QEAA@$$QEAV01@@Z 000000014006d644 f i oraexectask:prvFixupUtility.obj
 0001:0006c6c0       ?_Assign_rv@?$vector@V?$basic_string@DU?$char_traits@D@std@@V?$allocator@D@2@@std@@V?$allocator@V?$basic_string@DU?$char_traits@D@std@@V?$allocator@D@2@@std@@@2@@std@@QEAAX$$QEAV12@U?$integral_constant@_N$00@2@@Z 000000014006d6c0 f i oraexectask:prvFixupUtility.obj
 0001:0006c754       ??1?$vector@V?$basic_string@DU?$char_traits@D@std@@V?$allocator@D@2@@std@@V?$allocator@V?$basic_string@DU?$char_traits@D@std@@V?$allocator@D@2@@std@@@2@@std@@QEAA@XZ 000000014006d754 f i oraexectask:prvFixupUtility.obj
 0001:0006c778       ?capacity@?$vector@V?$basic_string@DU?$char_traits@D@std@@V?$allocator@D@2@@std@@V?$allocator@V?$basic_string@DU?$char_traits@D@std@@V?$allocator@D@2@@std@@@2@@std@@QEBA_KXZ 000000014006d778 f i oraexectask:prvFixupUtility.obj
 0001:0006c7b0       ?_Unused_capacity@?$vector@V?$basic_string@DU?$char_traits@D@std@@V?$allocator@D@2@@std@@V?$allocator@V?$basic_string@DU?$char_traits@D@std@@V?$allocator@D@2@@std@@@2@@std@@QEBA_KXZ 000000014006d7b0 f i oraexectask:prvFixupUtility.obj
 0001:0006c7e8       ?size@?$vector@V?$basic_string@DU?$char_traits@D@std@@V?$allocator@D@2@@std@@V?$allocator@V?$basic_string@DU?$char_traits@D@std@@V?$allocator@D@2@@std@@@2@@std@@QEBA_KXZ 000000014006d7e8 f i oraexectask:prvFixupUtility.obj
 0001:0006c820       ?max_size@?$vector@V?$basic_string@DU?$char_traits@D@std@@V?$allocator@D@2@@std@@V?$allocator@V?$basic_string@DU?$char_traits@D@std@@V?$allocator@D@2@@std@@@2@@std@@QEBA_KXZ 000000014006d820 f i oraexectask:prvFixupUtility.obj
 0001:0006c868       ?at@?$vector@V?$basic_string@DU?$char_traits@D@std@@V?$allocator@D@2@@std@@V?$allocator@V?$basic_string@DU?$char_traits@D@std@@V?$allocator@D@2@@std@@@2@@std@@QEAAAEAV?$basic_string@DU?$char_traits@D@std@@V?$allocator@D@2@@2@_K@Z 000000014006d868 f i oraexectask:prvFixupUtility.obj
 0001:0006c8c4       ?push_back@?$vector@V?$basic_string@DU?$char_traits@D@std@@V?$allocator@D@2@@std@@V?$allocator@V?$basic_string@DU?$char_traits@D@std@@V?$allocator@D@2@@std@@@2@@std@@QEAAXAEBV?$basic_string@DU?$char_traits@D@std@@V?$allocator@D@2@@2@@Z 000000014006d8c4 f i oraexectask:prvFixupUtility.obj
 0001:0006ca84       ?_Buy@?$vector@V?$basic_string@DU?$char_traits@D@std@@V?$allocator@D@2@@std@@V?$allocator@V?$basic_string@DU?$char_traits@D@std@@V?$allocator@D@2@@std@@@2@@std@@IEAA_N_K@Z 000000014006da84 f i oraexectask:prvFixupUtility.obj
 0001:0006cb64       ?_Destroy@?$vector@V?$basic_string@DU?$char_traits@D@std@@V?$allocator@D@2@@std@@V?$allocator@V?$basic_string@DU?$char_traits@D@std@@V?$allocator@D@2@@std@@@2@@std@@IEAAXPEAV?$basic_string@DU?$char_traits@D@std@@V?$allocator@D@2@@2@0@Z 000000014006db64 f i oraexectask:prvFixupUtility.obj
 0001:0006cbc0       ?_Grow_to@?$vector@V?$basic_string@DU?$char_traits@D@std@@V?$allocator@D@2@@std@@V?$allocator@V?$basic_string@DU?$char_traits@D@std@@V?$allocator@D@2@@std@@@2@@std@@IEBA_K_K@Z 000000014006dbc0 f i oraexectask:prvFixupUtility.obj
 0001:0006cc5c       ?_Reallocate@?$vector@V?$basic_string@DU?$char_traits@D@std@@V?$allocator@D@2@@std@@V?$allocator@V?$basic_string@DU?$char_traits@D@std@@V?$allocator@D@2@@std@@@2@@std@@IEAAX_K@Z 000000014006dc5c f i oraexectask:prvFixupUtility.obj
 0001:0006ce98       ?_Reserve@?$vector@V?$basic_string@DU?$char_traits@D@std@@V?$allocator@D@2@@std@@V?$allocator@V?$basic_string@DU?$char_traits@D@std@@V?$allocator@D@2@@std@@@2@@std@@IEAAX_K@Z 000000014006de98 f i oraexectask:prvFixupUtility.obj
 0001:0006cf50       ?_Tidy@?$vector@V?$basic_string@DU?$char_traits@D@std@@V?$allocator@D@2@@std@@V?$allocator@V?$basic_string@DU?$char_traits@D@std@@V?$allocator@D@2@@std@@@2@@std@@IEAAXXZ 000000014006df50 f i oraexectask:prvFixupUtility.obj
 0001:0006d01c       ?_Xlen@?$vector@PEAVFixupTask@prv_fixup@@V?$allocator@PEAVFixupTask@prv_fixup@@@std@@@std@@IEBAXXZ 000000014006e01c f i oraexectask:prvFixupFactory.obj
 0001:0006d01c       ?_Xlen@?$vector@PEAVNativeError@prv_fixup@@V?$allocator@PEAVNativeError@prv_fixup@@@std@@@std@@IEBAXXZ 000000014006e01c f i oraexectask:prvFixupResult.obj
 0001:0006d01c       ?_Xlen@?$vector@PEBV?$basic_string@DU?$char_traits@D@std@@V?$allocator@D@2@@std@@V?$allocator@PEBV?$basic_string@DU?$char_traits@D@std@@V?$allocator@D@2@@std@@@2@@std@@IEBAXXZ 000000014006e01c f i oraexectask:sprvFixupUtility.obj
 0001:0006d01c       ?_Xlen@?$vector@PEAVScript@prv_fixup@@V?$allocator@PEAVScript@prv_fixup@@@std@@@std@@IEBAXXZ 000000014006e01c f i oraexectask:prvFixupTaskData.obj
 0001:0006d01c       ?_Xlen@?$vector@PEAVFixupData@prv_fixup@@V?$allocator@PEAVFixupData@prv_fixup@@@std@@@std@@IEBAXXZ 000000014006e01c f i oraexectask:prvFixupXmlParser.obj
 0001:0006d01c       ?_Xlen@?$vector@PEAVNameValuePair@prv_fixup@@V?$allocator@PEAVNameValuePair@prv_fixup@@@std@@@std@@IEBAXXZ 000000014006e01c f i oraexectask:prvFixupXmlNode.obj
 0001:0006d01c       ?_Xlen@?$vector@PEAVNLSError@prv_fixup@@V?$allocator@PEAVNLSError@prv_fixup@@@std@@@std@@IEBAXXZ 000000014006e01c f i oraexectask:prvFixupResult.obj
 0001:0006d01c       ?_Xlen@?$vector@PEAVXmlNode@prv_fixup@@V?$allocator@PEAVXmlNode@prv_fixup@@@std@@@std@@IEBAXXZ 000000014006e01c f i oraexectask:prvFixupXmlNode.obj
 0001:0006d01c       ?_Xlen@?$vector@V?$basic_string@DU?$char_traits@D@std@@V?$allocator@D@2@@std@@V?$allocator@V?$basic_string@DU?$char_traits@D@std@@V?$allocator@D@2@@std@@@2@@std@@IEBAXXZ 000000014006e01c f i oraexectask:prvFixupUtility.obj
 0001:0006d044       ??$_Ucopy@V?$_Vector_const_iterator@V?$_Vector_val@U?$_Simple_types@V?$basic_string@DU?$char_traits@D@std@@V?$allocator@D@2@@std@@@std@@@std@@@std@@@?$vector@V?$basic_string@DU?$char_traits@D@std@@V?$allocator@D@2@@std@@V?$allocator@V?$basic_string@DU?$char_traits@D@std@@V?$allocator@D@2@@std@@@2@@std@@IEAAPEAV?$basic_string@DU?$char_traits@D@std@@V?$allocator@D@2@@1@V?$_Vector_const_iterator@V?$_Vector_val@U?$_Simple_types@V?$basic_string@DU?$char_traits@D@std@@V?$allocator@D@2@@std@@@std@@@std@@@1@0PEAV21@@Z 000000014006e044 f i oraexectask:prvFixupUtility.obj
 0001:0006d0b8       ??$_Umove@PEAV?$basic_string@DU?$char_traits@D@std@@V?$allocator@D@2@@std@@@?$vector@V?$basic_string@DU?$char_traits@D@std@@V?$allocator@D@2@@std@@V?$allocator@V?$basic_string@DU?$char_traits@D@std@@V?$allocator@D@2@@std@@@2@@std@@IEAAPEAV?$basic_string@DU?$char_traits@D@std@@V?$allocator@D@2@@1@PEAV21@00@Z 000000014006e0b8 f i oraexectask:prvFixupUtility.obj
 0001:0006d134       ??G?$_String_const_iterator@V?$_String_val@U?$_Simple_types@D@std@@@std@@@std@@QEBA_JAEBV01@@Z 000000014006e134 f i oraexectask:prvFixupUtility.obj
 0001:0006d178       ??8?$_String_const_iterator@V?$_String_val@U?$_Simple_types@D@std@@@std@@@std@@QEBA_NAEBV01@@Z 000000014006e178 f i oraexectask:prvFixupUtility.obj
 0001:0006d178       ??8?$_Vector_const_iterator@V?$_Vector_val@U?$_Simple_types@V?$basic_string@DU?$char_traits@D@std@@V?$allocator@D@2@@std@@@std@@@std@@@std@@QEBA_NAEBV01@@Z 000000014006e178 f i oraexectask:prvFixupXmlParser.obj
 0001:0006d1d0       ??G?$_String_iterator@V?$_String_val@U?$_Simple_types@D@std@@@std@@@std@@QEBA_JAEBV?$_String_const_iterator@V?$_String_val@U?$_Simple_types@D@std@@@std@@@1@@Z 000000014006e1d0 f i oraexectask:prvFixupUtility.obj
 0001:0006d224       ?getMsgArguments@NLSError@prv_fixup@@QEBA?AV?$vector@PEBV?$basic_string@DU?$char_traits@D@std@@V?$allocator@D@2@@std@@V?$allocator@PEBV?$basic_string@DU?$char_traits@D@std@@V?$allocator@D@2@@std@@@2@@std@@XZ 000000014006e224 f i oraexectask:prvFixupUtility.obj
 0001:0006d260       ?displayFacility@NLSError@prv_fixup@@QEBA_NXZ 000000014006e260 f i oraexectask:prvFixupUtility.obj
 0001:0006d280       ?getValue@NameValuePair@prv_fixup@@QEBAPEBV?$basic_string@DU?$char_traits@D@std@@V?$allocator@D@2@@std@@XZ 000000014006e280 f i oraexectask:prvFixupUtility.obj
 0001:0006d2a0       ??$?HDU?$char_traits@D@std@@V?$allocator@D@1@@std@@YA?AV?$basic_string@DU?$char_traits@D@std@@V?$allocator@D@2@@0@AEBV10@$$QEAV10@@Z 000000014006e2a0 f i oraexectask:prvFixupUtility.obj
 0001:0006d314       ??$?HDU?$char_traits@D@std@@V?$allocator@D@1@@std@@YA?AV?$basic_string@DU?$char_traits@D@std@@V?$allocator@D@2@@0@$$QEAV10@0@Z 000000014006e314 f i oraexectask:prvFixupUtility.obj
 0001:0006d490       ??$?9V?$allocator@D@std@@V01@@std@@YA_NAEBU?$_Wrap_alloc@V?$allocator@D@std@@@0@0@Z 000000014006e490 f i oraexectask:prvFixupUtility.obj
 0001:0006d4e0       ??$?8V?$allocator@D@std@@V01@@std@@YA_NAEBU?$_Wrap_alloc@V?$allocator@D@std@@@0@0@Z 000000014006e4e0 f i oraexectask:prvFixupUtility.obj
 0001:0006d548       ??$?8DD@std@@YA_NAEBV?$allocator@D@0@0@Z 000000014006e548 f i oraexectask:prvFixupUtility.obj
 0001:0006d548       ??$?8V?$basic_string@DU?$char_traits@D@std@@V?$allocator@D@2@@std@@V01@@std@@YA_NAEBV?$allocator@V?$basic_string@DU?$char_traits@D@std@@V?$allocator@D@2@@std@@@0@0@Z 000000014006e548 f i oraexectask:prvFixupXmlParser.obj
 0001:0006d570       ??$_Allocate@V?$basic_string@DU?$char_traits@D@std@@V?$allocator@D@2@@std@@@std@@YAPEAV?$basic_string@DU?$char_traits@D@std@@V?$allocator@D@2@@0@_KPEAV10@@Z 000000014006e570 f i oraexectask:prvFixupUtility.obj
 0001:0006d5f0       ??$_Uninitialized_copy@V?$_Vector_const_iterator@V?$_Vector_val@U?$_Simple_types@V?$basic_string@DU?$char_traits@D@std@@V?$allocator@D@2@@std@@@std@@@std@@@std@@PEAV?$basic_string@DU?$char_traits@D@std@@V?$allocator@D@2@@2@U?$_Wrap_alloc@V?$allocator@V?$basic_string@DU?$char_traits@D@std@@V?$allocator@D@2@@std@@@std@@@2@@std@@YAPEAV?$basic_string@DU?$char_traits@D@std@@V?$allocator@D@2@@0@V?$_Vector_const_iterator@V?$_Vector_val@U?$_Simple_types@V?$basic_string@DU?$char_traits@D@std@@V?$allocator@D@2@@std@@@std@@@std@@@0@0PEAV10@AEAU?$_Wrap_alloc@V?$allocator@V?$basic_string@DU?$char_traits@D@std@@V?$allocator@D@2@@std@@@std@@@0@@Z 000000014006e5f0 f i oraexectask:prvFixupUtility.obj
 0001:0006d6b8       ??$_Uninit_copy@PEBV?$basic_string@DU?$char_traits@D@std@@V?$allocator@D@2@@std@@PEAV12@U?$_Wrap_alloc@V?$allocator@V?$basic_string@DU?$char_traits@D@std@@V?$allocator@D@2@@std@@@std@@@2@@std@@YAPEAV?$basic_string@DU?$char_traits@D@std@@V?$allocator@D@2@@0@PEBV10@0PEAV10@AEAU?$_Wrap_alloc@V?$allocator@V?$basic_string@DU?$char_traits@D@std@@V?$allocator@D@2@@std@@@std@@@0@@Z 000000014006e6b8 f i oraexectask:prvFixupUtility.obj
 0001:0006d78c       ??$_Uninit_copy@PEBV?$basic_string@DU?$char_traits@D@std@@V?$allocator@D@2@@std@@PEAV12@V?$allocator@V?$basic_string@DU?$char_traits@D@std@@V?$allocator@D@2@@std@@@2@@std@@YAPEAV?$basic_string@DU?$char_traits@D@std@@V?$allocator@D@2@@0@PEBV10@0PEAV10@AEAU?$_Wrap_alloc@V?$allocator@V?$basic_string@DU?$char_traits@D@std@@V?$allocator@D@2@@std@@@std@@@0@U_Nonscalar_ptr_iterator_tag@0@@Z 000000014006e78c f i oraexectask:prvFixupUtility.obj
 0001:0006d888       ??$_Destroy_range@U?$_Wrap_alloc@V?$allocator@V?$basic_string@DU?$char_traits@D@std@@V?$allocator@D@2@@std@@@std@@@std@@@std@@YAXPEAV?$basic_string@DU?$char_traits@D@std@@V?$allocator@D@2@@0@0AEAU?$_Wrap_alloc@V?$allocator@V?$basic_string@DU?$char_traits@D@std@@V?$allocator@D@2@@std@@@std@@@0@@Z 000000014006e888 f i oraexectask:prvFixupUtility.obj
 0001:0006d8f4       ??$_Destroy_range@U?$_Wrap_alloc@V?$allocator@V?$basic_string@DU?$char_traits@D@std@@V?$allocator@D@2@@std@@@std@@@std@@@std@@YAXPEAV?$basic_string@DU?$char_traits@D@std@@V?$allocator@D@2@@0@0AEAU?$_Wrap_alloc@V?$allocator@V?$basic_string@DU?$char_traits@D@std@@V?$allocator@D@2@@std@@@std@@@0@U_Nonscalar_ptr_iterator_tag@0@@Z 000000014006e8f4 f i oraexectask:prvFixupUtility.obj
 0001:0006d950       ??$_Uninitialized_move@PEAV?$basic_string@DU?$char_traits@D@std@@V?$allocator@D@2@@std@@PEAV12@U?$_Wrap_alloc@V?$allocator@V?$basic_string@DU?$char_traits@D@std@@V?$allocator@D@2@@std@@@std@@@2@@std@@YAPEAV?$basic_string@DU?$char_traits@D@std@@V?$allocator@D@2@@0@PEAV10@00AEAU?$_Wrap_alloc@V?$allocator@V?$basic_string@DU?$char_traits@D@std@@V?$allocator@D@2@@std@@@std@@@0@@Z 000000014006e950 f i oraexectask:prvFixupUtility.obj
 0001:0006da10       ??$_Uninit_move@PEAV?$basic_string@DU?$char_traits@D@std@@V?$allocator@D@2@@std@@PEAV12@U?$_Wrap_alloc@V?$allocator@V?$basic_string@DU?$char_traits@D@std@@V?$allocator@D@2@@std@@@std@@@2@@std@@YAPEAV?$basic_string@DU?$char_traits@D@std@@V?$allocator@D@2@@0@PEAV10@00AEAU?$_Wrap_alloc@V?$allocator@V?$basic_string@DU?$char_traits@D@std@@V?$allocator@D@2@@std@@@std@@@0@@Z 000000014006ea10 f i oraexectask:prvFixupUtility.obj
 0001:0006db0c       ??$_Uninit_move@PEAV?$basic_string@DU?$char_traits@D@std@@V?$allocator@D@2@@std@@PEAV12@V?$allocator@V?$basic_string@DU?$char_traits@D@std@@V?$allocator@D@2@@std@@@2@V12@@std@@YAPEAV?$basic_string@DU?$char_traits@D@std@@V?$allocator@D@2@@0@PEAV10@00AEAU?$_Wrap_alloc@V?$allocator@V?$basic_string@DU?$char_traits@D@std@@V?$allocator@D@2@@std@@@std@@@0@0U_Nonscalar_ptr_iterator_tag@0@@Z 000000014006eb0c f i oraexectask:prvFixupUtility.obj
 0001:0006dc08       ?splitStringByDelim@FixupUtil@prv_fixup@@SA?AV?$vector@V?$basic_string@DU?$char_traits@D@std@@V?$allocator@D@2@@std@@V?$allocator@V?$basic_string@DU?$char_traits@D@std@@V?$allocator@D@2@@std@@@2@@std@@AEBV?$basic_string@DU?$char_traits@D@std@@V?$allocator@D@2@@4@0@Z 000000014006ec08 f   oraexectask:prvFixupUtility.obj
 0001:0006e970       ?splitStringBySpaces@FixupUtil@prv_fixup@@SA?AV?$vector@V?$basic_string@DU?$char_traits@D@std@@V?$allocator@D@2@@std@@V?$allocator@V?$basic_string@DU?$char_traits@D@std@@V?$allocator@D@2@@std@@@2@@std@@AEBV?$basic_string@DU?$char_traits@D@std@@V?$allocator@D@2@@4@_N@Z 000000014006f970 f   oraexectask:prvFixupUtility.obj
 0001:0006f868       ?argListToString@FixupUtil@prv_fixup@@SA?AV?$basic_string@DU?$char_traits@D@std@@V?$allocator@D@2@@std@@V?$vector@PEBV?$basic_string@DU?$char_traits@D@std@@V?$allocator@D@2@@std@@V?$allocator@PEBV?$basic_string@DU?$char_traits@D@std@@V?$allocator@D@2@@std@@@2@@4@@Z 0000000140070868 f   oraexectask:prvFixupUtility.obj
 0001:0006f90c       ?trimWhiteSpaces@FixupUtil@prv_fixup@@SA?AV?$basic_string@DU?$char_traits@D@std@@V?$allocator@D@2@@std@@AEBV34@@Z 000000014007090c f   oraexectask:prvFixupUtility.obj
 0001:0006fa14       ?trace@FixupUtil@prv_fixup@@SAXAEBV?$basic_string@DU?$char_traits@D@std@@V?$allocator@D@2@@std@@0W4TRACE_LEVEL@2@@Z 0000000140070a14 f   oraexectask:prvFixupUtility.obj
 0001:0006fa58       ?trace@FixupUtil@prv_fixup@@SAXAEBV?$basic_string@DU?$char_traits@D@std@@V?$allocator@D@2@@std@@0@Z 0000000140070a58 f   oraexectask:prvFixupUtility.obj
 0001:0006fa88       ?dumpXmlDom@FixupUtil@prv_fixup@@SAXPEAVXmlNode@2@@Z 0000000140070a88 f   oraexectask:prvFixupUtility.obj
 0001:000701f2       ?getTaskID@FixupUtil@prv_fixup@@SA?AW4TASK_ID@2@PEBV?$basic_string@DU?$char_traits@D@std@@V?$allocator@D@2@@std@@@Z 00000001400711f2 f   oraexectask:prvFixupUtility.obj
 0001:00070d1e       ?getScriptType@FixupUtil@prv_fixup@@SA?AW4_SCRIPT_TYPE@2@PEBV?$basic_string@DU?$char_traits@D@std@@V?$allocator@D@2@@std@@@Z 0000000140071d1e f   oraexectask:prvFixupUtility.obj
 0001:00071096       ?runCommand@FixupUtil@prv_fixup@@SAHPEBV?$basic_string@DU?$char_traits@D@std@@V?$allocator@D@2@@std@@PEAVResult@2@_N@Z 0000000140072096 f   oraexectask:prvFixupUtility.obj
 0001:000710e2       ?runCommand@FixupUtil@prv_fixup@@SAHPEBV?$basic_string@DU?$char_traits@D@std@@V?$allocator@D@2@@std@@V?$vector@PEBV?$basic_string@DU?$char_traits@D@std@@V?$allocator@D@2@@std@@V?$allocator@PEBV?$basic_string@DU?$char_traits@D@std@@V?$allocator@D@2@@std@@@2@@4@PEAVResult@2@_N@Z 00000001400720e2 f   oraexectask:prvFixupUtility.obj
 0001:000711ec       ?runExe@FixupUtil@prv_fixup@@SAHPEBV?$basic_string@DU?$char_traits@D@std@@V?$allocator@D@2@@std@@V?$vector@PEBV?$basic_string@DU?$char_traits@D@std@@V?$allocator@D@2@@std@@V?$allocator@PEBV?$basic_string@DU?$char_traits@D@std@@V?$allocator@D@2@@std@@@2@@4@PEAVResult@2@_N@Z 00000001400721ec f   oraexectask:prvFixupUtility.obj
 0001:000712f6       ?runExe@FixupUtil@prv_fixup@@SAHPEBV?$basic_string@DU?$char_traits@D@std@@V?$allocator@D@2@@std@@V?$vector@PEBV?$basic_string@DU?$char_traits@D@std@@V?$allocator@D@2@@std@@V?$allocator@PEBV?$basic_string@DU?$char_traits@D@std@@V?$allocator@D@2@@std@@@2@@4@1PEAVResult@2@_N@Z 00000001400722f6 f   oraexectask:prvFixupUtility.obj
 0001:0007151c       ?updateEntryInsideConfigFile@FixupUtil@prv_fixup@@SAPEAVResult@2@PEBV?$basic_string@DU?$char_traits@D@std@@V?$allocator@D@2@@std@@00V45@_N@Z 000000014007251c f   oraexectask:prvFixupUtility.obj
 0001:0007544e       ?nlsErrorsToString@FixupUtil@prv_fixup@@SA?BV?$basic_string@DU?$char_traits@D@std@@V?$allocator@D@2@@std@@V?$vector@PEAVNLSError@prv_fixup@@V?$allocator@PEAVNLSError@prv_fixup@@@std@@@4@@Z 000000014007644e f   oraexectask:prvFixupUtility.obj
 0001:00075664       ?nlsErrorToString@FixupUtil@prv_fixup@@SA?BV?$basic_string@DU?$char_traits@D@std@@V?$allocator@D@2@@std@@PEAVNLSError@2@@Z 0000000140076664 f   oraexectask:prvFixupUtility.obj
 0001:00075eea       ?searchLineInCollection@FixupUtil@prv_fixup@@SAHV?$vector@V?$basic_string@DU?$char_traits@D@std@@V?$allocator@D@2@@std@@V?$allocator@V?$basic_string@DU?$char_traits@D@std@@V?$allocator@D@2@@std@@@2@@std@@AEBV?$basic_string@DU?$char_traits@D@std@@V?$allocator@D@2@@4@@Z 0000000140076eea f   oraexectask:prvFixupUtility.obj
 0001:000760d8       ?getCurrentDirPath@FixupUtil@prv_fixup@@SAPEBV?$basic_string@DU?$char_traits@D@std@@V?$allocator@D@2@@std@@XZ 00000001400770d8 f   oraexectask:prvFixupUtility.obj
 0001:000760f6       ?disposeScratchPad@FixupUtil@prv_fixup@@SAXXZ 00000001400770f6 f   oraexectask:prvFixupUtility.obj
 0001:0007610c       ?initScratchPad@FixupUtil@prv_fixup@@SAXXZ 000000014007710c f   oraexectask:prvFixupUtility.obj
 0001:00076122       ?addExecutableTracesToTraceFile@FixupUtil@prv_fixup@@SAXPEAV?$basic_string@DU?$char_traits@D@std@@V?$allocator@D@2@@std@@@Z 0000000140077122 f   oraexectask:prvFixupUtility.obj
 0001:00076146       ?searchByKeyName@FixupUtil@prv_fixup@@SAPEAVNameValuePair@2@V?$vector@PEAVNameValuePair@prv_fixup@@V?$allocator@PEAVNameValuePair@prv_fixup@@@std@@@std@@PEAV?$basic_string@DU?$char_traits@D@std@@V?$allocator@D@2@@5@@Z 0000000140077146 f   oraexectask:prvFixupUtility.obj
 0001:000762b2       ?getMatchingLine@FixupUtil@prv_fixup@@SA_NV?$vector@V?$basic_string@DU?$char_traits@D@std@@V?$allocator@D@2@@std@@V?$allocator@V?$basic_string@DU?$char_traits@D@std@@V?$allocator@D@2@@std@@@2@@std@@V?$vector@PEBV?$basic_string@DU?$char_traits@D@std@@V?$allocator@D@2@@std@@V?$allocator@PEBV?$basic_string@DU?$char_traits@D@std@@V?$allocator@D@2@@std@@@2@@4@AEAH@Z 00000001400772b2 f   oraexectask:prvFixupUtility.obj
 0001:00076476       ?getMatchingLine@FixupUtil@prv_fixup@@SA_NV?$vector@V?$basic_string@DU?$char_traits@D@std@@V?$allocator@D@2@@std@@V?$allocator@V?$basic_string@DU?$char_traits@D@std@@V?$allocator@D@2@@std@@@2@@std@@HV?$vector@PEBV?$basic_string@DU?$char_traits@D@std@@V?$allocator@D@2@@std@@V?$allocator@PEBV?$basic_string@DU?$char_traits@D@std@@V?$allocator@D@2@@std@@@2@@4@AEAH@Z 0000000140077476 f   oraexectask:prvFixupUtility.obj
 0001:000768c2       ?deleteFileIfExists@FixupUtil@prv_fixup@@SAXPEBV?$basic_string@DU?$char_traits@D@std@@V?$allocator@D@2@@std@@@Z 00000001400778c2 f   oraexectask:prvFixupUtility.obj
 0001:000768e6       ?createDirectory@FixupUtil@prv_fixup@@SA_NPEBV?$basic_string@DU?$char_traits@D@std@@V?$allocator@D@2@@std@@AEBV34@PEAVResult@2@@Z 00000001400778e6 f   oraexectask:prvFixupUtility.obj
 0001:00076a62       ?renameFile@FixupUtil@prv_fixup@@SA_NPEBV?$basic_string@DU?$char_traits@D@std@@V?$allocator@D@2@@std@@0PEAVResult@2@@Z 0000000140077a62 f   oraexectask:prvFixupUtility.obj
 0001:00076ab0       ?checkFileExistence@FixupUtil@prv_fixup@@SA_NPEBV?$basic_string@DU?$char_traits@D@std@@V?$allocator@D@2@@std@@@Z 0000000140077ab0 f   oraexectask:prvFixupUtility.obj
 0001:00076bf6       ?checkDirectoryExistence@FixupUtil@prv_fixup@@SA_NPEBV?$basic_string@DU?$char_traits@D@std@@V?$allocator@D@2@@std@@@Z 0000000140077bf6 f   oraexectask:prvFixupUtility.obj
 0001:00076d3c       ?changeFilePermissions@FixupUtil@prv_fixup@@SA_NPEBV?$basic_string@DU?$char_traits@D@std@@V?$allocator@D@2@@std@@AEBV34@PEAVResult@2@@Z 0000000140077d3c f   oraexectask:prvFixupUtility.obj
 0001:00076d8a       ?changeFileOwnerShip@FixupUtil@prv_fixup@@SA_NPEBV?$basic_string@DU?$char_traits@D@std@@V?$allocator@D@2@@std@@AEBV34@1PEAVResult@2@@Z 0000000140077d8a f   oraexectask:prvFixupUtility.obj
 0001:00076df0       ?hostNamesMatch@FixupUtil@prv_fixup@@SA_NV?$basic_string@DU?$char_traits@D@std@@V?$allocator@D@2@@std@@0@Z 0000000140077df0 f   oraexectask:prvFixupUtility.obj
 0001:00077bc0       ?copyFile@FixupUtil@prv_fixup@@SA_NPEBV?$basic_string@DU?$char_traits@D@std@@V?$allocator@D@2@@std@@0PEAVResult@2@@Z 0000000140078bc0 f   oraexectask:prvFixupUtility.obj
 0001:0007a110       ??1FixupTaskFactory@prv_fixup@@QEAA@XZ 000000014007b110 f i oraexectask:prvFixupHandler.obj
 0001:0007a144       ??_ENativeHandler@prv_fixup@@AEAAPEAXI@Z 000000014007b144 f i oraexectask:prvFixupHandler.obj
 0001:0007a144       ??_GNativeHandler@prv_fixup@@AEAAPEAXI@Z 000000014007b144 f i oraexectask:prvFixupHandler.obj
 0001:0007a188       ?getInstance@NativeHandler@prv_fixup@@SAPEAV12@XZ 000000014007b188 f   oraexectask:prvFixupHandler.obj
 0001:0007a636       ?dispose@NativeHandler@prv_fixup@@SAXXZ 000000014007b636 f   oraexectask:prvFixupHandler.obj
 0001:0007a79e       ?performFixup@NativeHandler@prv_fixup@@QEAA_NXZ 000000014007b79e f   oraexectask:prvFixupHandler.obj
 0001:0007b172       ??0NativeHandler@prv_fixup@@AEAA@XZ 000000014007c172 f   oraexectask:prvFixupHandler.obj
 0001:0007b1a2       ??1NativeHandler@prv_fixup@@AEAA@XZ 000000014007c1a2 f   oraexectask:prvFixupHandler.obj
 0001:0007c7f4       ??4?$basic_string@DU?$char_traits@D@std@@V?$allocator@D@2@@std@@QEAAAEAV01@AEBV01@@Z 000000014007d7f4 f i oraexectask:prvFixupResult.obj
 0001:0007c8d4       ?assign@?$basic_string@DU?$char_traits@D@std@@V?$allocator@D@2@@std@@QEAAAEAV12@AEBV12@@Z 000000014007d8d4 f i oraexectask:prvFixupResult.obj
 0001:0007c930       ?select_on_container_copy_construction@?$allocator@PEAVXmlNode@prv_fixup@@@std@@QEBA?AV12@XZ 000000014007d930 f i oraexectask:prvFixupXmlNode.obj
 0001:0007c930       ?select_on_container_copy_construction@?$allocator@PEAVFixupData@prv_fixup@@@std@@QEBA?AV12@XZ 000000014007d930 f i oraexectask:prvFixupTask.obj
 0001:0007c930       ?select_on_container_copy_construction@?$allocator@PEAVNativeError@prv_fixup@@@std@@QEBA?AV12@XZ 000000014007d930 f i oraexectask:prvFixupResult.obj
 0001:0007c930       ?select_on_container_copy_construction@?$allocator@PEAVNLSError@prv_fixup@@@std@@QEBA?AV12@XZ 000000014007d930 f i oraexectask:prvFixupResult.obj
 0001:0007c930       ?select_on_container_copy_construction@?$allocator@V?$basic_string@DU?$char_traits@D@std@@V?$allocator@D@2@@std@@@std@@QEBA?AV12@XZ 000000014007d930 f i oraexectask:prvFixupUtility.obj
 0001:0007c930       ?select_on_container_copy_construction@?$allocator@PEAVScript@prv_fixup@@@std@@QEBA?AV12@XZ 000000014007d930 f i oraexectask:prvFixupTaskData.obj
 0001:0007c930       ?select_on_container_copy_construction@?$allocator@PEAVFixupTask@prv_fixup@@@std@@QEBA?AV12@XZ 000000014007d930 f i oraexectask:prvFixupFactory.obj
 0001:0007c930       ?select_on_container_copy_construction@?$allocator@D@std@@QEBA?AV12@XZ 000000014007d930 f i oraexectask:prvFixupConstants.obj
 0001:0007c930       ?select_on_container_copy_construction@?$allocator@PEAVNameValuePair@prv_fixup@@@std@@QEBA?AV12@XZ 000000014007d930 f i oraexectask:prvFixupXmlNode.obj
 0001:0007c930       ?select_on_container_copy_construction@?$allocator@PEBV?$basic_string@DU?$char_traits@D@std@@V?$allocator@D@2@@std@@@std@@QEBA?AV12@XZ 000000014007d930 f i oraexectask:sprvFixupUtility.obj
 0001:0007c968       ??$construct@PEAVNLSError@prv_fixup@@AEAPEAV12@@?$allocator@PEAVNLSError@prv_fixup@@@std@@QEAAXPEAPEAVNLSError@prv_fixup@@AEAPEAV23@@Z 000000014007d968 f i oraexectask:prvFixupResult.obj
 0001:0007ca54       ??$construct@PEAVNLSError@prv_fixup@@AEAPEAV12@@?$allocator_traits@V?$allocator@PEAVNLSError@prv_fixup@@@std@@@std@@SAXAEAV?$allocator@PEAVNLSError@prv_fixup@@@1@PEAPEAVNLSError@prv_fixup@@AEAPEAV34@@Z 000000014007da54 f i oraexectask:prvFixupResult.obj
 0001:0007caac       ?allocate@?$_Wrap_alloc@V?$allocator@PEAVNativeError@prv_fixup@@@std@@@std@@QEAAPEAPEAVNativeError@prv_fixup@@_K@Z 000000014007daac f i oraexectask:prvFixupResult.obj
 0001:0007caac       ?allocate@?$_Wrap_alloc@V?$allocator@PEAVFixupTask@prv_fixup@@@std@@@std@@QEAAPEAPEAVFixupTask@prv_fixup@@_K@Z 000000014007daac f i oraexectask:prvFixupFactory.obj
 0001:0007caac       ?allocate@?$_Wrap_alloc@V?$allocator@PEAVNameValuePair@prv_fixup@@@std@@@std@@QEAAPEAPEAVNameValuePair@prv_fixup@@_K@Z 000000014007daac f i oraexectask:prvFixupXmlNode.obj
 0001:0007caac       ?allocate@?$_Wrap_alloc@V?$allocator@PEAVXmlNode@prv_fixup@@@std@@@std@@QEAAPEAPEAVXmlNode@prv_fixup@@_K@Z 000000014007daac f i oraexectask:prvFixupXmlNode.obj
 0001:0007caac       ?allocate@?$_Wrap_alloc@V?$allocator@PEBV?$basic_string@DU?$char_traits@D@std@@V?$allocator@D@2@@std@@@std@@@std@@QEAAPEAPEBV?$basic_string@DU?$char_traits@D@std@@V?$allocator@D@2@@2@_K@Z 000000014007daac f i oraexectask:sprvFixupUtility.obj
 0001:0007caac       ?allocate@?$_Wrap_alloc@V?$allocator@PEAVScript@prv_fixup@@@std@@@std@@QEAAPEAPEAVScript@prv_fixup@@_K@Z 000000014007daac f i oraexectask:prvFixupTaskData.obj
 0001:0007caac       ?allocate@?$_Wrap_alloc@V?$allocator@PEAVNLSError@prv_fixup@@@std@@@std@@QEAAPEAPEAVNLSError@prv_fixup@@_K@Z 000000014007daac f i oraexectask:prvFixupResult.obj
 0001:0007caac       ?allocate@?$_Wrap_alloc@V?$allocator@PEAVFixupData@prv_fixup@@@std@@@std@@QEAAPEAPEAVFixupData@prv_fixup@@_K@Z 000000014007daac f i oraexectask:prvFixupXmlParser.obj
 0001:0007cae4       ??$construct@PEAVNLSError@prv_fixup@@AEAPEAV12@@?$_Wrap_alloc@V?$allocator@PEAVNLSError@prv_fixup@@@std@@@std@@QEAAXPEAPEAVNLSError@prv_fixup@@AEAPEAV23@@Z 000000014007dae4 f i oraexectask:prvFixupResult.obj
 0001:0007cb3c       ??0?$vector@PEAVNLSError@prv_fixup@@V?$allocator@PEAVNLSError@prv_fixup@@@std@@@std@@QEAA@AEBV01@@Z 000000014007db3c f i oraexectask:prvFixupResult.obj
 0001:0007cccc       ?push_back@?$vector@PEAVNLSError@prv_fixup@@V?$allocator@PEAVNLSError@prv_fixup@@@std@@@std@@QEAAXAEBQEAVNLSError@prv_fixup@@@Z 000000014007dccc f i oraexectask:prvFixupResult.obj
 0001:0007ce8c       ?_Reallocate@?$vector@PEAVNLSError@prv_fixup@@V?$allocator@PEAVNLSError@prv_fixup@@@std@@@std@@IEAAX_K@Z 000000014007de8c f i oraexectask:prvFixupResult.obj
 0001:0007d0c8       ?_Reserve@?$vector@PEAVNLSError@prv_fixup@@V?$allocator@PEAVNLSError@prv_fixup@@@std@@@std@@IEAAX_K@Z 000000014007e0c8 f i oraexectask:prvFixupResult.obj
 0001:0007d180       ??$_Ucopy@V?$_Vector_const_iterator@V?$_Vector_val@U?$_Simple_types@PEAVNLSError@prv_fixup@@@std@@@std@@@std@@@?$vector@PEAVNLSError@prv_fixup@@V?$allocator@PEAVNLSError@prv_fixup@@@std@@@std@@IEAAPEAPEAVNLSError@prv_fixup@@V?$_Vector_const_iterator@V?$_Vector_val@U?$_Simple_types@PEAVNLSError@prv_fixup@@@std@@@std@@@1@0PEAPEAV23@@Z 000000014007e180 f i oraexectask:prvFixupResult.obj
 0001:0007d180       ??$_Ucopy@V?$_Vector_const_iterator@V?$_Vector_val@U?$_Simple_types@PEAVFixupData@prv_fixup@@@std@@@std@@@std@@@?$vector@PEAVFixupData@prv_fixup@@V?$allocator@PEAVFixupData@prv_fixup@@@std@@@std@@IEAAPEAPEAVFixupData@prv_fixup@@V?$_Vector_const_iterator@V?$_Vector_val@U?$_Simple_types@PEAVFixupData@prv_fixup@@@std@@@std@@@1@0PEAPEAV23@@Z 000000014007e180 f i oraexectask:prvFixupTask.obj
 0001:0007d180       ??$_Ucopy@V?$_Vector_const_iterator@V?$_Vector_val@U?$_Simple_types@PEAVXmlNode@prv_fixup@@@std@@@std@@@std@@@?$vector@PEAVXmlNode@prv_fixup@@V?$allocator@PEAVXmlNode@prv_fixup@@@std@@@std@@IEAAPEAPEAVXmlNode@prv_fixup@@V?$_Vector_const_iterator@V?$_Vector_val@U?$_Simple_types@PEAVXmlNode@prv_fixup@@@std@@@std@@@1@0PEAPEAV23@@Z 000000014007e180 f i oraexectask:prvFixupXmlNode.obj
 0001:0007d180       ??$_Ucopy@V?$_Vector_const_iterator@V?$_Vector_val@U?$_Simple_types@PEAVNativeError@prv_fixup@@@std@@@std@@@std@@@?$vector@PEAVNativeError@prv_fixup@@V?$allocator@PEAVNativeError@prv_fixup@@@std@@@std@@IEAAPEAPEAVNativeError@prv_fixup@@V?$_Vector_const_iterator@V?$_Vector_val@U?$_Simple_types@PEAVNativeError@prv_fixup@@@std@@@std@@@1@0PEAPEAV23@@Z 000000014007e180 f i oraexectask:prvFixupResult.obj
 0001:0007d180       ??$_Ucopy@V?$_Vector_const_iterator@V?$_Vector_val@U?$_Simple_types@PEAVScript@prv_fixup@@@std@@@std@@@std@@@?$vector@PEAVScript@prv_fixup@@V?$allocator@PEAVScript@prv_fixup@@@std@@@std@@IEAAPEAPEAVScript@prv_fixup@@V?$_Vector_const_iterator@V?$_Vector_val@U?$_Simple_types@PEAVScript@prv_fixup@@@std@@@std@@@1@0PEAPEAV23@@Z 000000014007e180 f i oraexectask:prvFixupTaskData.obj
 0001:0007d180       ??$_Ucopy@V?$_Vector_const_iterator@V?$_Vector_val@U?$_Simple_types@PEAVNameValuePair@prv_fixup@@@std@@@std@@@std@@@?$vector@PEAVNameValuePair@prv_fixup@@V?$allocator@PEAVNameValuePair@prv_fixup@@@std@@@std@@IEAAPEAPEAVNameValuePair@prv_fixup@@V?$_Vector_const_iterator@V?$_Vector_val@U?$_Simple_types@PEAVNameValuePair@prv_fixup@@@std@@@std@@@1@0PEAPEAV23@@Z 000000014007e180 f i oraexectask:prvFixupXmlNode.obj
 0001:0007d180       ??$_Ucopy@V?$_Vector_const_iterator@V?$_Vector_val@U?$_Simple_types@PEBV?$basic_string@DU?$char_traits@D@std@@V?$allocator@D@2@@std@@@std@@@std@@@std@@@?$vector@PEBV?$basic_string@DU?$char_traits@D@std@@V?$allocator@D@2@@std@@V?$allocator@PEBV?$basic_string@DU?$char_traits@D@std@@V?$allocator@D@2@@std@@@2@@std@@IEAAPEAPEBV?$basic_string@DU?$char_traits@D@std@@V?$allocator@D@2@@1@V?$_Vector_const_iterator@V?$_Vector_val@U?$_Simple_types@PEBV?$basic_string@DU?$char_traits@D@std@@V?$allocator@D@2@@std@@@std@@@std@@@1@0PEAPEBV21@@Z 000000014007e180 f i oraexectask:sprvFixupUtility.obj
 0001:0007d180       ??$_Ucopy@V?$_Vector_const_iterator@V?$_Vector_val@U?$_Simple_types@PEAVFixupTask@prv_fixup@@@std@@@std@@@std@@@?$vector@PEAVFixupTask@prv_fixup@@V?$allocator@PEAVFixupTask@prv_fixup@@@std@@@std@@IEAAPEAPEAVFixupTask@prv_fixup@@V?$_Vector_const_iterator@V?$_Vector_val@U?$_Simple_types@PEAVFixupTask@prv_fixup@@@std@@@std@@@1@0PEAPEAV23@@Z 000000014007e180 f i oraexectask:prvFixupFactory.obj
 0001:0007d1f4       ?max_size@?$allocator@PEBV?$basic_string@DU?$char_traits@D@std@@V?$allocator@D@2@@std@@@std@@QEBA_KXZ 000000014007e1f4 f i oraexectask:sprvFixupUtility.obj
 0001:0007d1f4       ?max_size@?$allocator@PEAVScript@prv_fixup@@@std@@QEBA_KXZ 000000014007e1f4 f i oraexectask:prvFixupTaskData.obj
 0001:0007d1f4       ?max_size@?$allocator@PEAVXmlNode@prv_fixup@@@std@@QEBA_KXZ 000000014007e1f4 f i oraexectask:prvFixupXmlNode.obj
 0001:0007d1f4       ?max_size@?$allocator@PEAVFixupData@prv_fixup@@@std@@QEBA_KXZ 000000014007e1f4 f i oraexectask:prvFixupXmlParser.obj
 0001:0007d1f4       ?max_size@?$allocator@PEAVNativeError@prv_fixup@@@std@@QEBA_KXZ 000000014007e1f4 f i oraexectask:prvFixupResult.obj
 0001:0007d1f4       ?max_size@?$allocator@PEAVNLSError@prv_fixup@@@std@@QEBA_KXZ 000000014007e1f4 f i oraexectask:prvFixupResult.obj
 0001:0007d1f4       ?max_size@?$allocator@PEAVNameValuePair@prv_fixup@@@std@@QEBA_KXZ 000000014007e1f4 f i oraexectask:prvFixupXmlNode.obj
 0001:0007d1f4       ?max_size@?$allocator@PEAVFixupTask@prv_fixup@@@std@@QEBA_KXZ 000000014007e1f4 f i oraexectask:prvFixupFactory.obj
 0001:0007d218       ??$construct@PEAVNativeError@prv_fixup@@AEAPEAV12@@?$allocator@PEAVNativeError@prv_fixup@@@std@@QEAAXPEAPEAVNativeError@prv_fixup@@AEAPEAV23@@Z 000000014007e218 f i oraexectask:prvFixupResult.obj
 0001:0007d304       ?max_size@?$allocator_traits@V?$allocator@PEAVXmlNode@prv_fixup@@@std@@@std@@SA_KAEBV?$allocator@PEAVXmlNode@prv_fixup@@@2@@Z 000000014007e304 f i oraexectask:prvFixupXmlNode.obj
 0001:0007d304       ?max_size@?$allocator_traits@V?$allocator@PEBV?$basic_string@DU?$char_traits@D@std@@V?$allocator@D@2@@std@@@std@@@std@@SA_KAEBV?$allocator@PEBV?$basic_string@DU?$char_traits@D@std@@V?$allocator@D@2@@std@@@2@@Z 000000014007e304 f i oraexectask:sprvFixupUtility.obj
 0001:0007d304       ?max_size@?$allocator_traits@V?$allocator@PEAVFixupData@prv_fixup@@@std@@@std@@SA_KAEBV?$allocator@PEAVFixupData@prv_fixup@@@2@@Z 000000014007e304 f i oraexectask:prvFixupXmlParser.obj
 0001:0007d304       ?max_size@?$allocator_traits@V?$allocator@PEAVNameValuePair@prv_fixup@@@std@@@std@@SA_KAEBV?$allocator@PEAVNameValuePair@prv_fixup@@@2@@Z 000000014007e304 f i oraexectask:prvFixupXmlNode.obj
 0001:0007d304       ?max_size@?$allocator_traits@V?$allocator@PEAVNativeError@prv_fixup@@@std@@@std@@SA_KAEBV?$allocator@PEAVNativeError@prv_fixup@@@2@@Z 000000014007e304 f i oraexectask:prvFixupResult.obj
 0001:0007d304       ?max_size@?$allocator_traits@V?$allocator@PEAVNLSError@prv_fixup@@@std@@@std@@SA_KAEBV?$allocator@PEAVNLSError@prv_fixup@@@2@@Z 000000014007e304 f i oraexectask:prvFixupResult.obj
 0001:0007d304       ?max_size@?$allocator_traits@V?$allocator@PEAVScript@prv_fixup@@@std@@@std@@SA_KAEBV?$allocator@PEAVScript@prv_fixup@@@2@@Z 000000014007e304 f i oraexectask:prvFixupTaskData.obj
 0001:0007d304       ?max_size@?$allocator_traits@V?$allocator@PEAVFixupTask@prv_fixup@@@std@@@std@@SA_KAEBV?$allocator@PEAVFixupTask@prv_fixup@@@2@@Z 000000014007e304 f i oraexectask:prvFixupFactory.obj
 0001:0007d330       ??$construct@PEAVNativeError@prv_fixup@@AEAPEAV12@@?$allocator_traits@V?$allocator@PEAVNativeError@prv_fixup@@@std@@@std@@SAXAEAV?$allocator@PEAVNativeError@prv_fixup@@@1@PEAPEAVNativeError@prv_fixup@@AEAPEAV34@@Z 000000014007e330 f i oraexectask:prvFixupResult.obj
 0001:0007d388       ?select_on_container_copy_construction@?$_Wrap_alloc@V?$allocator@PEAVNameValuePair@prv_fixup@@@std@@@std@@QEBA?AU12@XZ 000000014007e388 f i oraexectask:prvFixupXmlNode.obj
 0001:0007d388       ?select_on_container_copy_construction@?$_Wrap_alloc@V?$allocator@PEAVNLSError@prv_fixup@@@std@@@std@@QEBA?AU12@XZ 000000014007e388 f i oraexectask:prvFixupResult.obj
 0001:0007d388       ?select_on_container_copy_construction@?$_Wrap_alloc@V?$allocator@PEAVFixupData@prv_fixup@@@std@@@std@@QEBA?AU12@XZ 000000014007e388 f i oraexectask:prvFixupTask.obj
 0001:0007d388       ?select_on_container_copy_construction@?$_Wrap_alloc@V?$allocator@PEAVNativeError@prv_fixup@@@std@@@std@@QEBA?AU12@XZ 000000014007e388 f i oraexectask:prvFixupResult.obj
 0001:0007d388       ?select_on_container_copy_construction@?$_Wrap_alloc@V?$allocator@PEAVScript@prv_fixup@@@std@@@std@@QEBA?AU12@XZ 000000014007e388 f i oraexectask:prvFixupTaskData.obj
 0001:0007d388       ?select_on_container_copy_construction@?$_Wrap_alloc@V?$allocator@PEAVXmlNode@prv_fixup@@@std@@@std@@QEBA?AU12@XZ 000000014007e388 f i oraexectask:prvFixupXmlNode.obj
 0001:0007d388       ?select_on_container_copy_construction@?$_Wrap_alloc@V?$allocator@D@std@@@std@@QEBA?AU12@XZ 000000014007e388 f i oraexectask:prvFixupConstants.obj
 0001:0007d388       ?select_on_container_copy_construction@?$_Wrap_alloc@V?$allocator@PEAVFixupTask@prv_fixup@@@std@@@std@@QEBA?AU12@XZ 000000014007e388 f i oraexectask:prvFixupFactory.obj
 0001:0007d388       ?select_on_container_copy_construction@?$_Wrap_alloc@V?$allocator@PEBV?$basic_string@DU?$char_traits@D@std@@V?$allocator@D@2@@std@@@std@@@std@@QEBA?AU12@XZ 000000014007e388 f i oraexectask:sprvFixupUtility.obj
 0001:0007d388       ?select_on_container_copy_construction@?$_Wrap_alloc@V?$allocator@V?$basic_string@DU?$char_traits@D@std@@V?$allocator@D@2@@std@@@std@@@std@@QEBA?AU12@XZ 000000014007e388 f i oraexectask:prvFixupUtility.obj
 0001:0007d3d4       ?max_size@?$_Wrap_alloc@V?$allocator@PEAVNameValuePair@prv_fixup@@@std@@@std@@QEBA_KXZ 000000014007e3d4 f i oraexectask:prvFixupXmlNode.obj
 0001:0007d3d4       ?max_size@?$_Wrap_alloc@V?$allocator@PEAVXmlNode@prv_fixup@@@std@@@std@@QEBA_KXZ 000000014007e3d4 f i oraexectask:prvFixupXmlNode.obj
 0001:0007d3d4       ?max_size@?$_Wrap_alloc@V?$allocator@PEBV?$basic_string@DU?$char_traits@D@std@@V?$allocator@D@2@@std@@@std@@@std@@QEBA_KXZ 000000014007e3d4 f i oraexectask:sprvFixupUtility.obj
 0001:0007d3d4       ?max_size@?$_Wrap_alloc@V?$allocator@PEAVNLSError@prv_fixup@@@std@@@std@@QEBA_KXZ 000000014007e3d4 f i oraexectask:prvFixupResult.obj
 0001:0007d3d4       ?max_size@?$_Wrap_alloc@V?$allocator@PEAVNativeError@prv_fixup@@@std@@@std@@QEBA_KXZ 000000014007e3d4 f i oraexectask:prvFixupResult.obj
 0001:0007d3d4       ?max_size@?$_Wrap_alloc@V?$allocator@PEAVFixupTask@prv_fixup@@@std@@@std@@QEBA_KXZ 000000014007e3d4 f i oraexectask:prvFixupFactory.obj
 0001:0007d3d4       ?max_size@?$_Wrap_alloc@V?$allocator@PEAVScript@prv_fixup@@@std@@@std@@QEBA_KXZ 000000014007e3d4 f i oraexectask:prvFixupTaskData.obj
 0001:0007d3d4       ?max_size@?$_Wrap_alloc@V?$allocator@PEAVFixupData@prv_fixup@@@std@@@std@@QEBA_KXZ 000000014007e3d4 f i oraexectask:prvFixupXmlParser.obj
 0001:0007d408       ??$construct@PEAVNativeError@prv_fixup@@AEAPEAV12@@?$_Wrap_alloc@V?$allocator@PEAVNativeError@prv_fixup@@@std@@@std@@QEAAXPEAPEAVNativeError@prv_fixup@@AEAPEAV23@@Z 000000014007e408 f i oraexectask:prvFixupResult.obj
 0001:0007d460       ??0?$vector@PEAVScript@prv_fixup@@V?$allocator@PEAVScript@prv_fixup@@@std@@@std@@QEAA@XZ 000000014007e460 f i oraexectask:prvFixupTaskData.obj
 0001:0007d460       ??0?$vector@V?$basic_string@DU?$char_traits@D@std@@V?$allocator@D@2@@std@@V?$allocator@V?$basic_string@DU?$char_traits@D@std@@V?$allocator@D@2@@std@@@2@@std@@QEAA@XZ 000000014007e460 f i oraexectask:prvFixupUtility.obj
 0001:0007d460       ??0?$vector@PEAVXmlNode@prv_fixup@@V?$allocator@PEAVXmlNode@prv_fixup@@@std@@@std@@QEAA@XZ 000000014007e460 f i oraexectask:prvFixupXmlNode.obj
 0001:0007d460       ??0?$vector@PEAVFixupData@prv_fixup@@V?$allocator@PEAVFixupData@prv_fixup@@@std@@@std@@QEAA@XZ 000000014007e460 f i oraexectask:prvFixupXmlParser.obj
 0001:0007d460       ??0?$vector@PEAVFixupTask@prv_fixup@@V?$allocator@PEAVFixupTask@prv_fixup@@@std@@@std@@QEAA@XZ 000000014007e460 f i oraexectask:prvFixupFactory.obj
 0001:0007d460       ??0?$vector@PEAVNLSError@prv_fixup@@V?$allocator@PEAVNLSError@prv_fixup@@@std@@@std@@QEAA@XZ 000000014007e460 f i oraexectask:prvFixupResult.obj
 0001:0007d460       ??0?$vector@PEAVNativeError@prv_fixup@@V?$allocator@PEAVNativeError@prv_fixup@@@std@@@std@@QEAA@XZ 000000014007e460 f i oraexectask:prvFixupResult.obj
 0001:0007d460       ??0?$vector@PEBV?$basic_string@DU?$char_traits@D@std@@V?$allocator@D@2@@std@@V?$allocator@PEBV?$basic_string@DU?$char_traits@D@std@@V?$allocator@D@2@@std@@@2@@std@@QEAA@XZ 000000014007e460 f i oraexectask:sprvFixupUtility.obj
 0001:0007d460       ??0?$vector@PEAVNameValuePair@prv_fixup@@V?$allocator@PEAVNameValuePair@prv_fixup@@@std@@@std@@QEAA@XZ 000000014007e460 f i oraexectask:prvFixupXmlNode.obj
 0001:0007d4a0       ??0?$vector@PEAVNativeError@prv_fixup@@V?$allocator@PEAVNativeError@prv_fixup@@@std@@@std@@QEAA@AEBV01@@Z 000000014007e4a0 f i oraexectask:prvFixupResult.obj
 0001:0007d630       ??1?$vector@PEBV?$basic_string@DU?$char_traits@D@std@@V?$allocator@D@2@@std@@V?$allocator@PEBV?$basic_string@DU?$char_traits@D@std@@V?$allocator@D@2@@std@@@2@@std@@QEAA@XZ 000000014007e630 f i oraexectask:sprvFixupUtility.obj
 0001:0007d630       ??1?$vector@PEAVXmlNode@prv_fixup@@V?$allocator@PEAVXmlNode@prv_fixup@@@std@@@std@@QEAA@XZ 000000014007e630 f i oraexectask:prvFixupUtility.obj
 0001:0007d630       ??1?$vector@PEAVNameValuePair@prv_fixup@@V?$allocator@PEAVNameValuePair@prv_fixup@@@std@@@std@@QEAA@XZ 000000014007e630 f i oraexectask:prvFixupUtility.obj
 0001:0007d630       ??1?$vector@PEAVScript@prv_fixup@@V?$allocator@PEAVScript@prv_fixup@@@std@@@std@@QEAA@XZ 000000014007e630 f i oraexectask:prvFixupTaskData.obj
 0001:0007d630       ??1?$vector@PEAVFixupData@prv_fixup@@V?$allocator@PEAVFixupData@prv_fixup@@@std@@@std@@QEAA@XZ 000000014007e630 f i oraexectask:prvFixupHandler.obj
 0001:0007d630       ??1?$vector@PEAVFixupTask@prv_fixup@@V?$allocator@PEAVFixupTask@prv_fixup@@@std@@@std@@QEAA@XZ 000000014007e630 f i oraexectask:prvFixupHandler.obj
 0001:0007d630       ??1?$vector@PEAVNativeError@prv_fixup@@V?$allocator@PEAVNativeError@prv_fixup@@@std@@@std@@QEAA@XZ 000000014007e630 f i oraexectask:prvFixupResult.obj
 0001:0007d630       ??1?$vector@PEAVNLSError@prv_fixup@@V?$allocator@PEAVNLSError@prv_fixup@@@std@@@std@@QEAA@XZ 000000014007e630 f i oraexectask:prvFixupUtility.obj
 0001:0007d654       ?capacity@?$vector@PEAVXmlNode@prv_fixup@@V?$allocator@PEAVXmlNode@prv_fixup@@@std@@@std@@QEBA_KXZ 000000014007e654 f i oraexectask:prvFixupXmlNode.obj
 0001:0007d654       ?capacity@?$vector@PEAVNLSError@prv_fixup@@V?$allocator@PEAVNLSError@prv_fixup@@@std@@@std@@QEBA_KXZ 000000014007e654 f i oraexectask:prvFixupResult.obj
 0001:0007d654       ?capacity@?$vector@PEBV?$basic_string@DU?$char_traits@D@std@@V?$allocator@D@2@@std@@V?$allocator@PEBV?$basic_string@DU?$char_traits@D@std@@V?$allocator@D@2@@std@@@2@@std@@QEBA_KXZ 000000014007e654 f i oraexectask:sprvFixupUtility.obj
 0001:0007d654       ?capacity@?$vector@PEAVNameValuePair@prv_fixup@@V?$allocator@PEAVNameValuePair@prv_fixup@@@std@@@std@@QEBA_KXZ 000000014007e654 f i oraexectask:prvFixupXmlNode.obj
 0001:0007d654       ?capacity@?$vector@PEAVFixupData@prv_fixup@@V?$allocator@PEAVFixupData@prv_fixup@@@std@@@std@@QEBA_KXZ 000000014007e654 f i oraexectask:prvFixupXmlParser.obj
 0001:0007d654       ?capacity@?$vector@PEAVScript@prv_fixup@@V?$allocator@PEAVScript@prv_fixup@@@std@@@std@@QEBA_KXZ 000000014007e654 f i oraexectask:prvFixupTaskData.obj
 0001:0007d654       ?capacity@?$vector@PEAVNativeError@prv_fixup@@V?$allocator@PEAVNativeError@prv_fixup@@@std@@@std@@QEBA_KXZ 000000014007e654 f i oraexectask:prvFixupResult.obj
 0001:0007d654       ?capacity@?$vector@PEAVFixupTask@prv_fixup@@V?$allocator@PEAVFixupTask@prv_fixup@@@std@@@std@@QEBA_KXZ 000000014007e654 f i oraexectask:prvFixupFactory.obj
 0001:0007d68c       ?end@?$vector@PEAVXmlNode@prv_fixup@@V?$allocator@PEAVXmlNode@prv_fixup@@@std@@@std@@QEBA?AV?$_Vector_const_iterator@V?$_Vector_val@U?$_Simple_types@PEAVXmlNode@prv_fixup@@@std@@@std@@@2@XZ 000000014007e68c f i oraexectask:prvFixupXmlNode.obj
 0001:0007d68c       ?end@?$vector@PEAVNativeError@prv_fixup@@V?$allocator@PEAVNativeError@prv_fixup@@@std@@@std@@QEBA?AV?$_Vector_const_iterator@V?$_Vector_val@U?$_Simple_types@PEAVNativeError@prv_fixup@@@std@@@std@@@2@XZ 000000014007e68c f i oraexectask:prvFixupResult.obj
 0001:0007d68c       ?end@?$vector@PEAVNameValuePair@prv_fixup@@V?$allocator@PEAVNameValuePair@prv_fixup@@@std@@@std@@QEBA?AV?$_Vector_const_iterator@V?$_Vector_val@U?$_Simple_types@PEAVNameValuePair@prv_fixup@@@std@@@std@@@2@XZ 000000014007e68c f i oraexectask:prvFixupXmlNode.obj
 0001:0007d68c       ?end@?$vector@PEBV?$basic_string@DU?$char_traits@D@std@@V?$allocator@D@2@@std@@V?$allocator@PEBV?$basic_string@DU?$char_traits@D@std@@V?$allocator@D@2@@std@@@2@@std@@QEBA?AV?$_Vector_const_iterator@V?$_Vector_val@U?$_Simple_types@PEBV?$basic_string@DU?$char_traits@D@std@@V?$allocator@D@2@@std@@@std@@@std@@@2@XZ 000000014007e68c f i oraexectask:sprvFixupUtility.obj
 0001:0007d68c       ?end@?$vector@PEAVScript@prv_fixup@@V?$allocator@PEAVScript@prv_fixup@@@std@@@std@@QEBA?AV?$_Vector_const_iterator@V?$_Vector_val@U?$_Simple_types@PEAVScript@prv_fixup@@@std@@@std@@@2@XZ 000000014007e68c f i oraexectask:prvFixupTaskData.obj
 0001:0007d68c       ?end@?$vector@PEAVNLSError@prv_fixup@@V?$allocator@PEAVNLSError@prv_fixup@@@std@@@std@@QEBA?AV?$_Vector_const_iterator@V?$_Vector_val@U?$_Simple_types@PEAVNLSError@prv_fixup@@@std@@@std@@@2@XZ 000000014007e68c f i oraexectask:prvFixupResult.obj
 0001:0007d68c       ?end@?$vector@V?$basic_string@DU?$char_traits@D@std@@V?$allocator@D@2@@std@@V?$allocator@V?$basic_string@DU?$char_traits@D@std@@V?$allocator@D@2@@std@@@2@@std@@QEBA?AV?$_Vector_const_iterator@V?$_Vector_val@U?$_Simple_types@V?$basic_string@DU?$char_traits@D@std@@V?$allocator@D@2@@std@@@std@@@std@@@2@XZ 000000014007e68c f i oraexectask:prvFixupUtility.obj
 0001:0007d68c       ?end@?$vector@PEAVFixupTask@prv_fixup@@V?$allocator@PEAVFixupTask@prv_fixup@@@std@@@std@@QEBA?AV?$_Vector_const_iterator@V?$_Vector_val@U?$_Simple_types@PEAVFixupTask@prv_fixup@@@std@@@std@@@2@XZ 000000014007e68c f i oraexectask:prvFixupFactory.obj
 0001:0007d68c       ?end@?$vector@PEAVFixupData@prv_fixup@@V?$allocator@PEAVFixupData@prv_fixup@@@std@@@std@@QEBA?AV?$_Vector_const_iterator@V?$_Vector_val@U?$_Simple_types@PEAVFixupData@prv_fixup@@@std@@@std@@@2@XZ 000000014007e68c f i oraexectask:prvFixupTask.obj
 0001:0007d6d8       ?max_size@?$vector@PEAVNameValuePair@prv_fixup@@V?$allocator@PEAVNameValuePair@prv_fixup@@@std@@@std@@QEBA_KXZ 000000014007e6d8 f i oraexectask:prvFixupXmlNode.obj
 0001:0007d6d8       ?max_size@?$vector@PEAVScript@prv_fixup@@V?$allocator@PEAVScript@prv_fixup@@@std@@@std@@QEBA_KXZ 000000014007e6d8 f i oraexectask:prvFixupTaskData.obj
 0001:0007d6d8       ?max_size@?$vector@PEBV?$basic_string@DU?$char_traits@D@std@@V?$allocator@D@2@@std@@V?$allocator@PEBV?$basic_string@DU?$char_traits@D@std@@V?$allocator@D@2@@std@@@2@@std@@QEBA_KXZ 000000014007e6d8 f i oraexectask:sprvFixupUtility.obj
 0001:0007d6d8       ?max_size@?$vector@PEAVNativeError@prv_fixup@@V?$allocator@PEAVNativeError@prv_fixup@@@std@@@std@@QEBA_KXZ 000000014007e6d8 f i oraexectask:prvFixupResult.obj
 0001:0007d6d8       ?max_size@?$vector@PEAVNLSError@prv_fixup@@V?$allocator@PEAVNLSError@prv_fixup@@@std@@@std@@QEBA_KXZ 000000014007e6d8 f i oraexectask:prvFixupResult.obj
 0001:0007d6d8       ?max_size@?$vector@PEAVXmlNode@prv_fixup@@V?$allocator@PEAVXmlNode@prv_fixup@@@std@@@std@@QEBA_KXZ 000000014007e6d8 f i oraexectask:prvFixupXmlNode.obj
 0001:0007d6d8       ?max_size@?$vector@PEAVFixupData@prv_fixup@@V?$allocator@PEAVFixupData@prv_fixup@@@std@@@std@@QEBA_KXZ 000000014007e6d8 f i oraexectask:prvFixupXmlParser.obj
 0001:0007d6d8       ?max_size@?$vector@PEAVFixupTask@prv_fixup@@V?$allocator@PEAVFixupTask@prv_fixup@@@std@@@std@@QEBA_KXZ 000000014007e6d8 f i oraexectask:prvFixupFactory.obj
 0001:0007d720       ?push_back@?$vector@PEAVNativeError@prv_fixup@@V?$allocator@PEAVNativeError@prv_fixup@@@std@@@std@@QEAAXAEBQEAVNativeError@prv_fixup@@@Z 000000014007e720 f i oraexectask:prvFixupResult.obj
 0001:0007d8e0       ?_Grow_to@?$vector@PEAVXmlNode@prv_fixup@@V?$allocator@PEAVXmlNode@prv_fixup@@@std@@@std@@IEBA_K_K@Z 000000014007e8e0 f i oraexectask:prvFixupXmlNode.obj
 0001:0007d8e0       ?_Grow_to@?$vector@PEAVNameValuePair@prv_fixup@@V?$allocator@PEAVNameValuePair@prv_fixup@@@std@@@std@@IEBA_K_K@Z 000000014007e8e0 f i oraexectask:prvFixupXmlNode.obj
 0001:0007d8e0       ?_Grow_to@?$vector@PEAVFixupData@prv_fixup@@V?$allocator@PEAVFixupData@prv_fixup@@@std@@@std@@IEBA_K_K@Z 000000014007e8e0 f i oraexectask:prvFixupXmlParser.obj
 0001:0007d8e0       ?_Grow_to@?$vector@PEAVNativeError@prv_fixup@@V?$allocator@PEAVNativeError@prv_fixup@@@std@@@std@@IEBA_K_K@Z 000000014007e8e0 f i oraexectask:prvFixupResult.obj
 0001:0007d8e0       ?_Grow_to@?$vector@PEAVScript@prv_fixup@@V?$allocator@PEAVScript@prv_fixup@@@std@@@std@@IEBA_K_K@Z 000000014007e8e0 f i oraexectask:prvFixupTaskData.obj
 0001:0007d8e0       ?_Grow_to@?$vector@PEAVNLSError@prv_fixup@@V?$allocator@PEAVNLSError@prv_fixup@@@std@@@std@@IEBA_K_K@Z 000000014007e8e0 f i oraexectask:prvFixupResult.obj
 0001:0007d8e0       ?_Grow_to@?$vector@PEBV?$basic_string@DU?$char_traits@D@std@@V?$allocator@D@2@@std@@V?$allocator@PEBV?$basic_string@DU?$char_traits@D@std@@V?$allocator@D@2@@std@@@2@@std@@IEBA_K_K@Z 000000014007e8e0 f i oraexectask:sprvFixupUtility.obj
 0001:0007d8e0       ?_Grow_to@?$vector@PEAVFixupTask@prv_fixup@@V?$allocator@PEAVFixupTask@prv_fixup@@@std@@@std@@IEBA_K_K@Z 000000014007e8e0 f i oraexectask:prvFixupFactory.obj
 0001:0007d97c       ?_Reallocate@?$vector@PEAVNativeError@prv_fixup@@V?$allocator@PEAVNativeError@prv_fixup@@@std@@@std@@IEAAX_K@Z 000000014007e97c f i oraexectask:prvFixupResult.obj
 0001:0007dbb8       ?_Reserve@?$vector@PEAVNativeError@prv_fixup@@V?$allocator@PEAVNativeError@prv_fixup@@@std@@@std@@IEAAX_K@Z 000000014007ebb8 f i oraexectask:prvFixupResult.obj
 0001:0007dc70       ??0NativeError@prv_fixup@@QEAA@PEBV?$basic_string@DU?$char_traits@D@std@@V?$allocator@D@2@@std@@0AEBH@Z 000000014007ec70 f i oraexectask:prvFixupResult.obj
 0001:0007dea0       ??$_Uninitialized_copy@V?$_Vector_const_iterator@V?$_Vector_val@U?$_Simple_types@PEAVNativeError@prv_fixup@@@std@@@std@@@std@@PEAPEAVNativeError@prv_fixup@@U?$_Wrap_alloc@V?$allocator@PEAVNativeError@prv_fixup@@@std@@@2@@std@@YAPEAPEAVNativeError@prv_fixup@@V?$_Vector_const_iterator@V?$_Vector_val@U?$_Simple_types@PEAVNativeError@prv_fixup@@@std@@@std@@@0@0PEAPEAV12@AEAU?$_Wrap_alloc@V?$allocator@PEAVNativeError@prv_fixup@@@std@@@0@@Z 000000014007eea0 f i oraexectask:prvFixupResult.obj
 0001:0007dea0       ??$_Uninitialized_copy@V?$_Vector_const_iterator@V?$_Vector_val@U?$_Simple_types@PEAVFixupTask@prv_fixup@@@std@@@std@@@std@@PEAPEAVFixupTask@prv_fixup@@U?$_Wrap_alloc@V?$allocator@PEAVFixupTask@prv_fixup@@@std@@@2@@std@@YAPEAPEAVFixupTask@prv_fixup@@V?$_Vector_const_iterator@V?$_Vector_val@U?$_Simple_types@PEAVFixupTask@prv_fixup@@@std@@@std@@@0@0PEAPEAV12@AEAU?$_Wrap_alloc@V?$allocator@PEAVFixupTask@prv_fixup@@@std@@@0@@Z 000000014007eea0 f i oraexectask:prvFixupFactory.obj
 0001:0007dea0       ??$_Uninitialized_copy@V?$_Vector_const_iterator@V?$_Vector_val@U?$_Simple_types@PEBV?$basic_string@DU?$char_traits@D@std@@V?$allocator@D@2@@std@@@std@@@std@@@std@@PEAPEBV?$basic_string@DU?$char_traits@D@std@@V?$allocator@D@2@@2@U?$_Wrap_alloc@V?$allocator@PEBV?$basic_string@DU?$char_traits@D@std@@V?$allocator@D@2@@std@@@std@@@2@@std@@YAPEAPEBV?$basic_string@DU?$char_traits@D@std@@V?$allocator@D@2@@0@V?$_Vector_const_iterator@V?$_Vector_val@U?$_Simple_types@PEBV?$basic_string@DU?$char_traits@D@std@@V?$allocator@D@2@@std@@@std@@@std@@@0@0PEAPEBV10@AEAU?$_Wrap_alloc@V?$allocator@PEBV?$basic_string@DU?$char_traits@D@std@@V?$allocator@D@2@@std@@@std@@@0@@Z 000000014007eea0 f i oraexectask:sprvFixupUtility.obj
 0001:0007dea0       ??$_Uninitialized_copy@V?$_Vector_const_iterator@V?$_Vector_val@U?$_Simple_types@PEAVNameValuePair@prv_fixup@@@std@@@std@@@std@@PEAPEAVNameValuePair@prv_fixup@@U?$_Wrap_alloc@V?$allocator@PEAVNameValuePair@prv_fixup@@@std@@@2@@std@@YAPEAPEAVNameValuePair@prv_fixup@@V?$_Vector_const_iterator@V?$_Vector_val@U?$_Simple_types@PEAVNameValuePair@prv_fixup@@@std@@@std@@@0@0PEAPEAV12@AEAU?$_Wrap_alloc@V?$allocator@PEAVNameValuePair@prv_fixup@@@std@@@0@@Z 000000014007eea0 f i oraexectask:prvFixupXmlNode.obj
 0001:0007dea0       ??$_Uninitialized_copy@V?$_Vector_const_iterator@V?$_Vector_val@U?$_Simple_types@PEAVNLSError@prv_fixup@@@std@@@std@@@std@@PEAPEAVNLSError@prv_fixup@@U?$_Wrap_alloc@V?$allocator@PEAVNLSError@prv_fixup@@@std@@@2@@std@@YAPEAPEAVNLSError@prv_fixup@@V?$_Vector_const_iterator@V?$_Vector_val@U?$_Simple_types@PEAVNLSError@prv_fixup@@@std@@@std@@@0@0PEAPEAV12@AEAU?$_Wrap_alloc@V?$allocator@PEAVNLSError@prv_fixup@@@std@@@0@@Z 000000014007eea0 f i oraexectask:prvFixupResult.obj
 0001:0007dea0       ??$_Uninitialized_copy@V?$_Vector_const_iterator@V?$_Vector_val@U?$_Simple_types@PEAVXmlNode@prv_fixup@@@std@@@std@@@std@@PEAPEAVXmlNode@prv_fixup@@U?$_Wrap_alloc@V?$allocator@PEAVXmlNode@prv_fixup@@@std@@@2@@std@@YAPEAPEAVXmlNode@prv_fixup@@V?$_Vector_const_iterator@V?$_Vector_val@U?$_Simple_types@PEAVXmlNode@prv_fixup@@@std@@@std@@@0@0PEAPEAV12@AEAU?$_Wrap_alloc@V?$allocator@PEAVXmlNode@prv_fixup@@@std@@@0@@Z 000000014007eea0 f i oraexectask:prvFixupXmlNode.obj
 0001:0007dea0       ??$_Uninitialized_copy@V?$_Vector_const_iterator@V?$_Vector_val@U?$_Simple_types@PEAVScript@prv_fixup@@@std@@@std@@@std@@PEAPEAVScript@prv_fixup@@U?$_Wrap_alloc@V?$allocator@PEAVScript@prv_fixup@@@std@@@2@@std@@YAPEAPEAVScript@prv_fixup@@V?$_Vector_const_iterator@V?$_Vector_val@U?$_Simple_types@PEAVScript@prv_fixup@@@std@@@std@@@0@0PEAPEAV12@AEAU?$_Wrap_alloc@V?$allocator@PEAVScript@prv_fixup@@@std@@@0@@Z 000000014007eea0 f i oraexectask:prvFixupTaskData.obj
 0001:0007dea0       ??$_Uninitialized_copy@V?$_Vector_const_iterator@V?$_Vector_val@U?$_Simple_types@PEAVFixupData@prv_fixup@@@std@@@std@@@std@@PEAPEAVFixupData@prv_fixup@@U?$_Wrap_alloc@V?$allocator@PEAVFixupData@prv_fixup@@@std@@@2@@std@@YAPEAPEAVFixupData@prv_fixup@@V?$_Vector_const_iterator@V?$_Vector_val@U?$_Simple_types@PEAVFixupData@prv_fixup@@@std@@@std@@@0@0PEAPEAV12@AEAU?$_Wrap_alloc@V?$allocator@PEAVFixupData@prv_fixup@@@std@@@0@@Z 000000014007eea0 f i oraexectask:prvFixupTask.obj
 0001:0007df68       ??0Result@prv_fixup@@QEAA@XZ 000000014007ef68 f   oraexectask:prvFixupResult.obj
 0001:0007dfb6       ??1Result@prv_fixup@@QEAA@XZ 000000014007efb6 f   oraexectask:prvFixupResult.obj
 0001:0007e0c2       ?setOutput@Result@prv_fixup@@QEAAXPEBV?$basic_string@DU?$char_traits@D@std@@V?$allocator@D@2@@std@@@Z 000000014007f0c2 f   oraexectask:prvFixupResult.obj
 0001:0007e1be       ?setStatus@Result@prv_fixup@@QEAAXW4_STATUS@2@@Z 000000014007f1be f   oraexectask:prvFixupResult.obj
 0001:0007e1e6       ?updateStatus@Result@prv_fixup@@QEAAXW4_STATUS@2@@Z 000000014007f1e6 f   oraexectask:prvFixupResult.obj
 0001:0007e23a       ?addError@Result@prv_fixup@@QEAAXPEAVNLSError@2@@Z 000000014007f23a f   oraexectask:prvFixupResult.obj
 0001:0007e26e       ?setNativeErrorDetails@Result@prv_fixup@@QEAAXPEBV?$basic_string@DU?$char_traits@D@std@@V?$allocator@D@2@@std@@AEBH0@Z 000000014007f26e f   oraexectask:prvFixupResult.obj
 0001:0007e3cc       ?getNativeErrorList@Result@prv_fixup@@QEBA?AV?$vector@PEAVNativeError@prv_fixup@@V?$allocator@PEAVNativeError@prv_fixup@@@std@@@std@@XZ 000000014007f3cc f   oraexectask:prvFixupResult.obj
 0001:0007e408       ?getStatus@Result@prv_fixup@@QEBA?AW4_STATUS@2@XZ 000000014007f408 f   oraexectask:prvFixupResult.obj
 0001:0007e426       ?getOutput@Result@prv_fixup@@QEBAPEBV?$basic_string@DU?$char_traits@D@std@@V?$allocator@D@2@@std@@XZ 000000014007f426 f   oraexectask:prvFixupResult.obj
 0001:0007e446       ?getErrorList@Result@prv_fixup@@QEBA?AV?$vector@PEAVNLSError@prv_fixup@@V?$allocator@PEAVNLSError@prv_fixup@@@std@@@std@@XZ 000000014007f446 f   oraexectask:prvFixupResult.obj
 0001:0007e482       ?getNativeErrorMsgsString@Result@prv_fixup@@QEBAPEBV?$basic_string@DU?$char_traits@D@std@@V?$allocator@D@2@@std@@XZ 000000014007f482 f   oraexectask:prvFixupResult.obj
 0001:0007e89c       ?hasNativeErrors@Result@prv_fixup@@QEBA_NXZ 000000014007f89c f   oraexectask:prvFixupResult.obj
 0001:0007e8e0       ?hasErrors@Result@prv_fixup@@QEBA_NXZ 000000014007f8e0 f   oraexectask:prvFixupResult.obj
 0001:0007e924       ?isSuccessFul@Result@prv_fixup@@QEBA_NXZ 000000014007f924 f   oraexectask:prvFixupResult.obj
 0001:0007e954       ?isFailed@Result@prv_fixup@@QEBA_NXZ 000000014007f954 f   oraexectask:prvFixupResult.obj
 0001:0007e984       ?isWarning@Result@prv_fixup@@QEBA_NXZ 000000014007f984 f   oraexectask:prvFixupResult.obj
 0001:0007e9b0       ?isError@Result@prv_fixup@@QEBA_NXZ 000000014007f9b0 f   oraexectask:prvFixupResult.obj
 0001:0007e9e0       ?isUnknown@Result@prv_fixup@@QEBA_NXZ 000000014007f9e0 f   oraexectask:prvFixupResult.obj
 0001:0007ea10       ?clear@Result@prv_fixup@@QEAAXXZ 000000014007fa10 f   oraexectask:prvFixupResult.obj
 0001:0007ef38       ??_GNameValuePair@prv_fixup@@UEAAPEAXI@Z 000000014007ff38 f i oraexectask:prvFixupXmlNode.obj
 0001:0007ef38       ??_ENameValuePair@prv_fixup@@UEAAPEAXI@Z 000000014007ff38 f i oraexectask:prvFixupXmlNode.obj
 0001:0007ef7c       ??_EChildNotFoundException@prv_fixup@@UEAAPEAXI@Z 000000014007ff7c f i oraexectask:prvFixupXmlNode.obj
 0001:0007ef7c       ??_GChildNotFoundException@prv_fixup@@UEAAPEAXI@Z 000000014007ff7c f i oraexectask:prvFixupXmlNode.obj
 0001:0007efc0       ??$construct@PEAVXmlNode@prv_fixup@@AEAPEAV12@@?$allocator@PEAVXmlNode@prv_fixup@@@std@@QEAAXPEAPEAVXmlNode@prv_fixup@@AEAPEAV23@@Z 000000014007ffc0 f i oraexectask:prvFixupXmlNode.obj
 0001:0007f0ac       ??$construct@PEAVXmlNode@prv_fixup@@AEAPEAV12@@?$allocator_traits@V?$allocator@PEAVXmlNode@prv_fixup@@@std@@@std@@SAXAEAV?$allocator@PEAVXmlNode@prv_fixup@@@1@PEAPEAVXmlNode@prv_fixup@@AEAPEAV34@@Z 00000001400800ac f i oraexectask:prvFixupXmlNode.obj
 0001:0007f104       ??$construct@PEAVXmlNode@prv_fixup@@AEAPEAV12@@?$_Wrap_alloc@V?$allocator@PEAVXmlNode@prv_fixup@@@std@@@std@@QEAAXPEAPEAVXmlNode@prv_fixup@@AEAPEAV23@@Z 0000000140080104 f i oraexectask:prvFixupXmlNode.obj
 0001:0007f15c       ??0?$vector@PEAVXmlNode@prv_fixup@@V?$allocator@PEAVXmlNode@prv_fixup@@@std@@@std@@QEAA@AEBV01@@Z 000000014008015c f i oraexectask:prvFixupXmlNode.obj
 0001:0007f2ec       ?push_back@?$vector@PEAVXmlNode@prv_fixup@@V?$allocator@PEAVXmlNode@prv_fixup@@@std@@@std@@QEAAXAEBQEAVXmlNode@prv_fixup@@@Z 00000001400802ec f i oraexectask:prvFixupXmlNode.obj
 0001:0007f4ac       ?_Reallocate@?$vector@PEAVXmlNode@prv_fixup@@V?$allocator@PEAVXmlNode@prv_fixup@@@std@@@std@@IEAAX_K@Z 00000001400804ac f i oraexectask:prvFixupXmlNode.obj
 0001:0007f6e8       ?_Reserve@?$vector@PEAVXmlNode@prv_fixup@@V?$allocator@PEAVXmlNode@prv_fixup@@@std@@@std@@IEAAX_K@Z 00000001400806e8 f i oraexectask:prvFixupXmlNode.obj
 0001:0007f7a0       ??$construct@PEAVNameValuePair@prv_fixup@@AEAPEAV12@@?$allocator@PEAVNameValuePair@prv_fixup@@@std@@QEAAXPEAPEAVNameValuePair@prv_fixup@@AEAPEAV23@@Z 00000001400807a0 f i oraexectask:prvFixupXmlNode.obj
 0001:0007f88c       ?select_on_container_copy_construction@?$allocator_traits@V?$allocator@PEAVXmlNode@prv_fixup@@@std@@@std@@SA?AV?$allocator@PEAVXmlNode@prv_fixup@@@2@AEBV32@@Z 000000014008088c f i oraexectask:prvFixupXmlNode.obj
 0001:0007f88c       ?select_on_container_copy_construction@?$allocator_traits@V?$allocator@PEAVFixupData@prv_fixup@@@std@@@std@@SA?AV?$allocator@PEAVFixupData@prv_fixup@@@2@AEBV32@@Z 000000014008088c f i oraexectask:prvFixupTask.obj
 0001:0007f88c       ?select_on_container_copy_construction@?$allocator_traits@V?$allocator@PEAVNativeError@prv_fixup@@@std@@@std@@SA?AV?$allocator@PEAVNativeError@prv_fixup@@@2@AEBV32@@Z 000000014008088c f i oraexectask:prvFixupResult.obj
 0001:0007f88c       ?select_on_container_copy_construction@?$allocator_traits@V?$allocator@PEBV?$basic_string@DU?$char_traits@D@std@@V?$allocator@D@2@@std@@@std@@@std@@SA?AV?$allocator@PEBV?$basic_string@DU?$char_traits@D@std@@V?$allocator@D@2@@std@@@2@AEBV32@@Z 000000014008088c f i oraexectask:sprvFixupUtility.obj
 0001:0007f88c       ?select_on_container_copy_construction@?$allocator_traits@V?$allocator@V?$basic_string@DU?$char_traits@D@std@@V?$allocator@D@2@@std@@@std@@@std@@SA?AV?$allocator@V?$basic_string@DU?$char_traits@D@std@@V?$allocator@D@2@@std@@@2@AEBV32@@Z 000000014008088c f i oraexectask:prvFixupUtility.obj
 0001:0007f88c       ?select_on_container_copy_construction@?$allocator_traits@V?$allocator@PEAVScript@prv_fixup@@@std@@@std@@SA?AV?$allocator@PEAVScript@prv_fixup@@@2@AEBV32@@Z 000000014008088c f i oraexectask:prvFixupTaskData.obj
 0001:0007f88c       ?select_on_container_copy_construction@?$allocator_traits@V?$allocator@PEAVFixupTask@prv_fixup@@@std@@@std@@SA?AV?$allocator@PEAVFixupTask@prv_fixup@@@2@AEBV32@@Z 000000014008088c f i oraexectask:prvFixupFactory.obj
 0001:0007f88c       ?select_on_container_copy_construction@?$allocator_traits@V?$allocator@PEAVNameValuePair@prv_fixup@@@std@@@std@@SA?AV?$allocator@PEAVNameValuePair@prv_fixup@@@2@AEBV32@@Z 000000014008088c f i oraexectask:prvFixupXmlNode.obj
 0001:0007f88c       ?select_on_container_copy_construction@?$allocator_traits@V?$allocator@PEAVNLSError@prv_fixup@@@std@@@std@@SA?AV?$allocator@PEAVNLSError@prv_fixup@@@2@AEBV32@@Z 000000014008088c f i oraexectask:prvFixupResult.obj
 0001:0007f88c       ?select_on_container_copy_construction@?$allocator_traits@V?$allocator@D@std@@@std@@SA?AV?$allocator@D@2@AEBV32@@Z 000000014008088c f i oraexectask:prvFixupConstants.obj
 0001:0007f8c4       ??$construct@PEAVNameValuePair@prv_fixup@@AEAPEAV12@@?$allocator_traits@V?$allocator@PEAVNameValuePair@prv_fixup@@@std@@@std@@SAXAEAV?$allocator@PEAVNameValuePair@prv_fixup@@@1@PEAPEAVNameValuePair@prv_fixup@@AEAPEAV34@@Z 00000001400808c4 f i oraexectask:prvFixupXmlNode.obj
 0001:0007f91c       ??$construct@PEAVNameValuePair@prv_fixup@@AEAPEAV12@@?$_Wrap_alloc@V?$allocator@PEAVNameValuePair@prv_fixup@@@std@@@std@@QEAAXPEAPEAVNameValuePair@prv_fixup@@AEAPEAV23@@Z 000000014008091c f i oraexectask:prvFixupXmlNode.obj
 0001:0007f974       ??0?$_Vector_val@U?$_Simple_types@PEBV?$basic_string@DU?$char_traits@D@std@@V?$allocator@D@2@@std@@@std@@@std@@QEAA@XZ 0000000140080974 f i oraexectask:sprvFixupUtility.obj
 0001:0007f974       ??0?$_Vector_val@U?$_Simple_types@PEAVFixupData@prv_fixup@@@std@@@std@@QEAA@XZ 0000000140080974 f i oraexectask:prvFixupXmlParser.obj
 0001:0007f974       ??0?$_Vector_val@U?$_Simple_types@PEAVFixupTask@prv_fixup@@@std@@@std@@QEAA@XZ 0000000140080974 f i oraexectask:prvFixupFactory.obj
 0001:0007f974       ??0?$_Vector_val@U?$_Simple_types@PEAVXmlNode@prv_fixup@@@std@@@std@@QEAA@XZ 0000000140080974 f i oraexectask:prvFixupXmlNode.obj
 0001:0007f974       ??0?$_Vector_val@U?$_Simple_types@PEAVNativeError@prv_fixup@@@std@@@std@@QEAA@XZ 0000000140080974 f i oraexectask:prvFixupResult.obj
 0001:0007f974       ??0?$_Vector_val@U?$_Simple_types@PEAVNameValuePair@prv_fixup@@@std@@@std@@QEAA@XZ 0000000140080974 f i oraexectask:prvFixupXmlNode.obj
 0001:0007f974       ??0?$_Vector_val@U?$_Simple_types@PEAVScript@prv_fixup@@@std@@@std@@QEAA@XZ 0000000140080974 f i oraexectask:prvFixupTaskData.obj
 0001:0007f974       ??0?$_Vector_val@U?$_Simple_types@PEAVNLSError@prv_fixup@@@std@@@std@@QEAA@XZ 0000000140080974 f i oraexectask:prvFixupResult.obj
 0001:0007f974       ??0?$_Vector_val@U?$_Simple_types@V?$basic_string@DU?$char_traits@D@std@@V?$allocator@D@2@@std@@@std@@@std@@QEAA@XZ 0000000140080974 f i oraexectask:prvFixupUtility.obj
 0001:0007f9b4       ??0?$_Vector_alloc@$0A@U?$_Vec_base_types@PEAVFixupTask@prv_fixup@@V?$allocator@PEAVFixupTask@prv_fixup@@@std@@@std@@@std@@QEAA@AEBV?$allocator@PEAVFixupTask@prv_fixup@@@1@@Z 00000001400809b4 f i oraexectask:prvFixupFactory.obj
 0001:0007f9b4       ??0?$_Vector_alloc@$0A@U?$_Vec_base_types@PEAVNameValuePair@prv_fixup@@V?$allocator@PEAVNameValuePair@prv_fixup@@@std@@@std@@@std@@QEAA@AEBV?$allocator@PEAVNameValuePair@prv_fixup@@@1@@Z 00000001400809b4 f i oraexectask:prvFixupXmlNode.obj
 0001:0007f9b4       ??0?$_Vector_alloc@$0A@U?$_Vec_base_types@PEAVXmlNode@prv_fixup@@V?$allocator@PEAVXmlNode@prv_fixup@@@std@@@std@@@std@@QEAA@AEBV?$allocator@PEAVXmlNode@prv_fixup@@@1@@Z 00000001400809b4 f i oraexectask:prvFixupXmlNode.obj
 0001:0007f9b4       ??0?$_Vector_alloc@$0A@U?$_Vec_base_types@V?$basic_string@DU?$char_traits@D@std@@V?$allocator@D@2@@std@@V?$allocator@V?$basic_string@DU?$char_traits@D@std@@V?$allocator@D@2@@std@@@2@@std@@@std@@QEAA@AEBV?$allocator@V?$basic_string@DU?$char_traits@D@std@@V?$allocator@D@2@@std@@@1@@Z 00000001400809b4 f i oraexectask:prvFixupUtility.obj
 0001:0007f9b4       ??0?$_Vector_alloc@$0A@U?$_Vec_base_types@PEAVNativeError@prv_fixup@@V?$allocator@PEAVNativeError@prv_fixup@@@std@@@std@@@std@@QEAA@AEBV?$allocator@PEAVNativeError@prv_fixup@@@1@@Z 00000001400809b4 f i oraexectask:prvFixupResult.obj
 0001:0007f9b4       ??0?$_Vector_alloc@$0A@U?$_Vec_base_types@PEAVFixupData@prv_fixup@@V?$allocator@PEAVFixupData@prv_fixup@@@std@@@std@@@std@@QEAA@AEBV?$allocator@PEAVFixupData@prv_fixup@@@1@@Z 00000001400809b4 f i oraexectask:prvFixupXmlParser.obj
 0001:0007f9b4       ??0?$_Vector_alloc@$0A@U?$_Vec_base_types@PEAVNLSError@prv_fixup@@V?$allocator@PEAVNLSError@prv_fixup@@@std@@@std@@@std@@QEAA@AEBV?$allocator@PEAVNLSError@prv_fixup@@@1@@Z 00000001400809b4 f i oraexectask:prvFixupResult.obj
 0001:0007f9b4       ??0?$_Vector_alloc@$0A@U?$_Vec_base_types@PEBV?$basic_string@DU?$char_traits@D@std@@V?$allocator@D@2@@std@@V?$allocator@PEBV?$basic_string@DU?$char_traits@D@std@@V?$allocator@D@2@@std@@@2@@std@@@std@@QEAA@AEBV?$allocator@PEBV?$basic_string@DU?$char_traits@D@std@@V?$allocator@D@2@@std@@@1@@Z 00000001400809b4 f i oraexectask:sprvFixupUtility.obj
 0001:0007f9b4       ??0?$_Vector_alloc@$0A@U?$_Vec_base_types@PEAVScript@prv_fixup@@V?$allocator@PEAVScript@prv_fixup@@@std@@@std@@@std@@QEAA@AEBV?$allocator@PEAVScript@prv_fixup@@@1@@Z 00000001400809b4 f i oraexectask:prvFixupTaskData.obj
 0001:0007f9e8       ??0?$vector@PEAVNameValuePair@prv_fixup@@V?$allocator@PEAVNameValuePair@prv_fixup@@@std@@@std@@QEAA@AEBV01@@Z 00000001400809e8 f i oraexectask:prvFixupXmlNode.obj
 0001:0007fb78       ?begin@?$vector@PEBV?$basic_string@DU?$char_traits@D@std@@V?$allocator@D@2@@std@@V?$allocator@PEBV?$basic_string@DU?$char_traits@D@std@@V?$allocator@D@2@@std@@@2@@std@@QEBA?AV?$_Vector_const_iterator@V?$_Vector_val@U?$_Simple_types@PEBV?$basic_string@DU?$char_traits@D@std@@V?$allocator@D@2@@std@@@std@@@std@@@2@XZ 0000000140080b78 f i oraexectask:sprvFixupUtility.obj
 0001:0007fb78       ?begin@?$vector@V?$basic_string@DU?$char_traits@D@std@@V?$allocator@D@2@@std@@V?$allocator@V?$basic_string@DU?$char_traits@D@std@@V?$allocator@D@2@@std@@@2@@std@@QEBA?AV?$_Vector_const_iterator@V?$_Vector_val@U?$_Simple_types@V?$basic_string@DU?$char_traits@D@std@@V?$allocator@D@2@@std@@@std@@@std@@@2@XZ 0000000140080b78 f i oraexectask:prvFixupUtility.obj
 0001:0007fb78       ?begin@?$vector@PEAVNativeError@prv_fixup@@V?$allocator@PEAVNativeError@prv_fixup@@@std@@@std@@QEBA?AV?$_Vector_const_iterator@V?$_Vector_val@U?$_Simple_types@PEAVNativeError@prv_fixup@@@std@@@std@@@2@XZ 0000000140080b78 f i oraexectask:prvFixupResult.obj
 0001:0007fb78       ?begin@?$vector@PEAVFixupTask@prv_fixup@@V?$allocator@PEAVFixupTask@prv_fixup@@@std@@@std@@QEBA?AV?$_Vector_const_iterator@V?$_Vector_val@U?$_Simple_types@PEAVFixupTask@prv_fixup@@@std@@@std@@@2@XZ 0000000140080b78 f i oraexectask:prvFixupFactory.obj
 0001:0007fb78       ?begin@?$vector@PEAVFixupData@prv_fixup@@V?$allocator@PEAVFixupData@prv_fixup@@@std@@@std@@QEBA?AV?$_Vector_const_iterator@V?$_Vector_val@U?$_Simple_types@PEAVFixupData@prv_fixup@@@std@@@std@@@2@XZ 0000000140080b78 f i oraexectask:prvFixupTask.obj
 0001:0007fb78       ?begin@?$vector@PEAVNameValuePair@prv_fixup@@V?$allocator@PEAVNameValuePair@prv_fixup@@@std@@@std@@QEBA?AV?$_Vector_const_iterator@V?$_Vector_val@U?$_Simple_types@PEAVNameValuePair@prv_fixup@@@std@@@std@@@2@XZ 0000000140080b78 f i oraexectask:prvFixupXmlNode.obj
 0001:0007fb78       ?begin@?$vector@PEAVNLSError@prv_fixup@@V?$allocator@PEAVNLSError@prv_fixup@@@std@@@std@@QEBA?AV?$_Vector_const_iterator@V?$_Vector_val@U?$_Simple_types@PEAVNLSError@prv_fixup@@@std@@@std@@@2@XZ 0000000140080b78 f i oraexectask:prvFixupResult.obj
 0001:0007fb78       ?begin@?$vector@PEAVScript@prv_fixup@@V?$allocator@PEAVScript@prv_fixup@@@std@@@std@@QEBA?AV?$_Vector_const_iterator@V?$_Vector_val@U?$_Simple_types@PEAVScript@prv_fixup@@@std@@@std@@@2@XZ 0000000140080b78 f i oraexectask:prvFixupTaskData.obj
 0001:0007fb78       ?begin@?$vector@PEAVXmlNode@prv_fixup@@V?$allocator@PEAVXmlNode@prv_fixup@@@std@@@std@@QEBA?AV?$_Vector_const_iterator@V?$_Vector_val@U?$_Simple_types@PEAVXmlNode@prv_fixup@@@std@@@std@@@2@XZ 0000000140080b78 f i oraexectask:prvFixupXmlNode.obj
 0001:0007fbc4       ?push_back@?$vector@PEAVNameValuePair@prv_fixup@@V?$allocator@PEAVNameValuePair@prv_fixup@@@std@@@std@@QEAAXAEBQEAVNameValuePair@prv_fixup@@@Z 0000000140080bc4 f i oraexectask:prvFixupXmlNode.obj
 0001:0007fd84       ?clear@?$vector@PEAVNativeError@prv_fixup@@V?$allocator@PEAVNativeError@prv_fixup@@@std@@@std@@QEAAXXZ 0000000140080d84 f i oraexectask:prvFixupResult.obj
 0001:0007fd84       ?clear@?$vector@PEAVScript@prv_fixup@@V?$allocator@PEAVScript@prv_fixup@@@std@@@std@@QEAAXXZ 0000000140080d84 f i oraexectask:prvFixupTaskData.obj
 0001:0007fd84       ?clear@?$vector@PEAVNLSError@prv_fixup@@V?$allocator@PEAVNLSError@prv_fixup@@@std@@@std@@QEAAXXZ 0000000140080d84 f i oraexectask:prvFixupResult.obj
 0001:0007fd84       ?clear@?$vector@PEAVFixupData@prv_fixup@@V?$allocator@PEAVFixupData@prv_fixup@@@std@@@std@@QEAAXXZ 0000000140080d84 f i oraexectask:prvFixupTask.obj
 0001:0007fd84       ?clear@?$vector@PEAVNameValuePair@prv_fixup@@V?$allocator@PEAVNameValuePair@prv_fixup@@@std@@@std@@QEAAXXZ 0000000140080d84 f i oraexectask:prvFixupXmlNode.obj
 0001:0007fd84       ?clear@?$vector@PEBV?$basic_string@DU?$char_traits@D@std@@V?$allocator@D@2@@std@@V?$allocator@PEBV?$basic_string@DU?$char_traits@D@std@@V?$allocator@D@2@@std@@@2@@std@@QEAAXXZ 0000000140080d84 f i oraexectask:prvFixupTaskData.obj
 0001:0007fd84       ?clear@?$vector@PEAVXmlNode@prv_fixup@@V?$allocator@PEAVXmlNode@prv_fixup@@@std@@@std@@QEAAXXZ 0000000140080d84 f i oraexectask:prvFixupXmlNode.obj
 0001:0007fde4       ?_Reallocate@?$vector@PEAVNameValuePair@prv_fixup@@V?$allocator@PEAVNameValuePair@prv_fixup@@@std@@@std@@IEAAX_K@Z 0000000140080de4 f i oraexectask:prvFixupXmlNode.obj
 0001:00080020       ?_Reserve@?$vector@PEAVNameValuePair@prv_fixup@@V?$allocator@PEAVNameValuePair@prv_fixup@@@std@@@std@@IEAAX_K@Z 0000000140081020 f i oraexectask:prvFixupXmlNode.obj
 0001:000800d8       ??0NameValuePair@prv_fixup@@QEAA@AEBV?$basic_string@DU?$char_traits@D@std@@V?$allocator@D@2@@std@@0@Z 00000001400810d8 f i oraexectask:prvFixupXmlNode.obj
 0001:000802d0       ??1NameValuePair@prv_fixup@@UEAA@XZ 00000001400812d0 f i oraexectask:prvFixupXmlNode.obj
 0001:0008038c       ?isEqual@NameValuePair@prv_fixup@@QEAA_NPEBV12@@Z 000000014008138c f i oraexectask:prvFixupXmlNode.obj
 0001:00080418       ?what@ChildNotFoundException@prv_fixup@@UEBAPEBDXZ 0000000140081418 f i oraexectask:prvFixupXmlNode.obj
 0001:00080438       ??0ChildNotFoundException@prv_fixup@@QEAA@XZ 0000000140081438 f i oraexectask:prvFixupXmlNode.obj
 0001:00080478       ??0ChildNotFoundException@prv_fixup@@QEAA@AEBV01@@Z 0000000140081478 f i oraexectask:prvFixupXmlNode.obj
 0001:000804cc       ??1ChildNotFoundException@prv_fixup@@UEAA@XZ 00000001400814cc f i oraexectask:prvFixupXmlNode.obj
 0001:000804f4       ??0XmlNode@prv_fixup@@QEAA@AEBV?$basic_string@DU?$char_traits@D@std@@V?$allocator@D@2@@std@@W4XmlTagType@1@@Z 00000001400814f4 f   oraexectask:prvFixupXmlNode.obj
 0001:000806bc       ??1XmlNode@prv_fixup@@QEAA@XZ 00000001400816bc f   oraexectask:prvFixupXmlNode.obj
 0001:0008082c       ?setValue@XmlNode@prv_fixup@@QEAAXPEBV?$basic_string@DU?$char_traits@D@std@@V?$allocator@D@2@@std@@@Z 000000014008182c f   oraexectask:prvFixupXmlNode.obj
 0001:00080950       ?addChildNode@XmlNode@prv_fixup@@QEAAXPEAV12@@Z 0000000140081950 f   oraexectask:prvFixupXmlNode.obj
 0001:00080998       ?addAttribute@XmlNode@prv_fixup@@QEAAXAEBV?$basic_string@DU?$char_traits@D@std@@V?$allocator@D@2@@std@@0@Z 0000000140081998 f   oraexectask:prvFixupXmlNode.obj
 0001:00080ac0       ?addAttribute@XmlNode@prv_fixup@@QEAAXPEAVNameValuePair@2@@Z 0000000140081ac0 f   oraexectask:prvFixupXmlNode.obj
 0001:00080afe       ?getNodeName@XmlNode@prv_fixup@@QEBAPEBV?$basic_string@DU?$char_traits@D@std@@V?$allocator@D@2@@std@@XZ 0000000140081afe f   oraexectask:prvFixupXmlNode.obj
 0001:00080b1e       ?getNodeValue@XmlNode@prv_fixup@@QEBAPEBV?$basic_string@DU?$char_traits@D@std@@V?$allocator@D@2@@std@@XZ 0000000140081b1e f   oraexectask:prvFixupXmlNode.obj
 0001:00080b3e       ?getAttributeValue@XmlNode@prv_fixup@@QEBAPEBV?$basic_string@DU?$char_traits@D@std@@V?$allocator@D@2@@std@@AEBV34@@Z 0000000140081b3e f   oraexectask:prvFixupXmlNode.obj
 0001:00080ba8       ?getChildNodes@XmlNode@prv_fixup@@QEBA?AV?$vector@PEAVXmlNode@prv_fixup@@V?$allocator@PEAVXmlNode@prv_fixup@@@std@@@std@@XZ 0000000140081ba8 f   oraexectask:prvFixupXmlNode.obj
 0001:00080be4       ?getChildNodesCount@XmlNode@prv_fixup@@QEBAHXZ 0000000140081be4 f   oraexectask:prvFixupXmlNode.obj
 0001:00080c14       ?hasChildNodes@XmlNode@prv_fixup@@QEBA_NXZ 0000000140081c14 f   oraexectask:prvFixupXmlNode.obj
 0001:00080c58       ?hasChildByName@XmlNode@prv_fixup@@QEBA_NAEBV?$basic_string@DU?$char_traits@D@std@@V?$allocator@D@2@@std@@@Z 0000000140081c58 f   oraexectask:prvFixupXmlNode.obj
 0001:00080d02       ?getAttributes@XmlNode@prv_fixup@@QEBA?AV?$vector@PEAVNameValuePair@prv_fixup@@V?$allocator@PEAVNameValuePair@prv_fixup@@@std@@@std@@XZ 0000000140081d02 f   oraexectask:prvFixupXmlNode.obj
 0001:00080d3e       ?getFirstChildNode@XmlNode@prv_fixup@@QEBAPEAV12@XZ 0000000140081d3e f   oraexectask:prvFixupXmlNode.obj
 0001:00080dd4       ?getFirstChildNodeByName@XmlNode@prv_fixup@@QEBAPEAV12@AEBV?$basic_string@DU?$char_traits@D@std@@V?$allocator@D@2@@std@@@Z 0000000140081dd4 f   oraexectask:prvFixupXmlNode.obj
 0001:00080f14       ?getChildNodeByTagNameAtIndex@XmlNode@prv_fixup@@QEBAPEAV12@AEBV?$basic_string@DU?$char_traits@D@std@@V?$allocator@D@2@@std@@AEBH@Z 0000000140081f14 f   oraexectask:prvFixupXmlNode.obj
 0001:000810b0       ?getNodeType@XmlNode@prv_fixup@@QEBA?AW4XmlTagType@2@XZ 00000001400820b0 f   oraexectask:prvFixupXmlNode.obj
 0001:000810d0       ?toString@XmlNode@prv_fixup@@QEBA?BV?$basic_string@DU?$char_traits@D@std@@V?$allocator@D@2@@std@@XZ 00000001400820d0 f   oraexectask:prvFixupXmlNode.obj
 0001:00081d5e       ?hasAttribute@XmlNode@prv_fixup@@QEBA_NAEBV?$basic_string@DU?$char_traits@D@std@@V?$allocator@D@2@@std@@@Z 0000000140082d5e f   oraexectask:prvFixupXmlNode.obj
 0001:00081db4       ?hasAttributes@XmlNode@prv_fixup@@QEBA_NXZ 0000000140082db4 f   oraexectask:prvFixupXmlNode.obj
 0001:00081df8       ?hasNodeValue@XmlNode@prv_fixup@@QEBA_NXZ 0000000140082df8 f   oraexectask:prvFixupXmlNode.obj
 0001:00081e4a       ?hasAttributeNameWithValue@XmlNode@prv_fixup@@QEBA_NAEBV?$basic_string@DU?$char_traits@D@std@@V?$allocator@D@2@@std@@0@Z 0000000140082e4a f   oraexectask:prvFixupXmlNode.obj
 0001:00081f7c       ?hasAttributeNameWithValue@XmlNode@prv_fixup@@QEBA_NPEBVNameValuePair@2@@Z 0000000140082f7c f   oraexectask:prvFixupXmlNode.obj
 0001:00082028       ?searchChildNodeByAttributeNameValue@XmlNode@prv_fixup@@QEBAPEAV12@AEBV?$basic_string@DU?$char_traits@D@std@@V?$allocator@D@2@@std@@0@Z 0000000140083028 f   oraexectask:prvFixupXmlNode.obj
 0001:0008215e       ?searchChildNodeByAttributeNameValue@XmlNode@prv_fixup@@QEBAPEAV12@PEBVNameValuePair@2@@Z 000000014008315e f   oraexectask:prvFixupXmlNode.obj
 0001:00082224       ?searchAttributeInList@XmlNode@prv_fixup@@AEBAPEAVNameValuePair@2@AEBV?$basic_string@DU?$char_traits@D@std@@V?$allocator@D@2@@std@@@Z 0000000140083224 f   oraexectask:prvFixupXmlNode.obj
 0001:000822ea       ?searchChildNodesByTagName@XmlNode@prv_fixup@@AEBA?AV?$vector@PEAVXmlNode@prv_fixup@@V?$allocator@PEAVXmlNode@prv_fixup@@@std@@@std@@AEBV?$basic_string@DU?$char_traits@D@std@@V?$allocator@D@2@@4@@Z 00000001400832ea f   oraexectask:prvFixupXmlNode.obj
 0001:00082466       ?getIndent@XmlNode@prv_fixup@@AEBA?BV?$basic_string@DU?$char_traits@D@std@@V?$allocator@D@2@@std@@AEBH@Z 0000000140083466 f   oraexectask:prvFixupXmlNode.obj
 0001:00083b74       ?find_last_of@?$basic_string@DU?$char_traits@D@std@@V?$allocator@D@2@@std@@QEBA_KPEBD_K1@Z 0000000140084b74 f i oraexectask:prvFixupXmlParser.obj
 0001:00083cb0       ?find_last_of@?$basic_string@DU?$char_traits@D@std@@V?$allocator@D@2@@std@@QEBA_KPEBD_K@Z 0000000140084cb0 f i oraexectask:prvFixupXmlParser.obj
 0001:00083d20       ?construct@?$allocator@PEAVFixupData@prv_fixup@@@std@@QEAAXPEAPEAVFixupData@prv_fixup@@AEBQEAV34@@Z 0000000140084d20 f i oraexectask:prvFixupXmlParser.obj
 0001:00083d20       ?construct@?$allocator@PEAVFixupTask@prv_fixup@@@std@@QEAAXPEAPEAVFixupTask@prv_fixup@@AEBQEAV34@@Z 0000000140084d20 f i oraexectask:prvFixupFactory.obj
 0001:00083d20       ?construct@?$allocator@PEAVNameValuePair@prv_fixup@@@std@@QEAAXPEAPEAVNameValuePair@prv_fixup@@AEBQEAV34@@Z 0000000140084d20 f i oraexectask:prvFixupXmlNode.obj
 0001:00083d20       ?construct@?$allocator@PEBV?$basic_string@DU?$char_traits@D@std@@V?$allocator@D@2@@std@@@std@@QEAAXPEAPEBV?$basic_string@DU?$char_traits@D@std@@V?$allocator@D@2@@2@AEBQEBV32@@Z 0000000140084d20 f i oraexectask:prvFixupXmlParser.obj
 0001:00083d20       ?construct@?$allocator@PEAVNLSError@prv_fixup@@@std@@QEAAXPEAPEAVNLSError@prv_fixup@@AEBQEAV34@@Z 0000000140084d20 f i oraexectask:prvFixupResult.obj
 0001:00083d20       ?construct@?$allocator@PEAVScript@prv_fixup@@@std@@QEAAXPEAPEAVScript@prv_fixup@@AEBQEAV34@@Z 0000000140084d20 f i oraexectask:prvFixupTaskData.obj
 0001:00083d20       ?construct@?$allocator@PEAVNativeError@prv_fixup@@@std@@QEAAXPEAPEAVNativeError@prv_fixup@@AEBQEAV34@@Z 0000000140084d20 f i oraexectask:prvFixupResult.obj
 0001:00083d20       ?construct@?$allocator@PEAVXmlNode@prv_fixup@@@std@@QEAAXPEAPEAVXmlNode@prv_fixup@@AEBQEAV34@@Z 0000000140084d20 f i oraexectask:prvFixupXmlNode.obj
 0001:00083da8       ??$construct@PEBV?$basic_string@DU?$char_traits@D@std@@V?$allocator@D@2@@std@@AEAPEBV12@@?$allocator@PEBV?$basic_string@DU?$char_traits@D@std@@V?$allocator@D@2@@std@@@std@@QEAAXPEAPEBV?$basic_string@DU?$char_traits@D@std@@V?$allocator@D@2@@1@AEAPEBV21@@Z 0000000140084da8 f i oraexectask:prvFixupXmlParser.obj
 0001:00083e94       ??$construct@PEBV?$basic_string@DU?$char_traits@D@std@@V?$allocator@D@2@@std@@AEAPEBV12@@?$allocator_traits@V?$allocator@PEBV?$basic_string@DU?$char_traits@D@std@@V?$allocator@D@2@@std@@@std@@@std@@SAXAEAV?$allocator@PEBV?$basic_string@DU?$char_traits@D@std@@V?$allocator@D@2@@std@@@1@PEAPEBV?$basic_string@DU?$char_traits@D@std@@V?$allocator@D@2@@1@AEAPEBV31@@Z 0000000140084e94 f i oraexectask:prvFixupXmlParser.obj
 0001:00083eec       ??$construct@PEAVNameValuePair@prv_fixup@@AEBQEAV12@@?$allocator_traits@V?$allocator@PEAVNameValuePair@prv_fixup@@@std@@@std@@SAXAEAV?$allocator@PEAVNameValuePair@prv_fixup@@@1@PEAPEAVNameValuePair@prv_fixup@@AEBQEAV34@@Z 0000000140084eec f i oraexectask:prvFixupXmlNode.obj
 0001:00083eec       ??$construct@PEAVScript@prv_fixup@@AEBQEAV12@@?$allocator_traits@V?$allocator@PEAVScript@prv_fixup@@@std@@@std@@SAXAEAV?$allocator@PEAVScript@prv_fixup@@@1@PEAPEAVScript@prv_fixup@@AEBQEAV34@@Z 0000000140084eec f i oraexectask:prvFixupTaskData.obj
 0001:00083eec       ??$construct@PEAVFixupData@prv_fixup@@AEBQEAV12@@?$allocator_traits@V?$allocator@PEAVFixupData@prv_fixup@@@std@@@std@@SAXAEAV?$allocator@PEAVFixupData@prv_fixup@@@1@PEAPEAVFixupData@prv_fixup@@AEBQEAV34@@Z 0000000140084eec f i oraexectask:prvFixupXmlParser.obj
 0001:00083eec       ??$construct@PEAVFixupTask@prv_fixup@@AEBQEAV12@@?$allocator_traits@V?$allocator@PEAVFixupTask@prv_fixup@@@std@@@std@@SAXAEAV?$allocator@PEAVFixupTask@prv_fixup@@@1@PEAPEAVFixupTask@prv_fixup@@AEBQEAV34@@Z 0000000140084eec f i oraexectask:prvFixupFactory.obj
 0001:00083eec       ??$construct@PEBV?$basic_string@DU?$char_traits@D@std@@V?$allocator@D@2@@std@@AEBQEBV12@@?$allocator_traits@V?$allocator@PEBV?$basic_string@DU?$char_traits@D@std@@V?$allocator@D@2@@std@@@std@@@std@@SAXAEAV?$allocator@PEBV?$basic_string@DU?$char_traits@D@std@@V?$allocator@D@2@@std@@@1@PEAPEBV?$basic_string@DU?$char_traits@D@std@@V?$allocator@D@2@@1@AEBQEBV31@@Z 0000000140084eec f i oraexectask:prvFixupXmlParser.obj
 0001:00083eec       ??$construct@PEAVNativeError@prv_fixup@@AEBQEAV12@@?$allocator_traits@V?$allocator@PEAVNativeError@prv_fixup@@@std@@@std@@SAXAEAV?$allocator@PEAVNativeError@prv_fixup@@@1@PEAPEAVNativeError@prv_fixup@@AEBQEAV34@@Z 0000000140084eec f i oraexectask:prvFixupResult.obj
 0001:00083eec       ??$construct@PEAVXmlNode@prv_fixup@@AEBQEAV12@@?$allocator_traits@V?$allocator@PEAVXmlNode@prv_fixup@@@std@@@std@@SAXAEAV?$allocator@PEAVXmlNode@prv_fixup@@@1@PEAPEAVXmlNode@prv_fixup@@AEBQEAV34@@Z 0000000140084eec f i oraexectask:prvFixupXmlNode.obj
 0001:00083eec       ??$construct@PEAVNLSError@prv_fixup@@AEBQEAV12@@?$allocator_traits@V?$allocator@PEAVNLSError@prv_fixup@@@std@@@std@@SAXAEAV?$allocator@PEAVNLSError@prv_fixup@@@1@PEAPEAVNLSError@prv_fixup@@AEBQEAV34@@Z 0000000140084eec f i oraexectask:prvFixupResult.obj
 0001:00083f44       ??$construct@PEBV?$basic_string@DU?$char_traits@D@std@@V?$allocator@D@2@@std@@AEAPEBV12@@?$_Wrap_alloc@V?$allocator@PEBV?$basic_string@DU?$char_traits@D@std@@V?$allocator@D@2@@std@@@std@@@std@@QEAAXPEAPEBV?$basic_string@DU?$char_traits@D@std@@V?$allocator@D@2@@1@AEAPEBV21@@Z 0000000140084f44 f i oraexectask:prvFixupXmlParser.obj
 0001:00083f9c       ?push_back@?$vector@PEBV?$basic_string@DU?$char_traits@D@std@@V?$allocator@D@2@@std@@V?$allocator@PEBV?$basic_string@DU?$char_traits@D@std@@V?$allocator@D@2@@std@@@2@@std@@QEAAXAEBQEBV?$basic_string@DU?$char_traits@D@std@@V?$allocator@D@2@@2@@Z 0000000140084f9c f i oraexectask:prvFixupXmlParser.obj
 0001:0008415c       ??4?$vector@V?$basic_string@DU?$char_traits@D@std@@V?$allocator@D@2@@std@@V?$allocator@V?$basic_string@DU?$char_traits@D@std@@V?$allocator@D@2@@std@@@2@@std@@QEAAAEAV01@$$QEAV01@@Z 000000014008515c f i oraexectask:prvFixupXmlParser.obj
 0001:000841e8       ?_Assign_rv@?$vector@V?$basic_string@DU?$char_traits@D@std@@V?$allocator@D@2@@std@@V?$allocator@V?$basic_string@DU?$char_traits@D@std@@V?$allocator@D@2@@std@@@2@@std@@QEAAX$$QEAV12@U?$integral_constant@_N$0A@@2@@Z 00000001400851e8 f i oraexectask:prvFixupXmlParser.obj
 0001:00084314       ?_Assign_rv@?$vector@V?$basic_string@DU?$char_traits@D@std@@V?$allocator@D@2@@std@@V?$allocator@V?$basic_string@DU?$char_traits@D@std@@V?$allocator@D@2@@std@@@2@@std@@QEAAX$$QEAV12@@Z 0000000140085314 f i oraexectask:prvFixupXmlParser.obj
 0001:00084364       ?begin@?$vector@V?$basic_string@DU?$char_traits@D@std@@V?$allocator@D@2@@std@@V?$allocator@V?$basic_string@DU?$char_traits@D@std@@V?$allocator@D@2@@std@@@2@@std@@QEAA?AV?$_Vector_iterator@V?$_Vector_val@U?$_Simple_types@V?$basic_string@DU?$char_traits@D@std@@V?$allocator@D@2@@std@@@std@@@std@@@2@XZ 0000000140085364 f i oraexectask:prvFixupXmlParser.obj
 0001:000843b0       ?end@?$vector@V?$basic_string@DU?$char_traits@D@std@@V?$allocator@D@2@@std@@V?$allocator@V?$basic_string@DU?$char_traits@D@std@@V?$allocator@D@2@@std@@@2@@std@@QEAA?AV?$_Vector_iterator@V?$_Vector_val@U?$_Simple_types@V?$basic_string@DU?$char_traits@D@std@@V?$allocator@D@2@@std@@@std@@@std@@@2@XZ 00000001400853b0 f i oraexectask:prvFixupXmlParser.obj
 0001:000843fc       ??$_Construct@V?$move_iterator@V?$_Vector_iterator@V?$_Vector_val@U?$_Simple_types@V?$basic_string@DU?$char_traits@D@std@@V?$allocator@D@2@@std@@@std@@@std@@@std@@@std@@@?$vector@V?$basic_string@DU?$char_traits@D@std@@V?$allocator@D@2@@std@@V?$allocator@V?$basic_string@DU?$char_traits@D@std@@V?$allocator@D@2@@std@@@2@@std@@QEAAXV?$move_iterator@V?$_Vector_iterator@V?$_Vector_val@U?$_Simple_types@V?$basic_string@DU?$char_traits@D@std@@V?$allocator@D@2@@std@@@std@@@std@@@std@@@1@0@Z 00000001400853fc f i oraexectask:prvFixupXmlParser.obj
 0001:00084464       ??$_Construct@V?$move_iterator@V?$_Vector_iterator@V?$_Vector_val@U?$_Simple_types@V?$basic_string@DU?$char_traits@D@std@@V?$allocator@D@2@@std@@@std@@@std@@@std@@@std@@@?$vector@V?$basic_string@DU?$char_traits@D@std@@V?$allocator@D@2@@std@@V?$allocator@V?$basic_string@DU?$char_traits@D@std@@V?$allocator@D@2@@std@@@2@@std@@QEAAXV?$move_iterator@V?$_Vector_iterator@V?$_Vector_val@U?$_Simple_types@V?$basic_string@DU?$char_traits@D@std@@V?$allocator@D@2@@std@@@std@@@std@@@std@@@1@0Uforward_iterator_tag@1@@Z 0000000140085464 f i oraexectask:prvFixupXmlParser.obj
 0001:00084558       ??$_Ucopy@V?$move_iterator@V?$_Vector_iterator@V?$_Vector_val@U?$_Simple_types@V?$basic_string@DU?$char_traits@D@std@@V?$allocator@D@2@@std@@@std@@@std@@@std@@@std@@@?$vector@V?$basic_string@DU?$char_traits@D@std@@V?$allocator@D@2@@std@@V?$allocator@V?$basic_string@DU?$char_traits@D@std@@V?$allocator@D@2@@std@@@2@@std@@IEAAPEAV?$basic_string@DU?$char_traits@D@std@@V?$allocator@D@2@@1@V?$move_iterator@V?$_Vector_iterator@V?$_Vector_val@U?$_Simple_types@V?$basic_string@DU?$char_traits@D@std@@V?$allocator@D@2@@std@@@std@@@std@@@std@@@1@0PEAV21@@Z 0000000140085558 f i oraexectask:prvFixupXmlParser.obj
 0001:000845cc       ?allocate@?$allocator@PEAVFixupTask@prv_fixup@@@std@@QEAAPEAPEAVFixupTask@prv_fixup@@_K@Z 00000001400855cc f i oraexectask:prvFixupFactory.obj
 0001:000845cc       ?allocate@?$allocator@PEAVScript@prv_fixup@@@std@@QEAAPEAPEAVScript@prv_fixup@@_K@Z 00000001400855cc f i oraexectask:prvFixupTaskData.obj
 0001:000845cc       ?allocate@?$allocator@PEBV?$basic_string@DU?$char_traits@D@std@@V?$allocator@D@2@@std@@@std@@QEAAPEAPEBV?$basic_string@DU?$char_traits@D@std@@V?$allocator@D@2@@2@_K@Z 00000001400855cc f i oraexectask:sprvFixupUtility.obj
 0001:000845cc       ?allocate@?$allocator@PEAVFixupData@prv_fixup@@@std@@QEAAPEAPEAVFixupData@prv_fixup@@_K@Z 00000001400855cc f i oraexectask:prvFixupXmlParser.obj
 0001:000845cc       ?allocate@?$allocator@PEAVNameValuePair@prv_fixup@@@std@@QEAAPEAPEAVNameValuePair@prv_fixup@@_K@Z 00000001400855cc f i oraexectask:prvFixupXmlNode.obj
 0001:000845cc       ?allocate@?$allocator@PEAVNLSError@prv_fixup@@@std@@QEAAPEAPEAVNLSError@prv_fixup@@_K@Z 00000001400855cc f i oraexectask:prvFixupResult.obj
 0001:000845cc       ?allocate@?$allocator@PEAVNativeError@prv_fixup@@@std@@QEAAPEAPEAVNativeError@prv_fixup@@_K@Z 00000001400855cc f i oraexectask:prvFixupResult.obj
 0001:000845cc       ?allocate@?$allocator@PEAVXmlNode@prv_fixup@@@std@@QEAAPEAPEAVXmlNode@prv_fixup@@_K@Z 00000001400855cc f i oraexectask:prvFixupXmlNode.obj
 0001:00084608       ??$construct@PEAVFixupData@prv_fixup@@PEAV12@@?$allocator@PEAVFixupData@prv_fixup@@@std@@QEAAXPEAPEAVFixupData@prv_fixup@@$$QEAPEAV23@@Z 0000000140085608 f i oraexectask:prvFixupXmlParser.obj
 0001:000846f4       ??$construct@PEAVFixupData@prv_fixup@@AEAPEAV12@@?$allocator@PEAVFixupData@prv_fixup@@@std@@QEAAXPEAPEAVFixupData@prv_fixup@@AEAPEAV23@@Z 00000001400856f4 f i oraexectask:prvFixupXmlParser.obj
 0001:000847e0       ??$construct@PEAVFixupData@prv_fixup@@PEAV12@@?$allocator_traits@V?$allocator@PEAVFixupData@prv_fixup@@@std@@@std@@SAXAEAV?$allocator@PEAVFixupData@prv_fixup@@@1@PEAPEAVFixupData@prv_fixup@@$$QEAPEAV34@@Z 00000001400857e0 f i oraexectask:prvFixupXmlParser.obj
 0001:00084838       ??$construct@PEAVFixupData@prv_fixup@@AEAPEAV12@@?$allocator_traits@V?$allocator@PEAVFixupData@prv_fixup@@@std@@@std@@SAXAEAV?$allocator@PEAVFixupData@prv_fixup@@@1@PEAPEAVFixupData@prv_fixup@@AEAPEAV34@@Z 0000000140085838 f i oraexectask:prvFixupXmlParser.obj
 0001:00084890       ??$construct@PEAVFixupData@prv_fixup@@PEAV12@@?$_Wrap_alloc@V?$allocator@PEAVFixupData@prv_fixup@@@std@@@std@@QEAAXPEAPEAVFixupData@prv_fixup@@$$QEAPEAV23@@Z 0000000140085890 f i oraexectask:prvFixupXmlParser.obj
 0001:000848e8       ??$construct@PEAVFixupData@prv_fixup@@AEAPEAV12@@?$_Wrap_alloc@V?$allocator@PEAVFixupData@prv_fixup@@@std@@@std@@QEAAXPEAPEAVFixupData@prv_fixup@@AEAPEAV23@@Z 00000001400858e8 f i oraexectask:prvFixupXmlParser.obj
 0001:00084940       ??$construct@PEAVNameValuePair@prv_fixup@@AEBQEAV12@@?$_Wrap_alloc@V?$allocator@PEAVNameValuePair@prv_fixup@@@std@@@std@@QEAAXPEAPEAVNameValuePair@prv_fixup@@AEBQEAV23@@Z 0000000140085940 f i oraexectask:prvFixupXmlNode.obj
 0001:00084940       ??$construct@PEAVFixupTask@prv_fixup@@AEBQEAV12@@?$_Wrap_alloc@V?$allocator@PEAVFixupTask@prv_fixup@@@std@@@std@@QEAAXPEAPEAVFixupTask@prv_fixup@@AEBQEAV23@@Z 0000000140085940 f i oraexectask:prvFixupFactory.obj
 0001:00084940       ??$construct@PEAVXmlNode@prv_fixup@@AEBQEAV12@@?$_Wrap_alloc@V?$allocator@PEAVXmlNode@prv_fixup@@@std@@@std@@QEAAXPEAPEAVXmlNode@prv_fixup@@AEBQEAV23@@Z 0000000140085940 f i oraexectask:prvFixupXmlNode.obj
 0001:00084940       ??$construct@PEAVNativeError@prv_fixup@@AEBQEAV12@@?$_Wrap_alloc@V?$allocator@PEAVNativeError@prv_fixup@@@std@@@std@@QEAAXPEAPEAVNativeError@prv_fixup@@AEBQEAV23@@Z 0000000140085940 f i oraexectask:prvFixupResult.obj
 0001:00084940       ??$construct@PEAVNLSError@prv_fixup@@AEBQEAV12@@?$_Wrap_alloc@V?$allocator@PEAVNLSError@prv_fixup@@@std@@@std@@QEAAXPEAPEAVNLSError@prv_fixup@@AEBQEAV23@@Z 0000000140085940 f i oraexectask:prvFixupResult.obj
 0001:00084940       ??$construct@PEAVScript@prv_fixup@@AEBQEAV12@@?$_Wrap_alloc@V?$allocator@PEAVScript@prv_fixup@@@std@@@std@@QEAAXPEAPEAVScript@prv_fixup@@AEBQEAV23@@Z 0000000140085940 f i oraexectask:prvFixupTaskData.obj
 0001:00084940       ??$construct@PEAVFixupData@prv_fixup@@AEBQEAV12@@?$_Wrap_alloc@V?$allocator@PEAVFixupData@prv_fixup@@@std@@@std@@QEAAXPEAPEAVFixupData@prv_fixup@@AEBQEAV23@@Z 0000000140085940 f i oraexectask:prvFixupXmlParser.obj
 0001:00084940       ??$construct@PEBV?$basic_string@DU?$char_traits@D@std@@V?$allocator@D@2@@std@@AEBQEBV12@@?$_Wrap_alloc@V?$allocator@PEBV?$basic_string@DU?$char_traits@D@std@@V?$allocator@D@2@@std@@@std@@@std@@QEAAXPEAPEBV?$basic_string@DU?$char_traits@D@std@@V?$allocator@D@2@@1@AEBQEBV21@@Z 0000000140085940 f i oraexectask:prvFixupXmlParser.obj
 0001:00084998       ?push_back@?$vector@PEAVFixupData@prv_fixup@@V?$allocator@PEAVFixupData@prv_fixup@@@std@@@std@@QEAAX$$QEAPEAVFixupData@prv_fixup@@@Z 0000000140085998 f i oraexectask:prvFixupXmlParser.obj
 0001:00084bcc       ?push_back@?$vector@PEAVFixupData@prv_fixup@@V?$allocator@PEAVFixupData@prv_fixup@@@std@@@std@@QEAAXAEBQEAVFixupData@prv_fixup@@@Z 0000000140085bcc f i oraexectask:prvFixupXmlParser.obj
 0001:00084d8c       ?_Reallocate@?$vector@PEAVFixupData@prv_fixup@@V?$allocator@PEAVFixupData@prv_fixup@@@std@@@std@@IEAAX_K@Z 0000000140085d8c f i oraexectask:prvFixupXmlParser.obj
 0001:00084fc8       ?_Reserve@?$vector@PEAVFixupData@prv_fixup@@V?$allocator@PEAVFixupData@prv_fixup@@@std@@@std@@IEAAX_K@Z 0000000140085fc8 f i oraexectask:prvFixupXmlParser.obj
 0001:00085080       ??$_Umove@PEAPEAVFixupData@prv_fixup@@@?$vector@PEAVFixupData@prv_fixup@@V?$allocator@PEAVFixupData@prv_fixup@@@std@@@std@@IEAAPEAPEAVFixupData@prv_fixup@@PEAPEAV23@00@Z 0000000140086080 f i oraexectask:prvFixupXmlParser.obj
 0001:000850fc       ??E?$_Vector_const_iterator@V?$_Vector_val@U?$_Simple_types@V?$basic_string@DU?$char_traits@D@std@@V?$allocator@D@2@@std@@@std@@@std@@@std@@QEAAAEAV01@XZ 00000001400860fc f i oraexectask:prvFixupXmlParser.obj
 0001:0008512c       ??G?$_Vector_const_iterator@V?$_Vector_val@U?$_Simple_types@V?$basic_string@DU?$char_traits@D@std@@V?$allocator@D@2@@std@@@std@@@std@@@std@@QEBA_JAEBV01@@Z 000000014008612c f i oraexectask:prvFixupXmlParser.obj
 0001:00085174       ??0?$_Vector_iterator@V?$_Vector_val@U?$_Simple_types@V?$basic_string@DU?$char_traits@D@std@@V?$allocator@D@2@@std@@@std@@@std@@@std@@QEAA@PEAV?$basic_string@DU?$char_traits@D@std@@V?$allocator@D@2@@1@PEBU_Container_base0@1@@Z 0000000140086174 f i oraexectask:prvFixupXmlParser.obj
 0001:000851c4       ??E?$_Vector_iterator@V?$_Vector_val@U?$_Simple_types@V?$basic_string@DU?$char_traits@D@std@@V?$allocator@D@2@@std@@@std@@@std@@@std@@QEAAAEAV01@XZ 00000001400861c4 f i oraexectask:prvFixupXmlParser.obj
 0001:000851f0       ??G?$_Vector_iterator@V?$_Vector_val@U?$_Simple_types@V?$basic_string@DU?$char_traits@D@std@@V?$allocator@D@2@@std@@@std@@@std@@@std@@QEBA_JAEBV?$_Vector_const_iterator@V?$_Vector_val@U?$_Simple_types@V?$basic_string@DU?$char_traits@D@std@@V?$allocator@D@2@@std@@@std@@@std@@@1@@Z 00000001400861f0 f i oraexectask:prvFixupXmlParser.obj
 0001:00085228       ??$_Unchecked@V?$move_iterator@V?$_Vector_iterator@V?$_Vector_val@U?$_Simple_types@V?$basic_string@DU?$char_traits@D@std@@V?$allocator@D@2@@std@@@std@@@std@@@std@@@std@@@std@@YA?AV?$move_iterator@V?$_Vector_iterator@V?$_Vector_val@U?$_Simple_types@V?$basic_string@DU?$char_traits@D@std@@V?$allocator@D@2@@std@@@std@@@std@@@std@@@0@V10@@Z 0000000140086228 f i oraexectask:prvFixupXmlParser.obj
 0001:00085228       ??0?$move_iterator@V?$_Vector_iterator@V?$_Vector_val@U?$_Simple_types@V?$basic_string@DU?$char_traits@D@std@@V?$allocator@D@2@@std@@@std@@@std@@@std@@@std@@QEAA@V?$_Vector_iterator@V?$_Vector_val@U?$_Simple_types@V?$basic_string@DU?$char_traits@D@std@@V?$allocator@D@2@@std@@@std@@@std@@@1@@Z 0000000140086228 f i oraexectask:prvFixupXmlParser.obj
 0001:0008528c       ?base@?$move_iterator@V?$_Vector_iterator@V?$_Vector_val@U?$_Simple_types@V?$basic_string@DU?$char_traits@D@std@@V?$allocator@D@2@@std@@@std@@@std@@@std@@@std@@QEBA?AV?$_Vector_iterator@V?$_Vector_val@U?$_Simple_types@V?$basic_string@DU?$char_traits@D@std@@V?$allocator@D@2@@std@@@std@@@std@@@2@XZ 000000014008628c f i oraexectask:prvFixupXmlParser.obj
 0001:00085304       ??D?$move_iterator@V?$_Vector_iterator@V?$_Vector_val@U?$_Simple_types@V?$basic_string@DU?$char_traits@D@std@@V?$allocator@D@2@@std@@@std@@@std@@@std@@@std@@QEBA$$QEAV?$basic_string@DU?$char_traits@D@std@@V?$allocator@D@2@@1@XZ 0000000140086304 f i oraexectask:prvFixupXmlParser.obj
 0001:00085340       ??E?$move_iterator@V?$_Vector_iterator@V?$_Vector_val@U?$_Simple_types@V?$basic_string@DU?$char_traits@D@std@@V?$allocator@D@2@@std@@@std@@@std@@@std@@@std@@QEAAAEAV01@XZ 0000000140086340 f i oraexectask:prvFixupXmlParser.obj
 0001:0008536c       ??$_Equal@V?$_Vector_iterator@V?$_Vector_val@U?$_Simple_types@V?$basic_string@DU?$char_traits@D@std@@V?$allocator@D@2@@std@@@std@@@std@@@std@@@?$move_iterator@V?$_Vector_iterator@V?$_Vector_val@U?$_Simple_types@V?$basic_string@DU?$char_traits@D@std@@V?$allocator@D@2@@std@@@std@@@std@@@std@@@std@@QEBA_NAEBV01@@Z 000000014008636c f i oraexectask:prvFixupXmlParser.obj
 0001:000853b8       ??$make_move_iterator@V?$_Vector_iterator@V?$_Vector_val@U?$_Simple_types@V?$basic_string@DU?$char_traits@D@std@@V?$allocator@D@2@@std@@@std@@@std@@@std@@@std@@YA?AV?$move_iterator@V?$_Vector_iterator@V?$_Vector_val@U?$_Simple_types@V?$basic_string@DU?$char_traits@D@std@@V?$allocator@D@2@@std@@@std@@@std@@@std@@@0@V?$_Vector_iterator@V?$_Vector_val@U?$_Simple_types@V?$basic_string@DU?$char_traits@D@std@@V?$allocator@D@2@@std@@@std@@@std@@@0@@Z 00000001400863b8 f i oraexectask:prvFixupXmlParser.obj
 0001:000853ec       ??$distance@V?$move_iterator@V?$_Vector_iterator@V?$_Vector_val@U?$_Simple_types@V?$basic_string@DU?$char_traits@D@std@@V?$allocator@D@2@@std@@@std@@@std@@@std@@@std@@@std@@YA_JV?$move_iterator@V?$_Vector_iterator@V?$_Vector_val@U?$_Simple_types@V?$basic_string@DU?$char_traits@D@std@@V?$allocator@D@2@@std@@@std@@@std@@@std@@@0@0@Z 00000001400863ec f i oraexectask:prvFixupXmlParser.obj
 0001:00085454       ??$_Distance2@V?$move_iterator@V?$_Vector_iterator@V?$_Vector_val@U?$_Simple_types@V?$basic_string@DU?$char_traits@D@std@@V?$allocator@D@2@@std@@@std@@@std@@@std@@@std@@_J@std@@YAXV?$move_iterator@V?$_Vector_iterator@V?$_Vector_val@U?$_Simple_types@V?$basic_string@DU?$char_traits@D@std@@V?$allocator@D@2@@std@@@std@@@std@@@std@@@0@0AEA_JUrandom_access_iterator_tag@0@@Z 0000000140086454 f i oraexectask:prvFixupXmlParser.obj
 0001:000854a0       ??$?GV?$_Vector_iterator@V?$_Vector_val@U?$_Simple_types@V?$basic_string@DU?$char_traits@D@std@@V?$allocator@D@2@@std@@@std@@@std@@@std@@V01@@std@@YA_JAEAV?$move_iterator@V?$_Vector_iterator@V?$_Vector_val@U?$_Simple_types@V?$basic_string@DU?$char_traits@D@std@@V?$allocator@D@2@@std@@@std@@@std@@@std@@@0@AEBV10@@Z 00000001400864a0 f i oraexectask:prvFixupXmlParser.obj
 0001:00085500       ??$_Uninitialized_copy@V?$move_iterator@V?$_Vector_iterator@V?$_Vector_val@U?$_Simple_types@V?$basic_string@DU?$char_traits@D@std@@V?$allocator@D@2@@std@@@std@@@std@@@std@@@std@@PEAV?$basic_string@DU?$char_traits@D@std@@V?$allocator@D@2@@2@U?$_Wrap_alloc@V?$allocator@V?$basic_string@DU?$char_traits@D@std@@V?$allocator@D@2@@std@@@std@@@2@@std@@YAPEAV?$basic_string@DU?$char_traits@D@std@@V?$allocator@D@2@@0@V?$move_iterator@V?$_Vector_iterator@V?$_Vector_val@U?$_Simple_types@V?$basic_string@DU?$char_traits@D@std@@V?$allocator@D@2@@std@@@std@@@std@@@std@@@0@0PEAV10@AEAU?$_Wrap_alloc@V?$allocator@V?$basic_string@DU?$char_traits@D@std@@V?$allocator@D@2@@std@@@std@@@0@@Z 0000000140086500 f i oraexectask:prvFixupXmlParser.obj
 0001:000855c0       ??$_Uninit_copy@V?$move_iterator@V?$_Vector_iterator@V?$_Vector_val@U?$_Simple_types@V?$basic_string@DU?$char_traits@D@std@@V?$allocator@D@2@@std@@@std@@@std@@@std@@@std@@PEAV?$basic_string@DU?$char_traits@D@std@@V?$allocator@D@2@@2@U?$_Wrap_alloc@V?$allocator@V?$basic_string@DU?$char_traits@D@std@@V?$allocator@D@2@@std@@@std@@@2@@std@@YAPEAV?$basic_string@DU?$char_traits@D@std@@V?$allocator@D@2@@0@V?$move_iterator@V?$_Vector_iterator@V?$_Vector_val@U?$_Simple_types@V?$basic_string@DU?$char_traits@D@std@@V?$allocator@D@2@@std@@@std@@@std@@@std@@@0@0PEAV10@AEAU?$_Wrap_alloc@V?$allocator@V?$basic_string@DU?$char_traits@D@std@@V?$allocator@D@2@@std@@@std@@@0@@Z 00000001400865c0 f i oraexectask:prvFixupXmlParser.obj
 0001:0008567c       ??$_Uninit_copy@V?$move_iterator@V?$_Vector_iterator@V?$_Vector_val@U?$_Simple_types@V?$basic_string@DU?$char_traits@D@std@@V?$allocator@D@2@@std@@@std@@@std@@@std@@@std@@PEAV?$basic_string@DU?$char_traits@D@std@@V?$allocator@D@2@@2@V?$allocator@V?$basic_string@DU?$char_traits@D@std@@V?$allocator@D@2@@std@@@2@@std@@YAPEAV?$basic_string@DU?$char_traits@D@std@@V?$allocator@D@2@@0@V?$move_iterator@V?$_Vector_iterator@V?$_Vector_val@U?$_Simple_types@V?$basic_string@DU?$char_traits@D@std@@V?$allocator@D@2@@std@@@std@@@std@@@std@@@0@0PEAV10@AEAU?$_Wrap_alloc@V?$allocator@V?$basic_string@DU?$char_traits@D@std@@V?$allocator@D@2@@std@@@std@@@0@U_Nonscalar_ptr_iterator_tag@0@@Z 000000014008667c f i oraexectask:prvFixupXmlParser.obj
 0001:000857a0       ??$?9V?$_Vector_iterator@V?$_Vector_val@U?$_Simple_types@V?$basic_string@DU?$char_traits@D@std@@V?$allocator@D@2@@std@@@std@@@std@@@std@@V01@@std@@YA_NAEBV?$move_iterator@V?$_Vector_iterator@V?$_Vector_val@U?$_Simple_types@V?$basic_string@DU?$char_traits@D@std@@V?$allocator@D@2@@std@@@std@@@std@@@std@@@0@0@Z 00000001400867a0 f i oraexectask:prvFixupXmlParser.obj
 0001:000857ec       ??$?8V?$_Vector_iterator@V?$_Vector_val@U?$_Simple_types@V?$basic_string@DU?$char_traits@D@std@@V?$allocator@D@2@@std@@@std@@@std@@@std@@V01@@std@@YA_NAEBV?$move_iterator@V?$_Vector_iterator@V?$_Vector_val@U?$_Simple_types@V?$basic_string@DU?$char_traits@D@std@@V?$allocator@D@2@@std@@@std@@@std@@@std@@@0@0@Z 00000001400867ec f i oraexectask:prvFixupXmlParser.obj
 0001:00085824       ??$_Allocate@PEAVNameValuePair@prv_fixup@@@std@@YAPEAPEAVNameValuePair@prv_fixup@@_KPEAPEAV12@@Z 0000000140086824 f i oraexectask:prvFixupXmlNode.obj
 0001:00085824       ??$_Allocate@PEBV?$basic_string@DU?$char_traits@D@std@@V?$allocator@D@2@@std@@@std@@YAPEAPEBV?$basic_string@DU?$char_traits@D@std@@V?$allocator@D@2@@0@_KPEAPEBV10@@Z 0000000140086824 f i oraexectask:sprvFixupUtility.obj
 0001:00085824       ??$_Allocate@PEAVNLSError@prv_fixup@@@std@@YAPEAPEAVNLSError@prv_fixup@@_KPEAPEAV12@@Z 0000000140086824 f i oraexectask:prvFixupResult.obj
 0001:00085824       ??$_Allocate@PEAVFixupTask@prv_fixup@@@std@@YAPEAPEAVFixupTask@prv_fixup@@_KPEAPEAV12@@Z 0000000140086824 f i oraexectask:prvFixupFactory.obj
 0001:00085824       ??$_Allocate@PEAVFixupData@prv_fixup@@@std@@YAPEAPEAVFixupData@prv_fixup@@_KPEAPEAV12@@Z 0000000140086824 f i oraexectask:prvFixupXmlParser.obj
 0001:00085824       ??$_Allocate@PEAVScript@prv_fixup@@@std@@YAPEAPEAVScript@prv_fixup@@_KPEAPEAV12@@Z 0000000140086824 f i oraexectask:prvFixupTaskData.obj
 0001:00085824       ??$_Allocate@PEAVXmlNode@prv_fixup@@@std@@YAPEAPEAVXmlNode@prv_fixup@@_KPEAPEAV12@@Z 0000000140086824 f i oraexectask:prvFixupXmlNode.obj
 0001:00085824       ??$_Allocate@PEAVNativeError@prv_fixup@@@std@@YAPEAPEAVNativeError@prv_fixup@@_KPEAPEAV12@@Z 0000000140086824 f i oraexectask:prvFixupResult.obj
 0001:000858a4       ??$_Uninitialized_move@PEAPEAVFixupData@prv_fixup@@PEAPEAV12@U?$_Wrap_alloc@V?$allocator@PEAVFixupData@prv_fixup@@@std@@@std@@@std@@YAPEAPEAVFixupData@prv_fixup@@PEAPEAV12@00AEAU?$_Wrap_alloc@V?$allocator@PEAVFixupData@prv_fixup@@@std@@@0@@Z 00000001400868a4 f i oraexectask:prvFixupXmlParser.obj
 0001:00085980       ??$_Uninit_move@PEAPEAVFixupData@prv_fixup@@PEAPEAV12@U?$_Wrap_alloc@V?$allocator@PEAVFixupData@prv_fixup@@@std@@@std@@@std@@YAPEAPEAVFixupData@prv_fixup@@PEAPEAV12@00AEAU?$_Wrap_alloc@V?$allocator@PEAVFixupData@prv_fixup@@@std@@@0@@Z 0000000140086980 f i oraexectask:prvFixupXmlParser.obj
 0001:00085a84       ??_EXmlParser@prv_fixup@@AEAAPEAXI@Z 0000000140086a84 f i oraexectask:prvFixupXmlParser.obj
 0001:00085a84       ??_GXmlParser@prv_fixup@@AEAAPEAXI@Z 0000000140086a84 f i oraexectask:prvFixupXmlParser.obj
 0001:00085ac8       ??_GXmlNode@prv_fixup@@QEAAPEAXI@Z 0000000140086ac8 f i oraexectask:prvFixupXmlParser.obj
 0001:00085ac8       ??_EXmlNode@prv_fixup@@QEAAPEAXI@Z 0000000140086ac8 f i oraexectask:prvFixupXmlParser.obj
 0001:00085b0c       ??0XmlParser@prv_fixup@@AEAA@PEBV?$basic_string@DU?$char_traits@D@std@@V?$allocator@D@2@@std@@@Z 0000000140086b0c f   oraexectask:prvFixupXmlParser.obj
 0001:00085e2a       ?parse@XmlParser@prv_fixup@@AEAAPEAVXmlNode@2@XZ 0000000140086e2a f   oraexectask:prvFixupXmlParser.obj
 0001:00086cb6       ??1XmlParser@prv_fixup@@AEAA@XZ 0000000140087cb6 f   oraexectask:prvFixupXmlParser.obj
 0001:00086e8c       ?createTree@XmlParser@prv_fixup@@AEAAPEAVXmlNode@2@V?$vector@V?$basic_string@DU?$char_traits@D@std@@V?$allocator@D@2@@std@@V?$allocator@V?$basic_string@DU?$char_traits@D@std@@V?$allocator@D@2@@std@@@2@@std@@@Z 0000000140087e8c f   oraexectask:prvFixupXmlParser.obj
 0001:00087500       ?createOutputDataXMLNode@XmlParser@prv_fixup@@AEAAPEAVXmlNode@2@PEAVResult@2@@Z 0000000140088500 f   oraexectask:prvFixupXmlParser.obj
 0001:0008968a       ?createNode@XmlParser@prv_fixup@@AEAAPEAVXmlNode@2@V?$vector@V?$basic_string@DU?$char_traits@D@std@@V?$allocator@D@2@@std@@V?$allocator@V?$basic_string@DU?$char_traits@D@std@@V?$allocator@D@2@@std@@@2@@std@@AEAI@Z 000000014008a68a f   oraexectask:prvFixupXmlParser.obj
 0001:0008bd56       ?getTagType@XmlParser@prv_fixup@@AEBA?AW4XmlTagType@2@AEBV?$basic_string@DU?$char_traits@D@std@@V?$allocator@D@2@@std@@@Z 000000014008cd56 f   oraexectask:prvFixupXmlParser.obj
 0001:0008cb0a       ?getTagData@XmlParser@prv_fixup@@AEBA?AV?$vector@V?$basic_string@DU?$char_traits@D@std@@V?$allocator@D@2@@std@@V?$allocator@V?$basic_string@DU?$char_traits@D@std@@V?$allocator@D@2@@std@@@2@@std@@AEBV?$basic_string@DU?$char_traits@D@std@@V?$allocator@D@2@@4@W4XmlTagType@2@@Z 000000014008db0a f   oraexectask:prvFixupXmlParser.obj
 0001:0008d2ea       ?getTagValue@XmlParser@prv_fixup@@AEBA?AV?$basic_string@DU?$char_traits@D@std@@V?$allocator@D@2@@std@@AEBV34@0@Z 000000014008e2ea f   oraexectask:prvFixupXmlParser.obj
 0001:0008d5dc       ?getFixupDataFromXmlTaskFixupData@XmlParser@prv_fixup@@AEBAPEAVFixupData@2@PEBV?$basic_string@DU?$char_traits@D@std@@V?$allocator@D@2@@std@@AEBHPEBVXmlNode@2@@Z 000000014008e5dc f   oraexectask:prvFixupXmlParser.obj
 0001:0008f4d6       ?getFixupDataListFromXmlTask@XmlParser@prv_fixup@@AEBA?AV?$vector@PEAVFixupData@prv_fixup@@V?$allocator@PEAVFixupData@prv_fixup@@@std@@@std@@PEBVXmlNode@2@@Z 00000001400904d6 f   oraexectask:prvFixupXmlParser.obj
 0001:0008ffc4       ?getInstance@XmlParser@prv_fixup@@SAPEAV12@PEBV?$basic_string@DU?$char_traits@D@std@@V?$allocator@D@2@@std@@@Z 0000000140090fc4 f   oraexectask:prvFixupXmlParser.obj
 0001:000901ee       ?getInstance@XmlParser@prv_fixup@@SAPEAV12@XZ 00000001400911ee f   oraexectask:prvFixupXmlParser.obj
 0001:0009042a       ?dispose@XmlParser@prv_fixup@@SAXXZ 000000014009142a f   oraexectask:prvFixupXmlParser.obj
 0001:0009058c       ?saveXmlToFile@XmlParser@prv_fixup@@QEAAXPEBV?$basic_string@DU?$char_traits@D@std@@V?$allocator@D@2@@std@@@Z 000000014009158c f   oraexectask:prvFixupXmlParser.obj
 0001:00090ae6       ?updateOutPutXMLWithResult@XmlParser@prv_fixup@@QEAAXPEBVFixupData@2@PEAVResult@2@AEBH@Z 0000000140091ae6 f   oraexectask:prvFixupXmlParser.obj
 0001:00091f42       ?getFixupDataFromXml@XmlParser@prv_fixup@@QEBA?AV?$vector@PEAVFixupData@prv_fixup@@V?$allocator@PEAVFixupData@prv_fixup@@@std@@@std@@XZ 0000000140092f42 f   oraexectask:prvFixupXmlParser.obj
 0001:00093a8c       ??$construct@PEAVFixupTask@prv_fixup@@AEAPEAV12@@?$allocator@PEAVFixupTask@prv_fixup@@@std@@QEAAXPEAPEAVFixupTask@prv_fixup@@AEAPEAV23@@Z 0000000140094a8c f i oraexectask:prvFixupFactory.obj
 0001:00093b78       ??$construct@PEAVFixupTask@prv_fixup@@AEAPEAV12@@?$allocator_traits@V?$allocator@PEAVFixupTask@prv_fixup@@@std@@@std@@SAXAEAV?$allocator@PEAVFixupTask@prv_fixup@@@1@PEAPEAVFixupTask@prv_fixup@@AEAPEAV34@@Z 0000000140094b78 f i oraexectask:prvFixupFactory.obj
 0001:00093bd0       ??$construct@PEAVFixupTask@prv_fixup@@AEAPEAV12@@?$_Wrap_alloc@V?$allocator@PEAVFixupTask@prv_fixup@@@std@@@std@@QEAAXPEAPEAVFixupTask@prv_fixup@@AEAPEAV23@@Z 0000000140094bd0 f i oraexectask:prvFixupFactory.obj
 0001:00093c28       ??0?$vector@PEAVFixupTask@prv_fixup@@V?$allocator@PEAVFixupTask@prv_fixup@@@std@@@std@@QEAA@AEBV01@@Z 0000000140094c28 f i oraexectask:prvFixupFactory.obj
 0001:00093db8       ?push_back@?$vector@PEAVFixupTask@prv_fixup@@V?$allocator@PEAVFixupTask@prv_fixup@@@std@@@std@@QEAAXAEBQEAVFixupTask@prv_fixup@@@Z 0000000140094db8 f i oraexectask:prvFixupFactory.obj
 0001:00093f78       ?_Inside@?$vector@PEAVNLSError@prv_fixup@@V?$allocator@PEAVNLSError@prv_fixup@@@std@@@std@@IEBA_NPEBQEAVNLSError@prv_fixup@@@Z 0000000140094f78 f i oraexectask:prvFixupResult.obj
 0001:00093f78       ?_Inside@?$vector@PEAVFixupTask@prv_fixup@@V?$allocator@PEAVFixupTask@prv_fixup@@@std@@@std@@IEBA_NPEBQEAVFixupTask@prv_fixup@@@Z 0000000140094f78 f i oraexectask:prvFixupFactory.obj
 0001:00093f78       ?_Inside@?$vector@PEAVXmlNode@prv_fixup@@V?$allocator@PEAVXmlNode@prv_fixup@@@std@@@std@@IEBA_NPEBQEAVXmlNode@prv_fixup@@@Z 0000000140094f78 f i oraexectask:prvFixupXmlNode.obj
 0001:00093f78       ?_Inside@?$vector@V?$basic_string@DU?$char_traits@D@std@@V?$allocator@D@2@@std@@V?$allocator@V?$basic_string@DU?$char_traits@D@std@@V?$allocator@D@2@@std@@@2@@std@@IEBA_NPEBV?$basic_string@DU?$char_traits@D@std@@V?$allocator@D@2@@2@@Z 0000000140094f78 f i oraexectask:prvFixupUtility.obj
 0001:00093f78       ?_Inside@?$vector@PEAVScript@prv_fixup@@V?$allocator@PEAVScript@prv_fixup@@@std@@@std@@IEBA_NPEBQEAVScript@prv_fixup@@@Z 0000000140094f78 f i oraexectask:prvFixupTaskData.obj
 0001:00093f78       ?_Inside@?$vector@PEAVFixupData@prv_fixup@@V?$allocator@PEAVFixupData@prv_fixup@@@std@@@std@@IEBA_NPEBQEAVFixupData@prv_fixup@@@Z 0000000140094f78 f i oraexectask:prvFixupXmlParser.obj
 0001:00093f78       ?_Inside@?$vector@PEAVNativeError@prv_fixup@@V?$allocator@PEAVNativeError@prv_fixup@@@std@@@std@@IEBA_NPEBQEAVNativeError@prv_fixup@@@Z 0000000140094f78 f i oraexectask:prvFixupResult.obj
 0001:00093f78       ?_Inside@?$vector@PEBV?$basic_string@DU?$char_traits@D@std@@V?$allocator@D@2@@std@@V?$allocator@PEBV?$basic_string@DU?$char_traits@D@std@@V?$allocator@D@2@@std@@@2@@std@@IEBA_NPEBQEBV?$basic_string@DU?$char_traits@D@std@@V?$allocator@D@2@@2@@Z 0000000140094f78 f i oraexectask:sprvFixupUtility.obj
 0001:00093f78       ?_Inside@?$vector@PEAVNameValuePair@prv_fixup@@V?$allocator@PEAVNameValuePair@prv_fixup@@@std@@@std@@IEBA_NPEBQEAVNameValuePair@prv_fixup@@@Z 0000000140094f78 f i oraexectask:prvFixupXmlNode.obj
 0001:00093fd8       ?_Reallocate@?$vector@PEAVFixupTask@prv_fixup@@V?$allocator@PEAVFixupTask@prv_fixup@@@std@@@std@@IEAAX_K@Z 0000000140094fd8 f i oraexectask:prvFixupFactory.obj
 0001:00094214       ?_Reserve@?$vector@PEAVFixupTask@prv_fixup@@V?$allocator@PEAVFixupTask@prv_fixup@@@std@@@std@@IEAAX_K@Z 0000000140095214 f i oraexectask:prvFixupFactory.obj
 0001:000942cc       ?addTaskToList@FixupTaskFactory@prv_fixup@@AEAAXPEAVFixupTask@2@@Z 00000001400952cc f   oraexectask:prvFixupFactory.obj
 0001:00094962       ??0FixupTaskFactory@prv_fixup@@QEAA@V?$vector@PEAVFixupData@prv_fixup@@V?$allocator@PEAVFixupData@prv_fixup@@@std@@@std@@@Z 0000000140095962 f   oraexectask:prvFixupFactory.obj
 0001:00094ab0       ?getTasksList@FixupTaskFactory@prv_fixup@@QEAA?AV?$vector@PEAVFixupTask@prv_fixup@@V?$allocator@PEAVFixupTask@prv_fixup@@@std@@@std@@PEBV?$basic_string@DU?$char_traits@D@std@@V?$allocator@D@2@@4@@Z 0000000140095ab0 f   oraexectask:prvFixupFactory.obj
 0001:00097a18       ??_EFixupTask@prv_fixup@@UEAAPEAXI@Z 0000000140098a18 f i oraexectask:prvFixupTask.obj
 0001:00097a18       ??_GFixupTask@prv_fixup@@UEAAPEAXI@Z 0000000140098a18 f i oraexectask:prvFixupTask.obj
 0001:00097a5c       ??0?$vector@PEAVFixupData@prv_fixup@@V?$allocator@PEAVFixupData@prv_fixup@@@std@@@std@@QEAA@AEBV01@@Z 0000000140098a5c f i oraexectask:prvFixupTask.obj
 0001:00097bec       ??D?$_String_const_iterator@V?$_String_val@U?$_Simple_types@D@std@@@std@@@std@@QEBAAEBDXZ 0000000140098bec f i oraexectask:prvFixupTrace.obj
 0001:00097bec       ?getFacility@NLSError@prv_fixup@@QEBAPEBV?$basic_string@DU?$char_traits@D@std@@V?$allocator@D@2@@std@@XZ 0000000140098bec f i oraexectask:prvFixupUtility.obj
 0001:00097bec       ?_Unchecked@?$_Vector_const_iterator@V?$_Vector_val@U?$_Simple_types@PEAVFixupTask@prv_fixup@@@std@@@std@@@std@@QEBAPEBQEAVFixupTask@prv_fixup@@XZ 0000000140098bec f i oraexectask:prvFixupFactory.obj
 0001:00097bec       ?_Unchecked@?$_Vector_const_iterator@V?$_Vector_val@U?$_Simple_types@PEAVScript@prv_fixup@@@std@@@std@@@std@@QEBAPEBQEAVScript@prv_fixup@@XZ 0000000140098bec f i oraexectask:prvFixupTaskData.obj
 0001:00097bec       ?_Unchecked@?$_Vector_const_iterator@V?$_Vector_val@U?$_Simple_types@V?$basic_string@DU?$char_traits@D@std@@V?$allocator@D@2@@std@@@std@@@std@@@std@@QEBAPEBV?$basic_string@DU?$char_traits@D@std@@V?$allocator@D@2@@2@XZ 0000000140098bec f i oraexectask:prvFixupUtility.obj
 0001:00097bec       ?_Unchecked@?$_Vector_const_iterator@V?$_Vector_val@U?$_Simple_types@PEAVFixupData@prv_fixup@@@std@@@std@@@std@@QEBAPEBQEAVFixupData@prv_fixup@@XZ 0000000140098bec f i oraexectask:prvFixupTask.obj
 0001:00097bec       ?_Unchecked@?$_Vector_const_iterator@V?$_Vector_val@U?$_Simple_types@PEAVNLSError@prv_fixup@@@std@@@std@@@std@@QEBAPEBQEAVNLSError@prv_fixup@@XZ 0000000140098bec f i oraexectask:prvFixupResult.obj
 0001:00097bec       ?_Unchecked@?$_Vector_const_iterator@V?$_Vector_val@U?$_Simple_types@PEBV?$basic_string@DU?$char_traits@D@std@@V?$allocator@D@2@@std@@@std@@@std@@@std@@QEBAPEBQEBV?$basic_string@DU?$char_traits@D@std@@V?$allocator@D@2@@2@XZ 0000000140098bec f i oraexectask:sprvFixupUtility.obj
 0001:00097bec       ?_Unchecked@?$_Vector_const_iterator@V?$_Vector_val@U?$_Simple_types@PEAVNameValuePair@prv_fixup@@@std@@@std@@@std@@QEBAPEBQEAVNameValuePair@prv_fixup@@XZ 0000000140098bec f i oraexectask:prvFixupXmlNode.obj
 0001:00097bec       ??D?$_Vector_const_iterator@V?$_Vector_val@U?$_Simple_types@V?$basic_string@DU?$char_traits@D@std@@V?$allocator@D@2@@std@@@std@@@std@@@std@@QEBAAEBV?$basic_string@DU?$char_traits@D@std@@V?$allocator@D@2@@1@XZ 0000000140098bec f i oraexectask:prvFixupXmlParser.obj
 0001:00097bec       ?_Unchecked@?$_Vector_const_iterator@V?$_Vector_val@U?$_Simple_types@PEAVXmlNode@prv_fixup@@@std@@@std@@@std@@QEBAPEBQEAVXmlNode@prv_fixup@@XZ 0000000140098bec f i oraexectask:prvFixupXmlNode.obj
 0001:00097bec       ?_Unchecked@?$_Vector_const_iterator@V?$_Vector_val@U?$_Simple_types@PEAVNativeError@prv_fixup@@@std@@@std@@@std@@QEBAPEBQEAVNativeError@prv_fixup@@XZ 0000000140098bec f i oraexectask:prvFixupResult.obj
 0001:00097c0c       ??$_Unchecked@V?$_Vector_val@U?$_Simple_types@PEAVFixupData@prv_fixup@@@std@@@std@@@std@@YAPEBQEAVFixupData@prv_fixup@@V?$_Vector_const_iterator@V?$_Vector_val@U?$_Simple_types@PEAVFixupData@prv_fixup@@@std@@@std@@@0@@Z 0000000140098c0c f i oraexectask:prvFixupTask.obj
 0001:00097c0c       ??$_Unchecked@V?$_Vector_val@U?$_Simple_types@V?$basic_string@DU?$char_traits@D@std@@V?$allocator@D@2@@std@@@std@@@std@@@std@@YAPEBV?$basic_string@DU?$char_traits@D@std@@V?$allocator@D@2@@0@V?$_Vector_const_iterator@V?$_Vector_val@U?$_Simple_types@V?$basic_string@DU?$char_traits@D@std@@V?$allocator@D@2@@std@@@std@@@std@@@0@@Z 0000000140098c0c f i oraexectask:prvFixupUtility.obj
 0001:00097c0c       ??$_Unchecked@V?$_Vector_val@U?$_Simple_types@PEAVScript@prv_fixup@@@std@@@std@@@std@@YAPEBQEAVScript@prv_fixup@@V?$_Vector_const_iterator@V?$_Vector_val@U?$_Simple_types@PEAVScript@prv_fixup@@@std@@@std@@@0@@Z 0000000140098c0c f i oraexectask:prvFixupTaskData.obj
 0001:00097c0c       ??$_Unchecked@V?$_Vector_val@U?$_Simple_types@PEBV?$basic_string@DU?$char_traits@D@std@@V?$allocator@D@2@@std@@@std@@@std@@@std@@YAPEBQEBV?$basic_string@DU?$char_traits@D@std@@V?$allocator@D@2@@0@V?$_Vector_const_iterator@V?$_Vector_val@U?$_Simple_types@PEBV?$basic_string@DU?$char_traits@D@std@@V?$allocator@D@2@@std@@@std@@@std@@@0@@Z 0000000140098c0c f i oraexectask:sprvFixupUtility.obj
 0001:00097c0c       ??$_Unchecked@V?$_Vector_val@U?$_Simple_types@PEAVNLSError@prv_fixup@@@std@@@std@@@std@@YAPEBQEAVNLSError@prv_fixup@@V?$_Vector_const_iterator@V?$_Vector_val@U?$_Simple_types@PEAVNLSError@prv_fixup@@@std@@@std@@@0@@Z 0000000140098c0c f i oraexectask:prvFixupResult.obj
 0001:00097c0c       ??$_Unchecked@V?$_Vector_val@U?$_Simple_types@PEAVXmlNode@prv_fixup@@@std@@@std@@@std@@YAPEBQEAVXmlNode@prv_fixup@@V?$_Vector_const_iterator@V?$_Vector_val@U?$_Simple_types@PEAVXmlNode@prv_fixup@@@std@@@std@@@0@@Z 0000000140098c0c f i oraexectask:prvFixupXmlNode.obj
 0001:00097c0c       ??$_Unchecked@V?$_Vector_val@U?$_Simple_types@PEAVFixupTask@prv_fixup@@@std@@@std@@@std@@YAPEBQEAVFixupTask@prv_fixup@@V?$_Vector_const_iterator@V?$_Vector_val@U?$_Simple_types@PEAVFixupTask@prv_fixup@@@std@@@std@@@0@@Z 0000000140098c0c f i oraexectask:prvFixupFactory.obj
 0001:00097c0c       ??$_Unchecked@V?$_Vector_val@U?$_Simple_types@PEAVNativeError@prv_fixup@@@std@@@std@@@std@@YAPEBQEAVNativeError@prv_fixup@@V?$_Vector_const_iterator@V?$_Vector_val@U?$_Simple_types@PEAVNativeError@prv_fixup@@@std@@@std@@@0@@Z 0000000140098c0c f i oraexectask:prvFixupResult.obj
 0001:00097c0c       ??$_Unchecked@V?$_Vector_val@U?$_Simple_types@PEAVNameValuePair@prv_fixup@@@std@@@std@@@std@@YAPEBQEAVNameValuePair@prv_fixup@@V?$_Vector_const_iterator@V?$_Vector_val@U?$_Simple_types@PEAVNameValuePair@prv_fixup@@@std@@@std@@@0@@Z 0000000140098c0c f i oraexectask:prvFixupXmlNode.obj
 0001:00097c34       ??0FixupTask@prv_fixup@@QEAA@PEAVFixupData@1@@Z 0000000140098c34 f   oraexectask:prvFixupTask.obj
 0001:00097cee       ??1FixupTask@prv_fixup@@UEAA@XZ 0000000140098cee f   oraexectask:prvFixupTask.obj
 0001:00097d52       ?addfixupData@FixupTask@prv_fixup@@QEAAXPEAVFixupData@2@@Z 0000000140098d52 f   oraexectask:prvFixupTask.obj
 0001:00097d86       ?addfixupDataList@FixupTask@prv_fixup@@QEAAXV?$vector@PEAVFixupData@prv_fixup@@V?$allocator@PEAVFixupData@prv_fixup@@@std@@@std@@@Z 0000000140098d86 f   oraexectask:prvFixupTask.obj
 0001:00097e4c       ?getDataList@FixupTask@prv_fixup@@QEAA?AV?$vector@PEAVFixupData@prv_fixup@@V?$allocator@PEAVFixupData@prv_fixup@@@std@@@std@@XZ 0000000140098e4c f   oraexectask:prvFixupTask.obj
 0001:00097e88       ?fix@FixupTask@prv_fixup@@QEAAHXZ 0000000140098e88 f   oraexectask:prvFixupTask.obj
 0001:00098efe       ?getTaskID@FixupTask@prv_fixup@@QEBAPEBV?$basic_string@DU?$char_traits@D@std@@V?$allocator@D@2@@std@@XZ 0000000140099efe f   oraexectask:prvFixupTask.obj
 0001:0009a574       ??0?$allocator@PEBV?$basic_string@DU?$char_traits@D@std@@V?$allocator@D@2@@std@@@std@@QEAA@AEBV01@@Z 000000014009b574 f i oraexectask:sprvFixupUtility.obj
 0001:0009a574       ??0?$allocator@PEAVNativeError@prv_fixup@@@std@@QEAA@AEBV01@@Z 000000014009b574 f i oraexectask:prvFixupResult.obj
 0001:0009a574       ??0?$allocator@PEAVXmlNode@prv_fixup@@@std@@QEAA@AEBV01@@Z 000000014009b574 f i oraexectask:prvFixupXmlNode.obj
 0001:0009a574       ??0?$allocator@D@std@@QEAA@AEBV01@@Z 000000014009b574 f i oraexectask:prvFixupMain.obj
 0001:0009a574       ??$_Iter_cat@V?$move_iterator@V?$_Vector_iterator@V?$_Vector_val@U?$_Simple_types@V?$basic_string@DU?$char_traits@D@std@@V?$allocator@D@2@@std@@@std@@@std@@@std@@@std@@@std@@YA?AUrandom_access_iterator_tag@0@AEBV?$move_iterator@V?$_Vector_iterator@V?$_Vector_val@U?$_Simple_types@V?$basic_string@DU?$char_traits@D@std@@V?$allocator@D@2@@std@@@std@@@std@@@std@@@0@@Z 000000014009b574 f i oraexectask:prvFixupXmlParser.obj
 0001:0009a574       ??0?$allocator@PEAVFixupData@prv_fixup@@@std@@QEAA@AEBV01@@Z 000000014009b574 f i oraexectask:prvFixupTask.obj
 0001:0009a574       ??0?$allocator@PEAVScript@prv_fixup@@@std@@QEAA@AEBV01@@Z 000000014009b574 f i oraexectask:prvFixupTaskData.obj
 0001:0009a574       ??0?$allocator@PEAVNameValuePair@prv_fixup@@@std@@QEAA@AEBV01@@Z 000000014009b574 f i oraexectask:prvFixupXmlNode.obj
 0001:0009a574       ??0?$allocator@PEAVNLSError@prv_fixup@@@std@@QEAA@AEBV01@@Z 000000014009b574 f i oraexectask:prvFixupResult.obj
 0001:0009a574       ??0?$allocator@V?$basic_string@DU?$char_traits@D@std@@V?$allocator@D@2@@std@@@std@@QEAA@AEBV01@@Z 000000014009b574 f i oraexectask:prvFixupUtility.obj
 0001:0009a574       ??0?$allocator@PEAVFixupTask@prv_fixup@@@std@@QEAA@AEBV01@@Z 000000014009b574 f i oraexectask:prvFixupFactory.obj
 0001:0009a598       ??$construct@PEAVScript@prv_fixup@@AEAPEAV12@@?$allocator@PEAVScript@prv_fixup@@@std@@QEAAXPEAPEAVScript@prv_fixup@@AEAPEAV23@@Z 000000014009b598 f i oraexectask:prvFixupTaskData.obj
 0001:0009a684       ??$construct@PEAVScript@prv_fixup@@AEAPEAV12@@?$allocator_traits@V?$allocator@PEAVScript@prv_fixup@@@std@@@std@@SAXAEAV?$allocator@PEAVScript@prv_fixup@@@1@PEAPEAVScript@prv_fixup@@AEAPEAV34@@Z 000000014009b684 f i oraexectask:prvFixupTaskData.obj
 0001:0009a6dc       ??0?$_Wrap_alloc@V?$allocator@PEAVFixupData@prv_fixup@@@std@@@std@@QEAA@AEBV?$allocator@PEAVFixupData@prv_fixup@@@1@@Z 000000014009b6dc f i oraexectask:prvFixupTask.obj
 0001:0009a6dc       ??0?$_Wrap_alloc@V?$allocator@PEBV?$basic_string@DU?$char_traits@D@std@@V?$allocator@D@2@@std@@@std@@@std@@QEAA@AEBV?$allocator@PEBV?$basic_string@DU?$char_traits@D@std@@V?$allocator@D@2@@std@@@1@@Z 000000014009b6dc f i oraexectask:sprvFixupUtility.obj
 0001:0009a6dc       ??0?$_Wrap_alloc@V?$allocator@V?$basic_string@DU?$char_traits@D@std@@V?$allocator@D@2@@std@@@std@@@std@@QEAA@AEBV?$allocator@V?$basic_string@DU?$char_traits@D@std@@V?$allocator@D@2@@std@@@1@@Z 000000014009b6dc f i oraexectask:prvFixupUtility.obj
 0001:0009a6dc       ??0?$_Wrap_alloc@V?$allocator@PEAVFixupTask@prv_fixup@@@std@@@std@@QEAA@AEBV?$allocator@PEAVFixupTask@prv_fixup@@@1@@Z 000000014009b6dc f i oraexectask:prvFixupFactory.obj
 0001:0009a6dc       ??0?$_Wrap_alloc@V?$allocator@PEAVScript@prv_fixup@@@std@@@std@@QEAA@AEBV?$allocator@PEAVScript@prv_fixup@@@1@@Z 000000014009b6dc f i oraexectask:prvFixupTaskData.obj
 0001:0009a6dc       ??0?$_Wrap_alloc@V?$allocator@PEAVXmlNode@prv_fixup@@@std@@@std@@QEAA@AEBV?$allocator@PEAVXmlNode@prv_fixup@@@1@@Z 000000014009b6dc f i oraexectask:prvFixupXmlNode.obj
 0001:0009a6dc       ??0?$_Wrap_alloc@V?$allocator@PEAVNativeError@prv_fixup@@@std@@@std@@QEAA@AEBV?$allocator@PEAVNativeError@prv_fixup@@@1@@Z 000000014009b6dc f i oraexectask:prvFixupResult.obj
 0001:0009a6dc       ??0?$_Wrap_alloc@V?$allocator@D@std@@@std@@QEAA@AEBV?$allocator@D@1@@Z 000000014009b6dc f i oraexectask:prvFixupConstants.obj
 0001:0009a6dc       ??0?$_Wrap_alloc@V?$allocator@PEAVNameValuePair@prv_fixup@@@std@@@std@@QEAA@AEBV?$allocator@PEAVNameValuePair@prv_fixup@@@1@@Z 000000014009b6dc f i oraexectask:prvFixupXmlNode.obj
 0001:0009a6dc       ??0?$_Wrap_alloc@V?$allocator@PEAVNLSError@prv_fixup@@@std@@@std@@QEAA@AEBV?$allocator@PEAVNLSError@prv_fixup@@@1@@Z 000000014009b6dc f i oraexectask:prvFixupResult.obj
 0001:0009a714       ??$construct@PEAVScript@prv_fixup@@AEAPEAV12@@?$_Wrap_alloc@V?$allocator@PEAVScript@prv_fixup@@@std@@@std@@QEAAXPEAPEAVScript@prv_fixup@@AEAPEAV23@@Z 000000014009b714 f i oraexectask:prvFixupTaskData.obj
 0001:0009a76c       ??0?$vector@PEAVScript@prv_fixup@@V?$allocator@PEAVScript@prv_fixup@@@std@@@std@@QEAA@AEBV01@@Z 000000014009b76c f i oraexectask:prvFixupTaskData.obj
 0001:0009a8fc       ?_Unused_capacity@?$vector@PEBV?$basic_string@DU?$char_traits@D@std@@V?$allocator@D@2@@std@@V?$allocator@PEBV?$basic_string@DU?$char_traits@D@std@@V?$allocator@D@2@@std@@@2@@std@@QEBA_KXZ 000000014009b8fc f i oraexectask:sprvFixupUtility.obj
 0001:0009a8fc       ?_Unused_capacity@?$vector@PEAVScript@prv_fixup@@V?$allocator@PEAVScript@prv_fixup@@@std@@@std@@QEBA_KXZ 000000014009b8fc f i oraexectask:prvFixupTaskData.obj
 0001:0009a8fc       ?_Unused_capacity@?$vector@PEAVFixupTask@prv_fixup@@V?$allocator@PEAVFixupTask@prv_fixup@@@std@@@std@@QEBA_KXZ 000000014009b8fc f i oraexectask:prvFixupFactory.obj
 0001:0009a8fc       ?_Unused_capacity@?$vector@PEAVFixupData@prv_fixup@@V?$allocator@PEAVFixupData@prv_fixup@@@std@@@std@@QEBA_KXZ 000000014009b8fc f i oraexectask:prvFixupXmlParser.obj
 0001:0009a8fc       ?_Unused_capacity@?$vector@PEAVNameValuePair@prv_fixup@@V?$allocator@PEAVNameValuePair@prv_fixup@@@std@@@std@@QEBA_KXZ 000000014009b8fc f i oraexectask:prvFixupXmlNode.obj
 0001:0009a8fc       ?_Unused_capacity@?$vector@PEAVXmlNode@prv_fixup@@V?$allocator@PEAVXmlNode@prv_fixup@@@std@@@std@@QEBA_KXZ 000000014009b8fc f i oraexectask:prvFixupXmlNode.obj
 0001:0009a8fc       ?_Unused_capacity@?$vector@PEAVNLSError@prv_fixup@@V?$allocator@PEAVNLSError@prv_fixup@@@std@@@std@@QEBA_KXZ 000000014009b8fc f i oraexectask:prvFixupResult.obj
 0001:0009a8fc       ?_Unused_capacity@?$vector@PEAVNativeError@prv_fixup@@V?$allocator@PEAVNativeError@prv_fixup@@@std@@@std@@QEBA_KXZ 000000014009b8fc f i oraexectask:prvFixupResult.obj
 0001:0009a934       ?size@?$vector@PEAVFixupTask@prv_fixup@@V?$allocator@PEAVFixupTask@prv_fixup@@@std@@@std@@QEBA_KXZ 000000014009b934 f i oraexectask:prvFixupHandler.obj
 0001:0009a934       ?size@?$vector@PEAVFixupData@prv_fixup@@V?$allocator@PEAVFixupData@prv_fixup@@@std@@@std@@QEBA_KXZ 000000014009b934 f i oraexectask:prvFixupXmlParser.obj
 0001:0009a934       ?size@?$vector@PEBV?$basic_string@DU?$char_traits@D@std@@V?$allocator@D@2@@std@@V?$allocator@PEBV?$basic_string@DU?$char_traits@D@std@@V?$allocator@D@2@@std@@@2@@std@@QEBA_KXZ 000000014009b934 f i oraexectask:sprvFixupUtility.obj
 0001:0009a934       ?size@?$vector@PEAVNLSError@prv_fixup@@V?$allocator@PEAVNLSError@prv_fixup@@@std@@@std@@QEBA_KXZ 000000014009b934 f i oraexectask:prvFixupUtility.obj
 0001:0009a934       ?size@?$vector@PEAVNameValuePair@prv_fixup@@V?$allocator@PEAVNameValuePair@prv_fixup@@@std@@@std@@QEBA_KXZ 000000014009b934 f i oraexectask:prvFixupUtility.obj
 0001:0009a934       ?size@?$vector@PEAVNativeError@prv_fixup@@V?$allocator@PEAVNativeError@prv_fixup@@@std@@@std@@QEBA_KXZ 000000014009b934 f i oraexectask:prvFixupResult.obj
 0001:0009a934       ?size@?$vector@PEAVXmlNode@prv_fixup@@V?$allocator@PEAVXmlNode@prv_fixup@@@std@@@std@@QEBA_KXZ 000000014009b934 f i oraexectask:prvFixupUtility.obj
 0001:0009a934       ?size@?$vector@PEAVScript@prv_fixup@@V?$allocator@PEAVScript@prv_fixup@@@std@@@std@@QEBA_KXZ 000000014009b934 f i oraexectask:prvFixupTaskData.obj
 0001:0009a96c       ?push_back@?$vector@PEAVScript@prv_fixup@@V?$allocator@PEAVScript@prv_fixup@@@std@@@std@@QEAAXAEBQEAVScript@prv_fixup@@@Z 000000014009b96c f i oraexectask:prvFixupTaskData.obj
 0001:0009ab2c       ?_Destroy@?$vector@PEAVNativeError@prv_fixup@@V?$allocator@PEAVNativeError@prv_fixup@@@std@@@std@@IEAAXPEAPEAVNativeError@prv_fixup@@0@Z 000000014009bb2c f i oraexectask:prvFixupResult.obj
 0001:0009ab2c       ?_Destroy@?$vector@PEAVNameValuePair@prv_fixup@@V?$allocator@PEAVNameValuePair@prv_fixup@@@std@@@std@@IEAAXPEAPEAVNameValuePair@prv_fixup@@0@Z 000000014009bb2c f i oraexectask:prvFixupUtility.obj
 0001:0009ab2c       ?_Destroy@?$vector@PEAVFixupData@prv_fixup@@V?$allocator@PEAVFixupData@prv_fixup@@@std@@@std@@IEAAXPEAPEAVFixupData@prv_fixup@@0@Z 000000014009bb2c f i oraexectask:prvFixupHandler.obj
 0001:0009ab2c       ?_Destroy@?$vector@PEAVXmlNode@prv_fixup@@V?$allocator@PEAVXmlNode@prv_fixup@@@std@@@std@@IEAAXPEAPEAVXmlNode@prv_fixup@@0@Z 000000014009bb2c f i oraexectask:prvFixupUtility.obj
 0001:0009ab2c       ?_Destroy@?$vector@PEAVFixupTask@prv_fixup@@V?$allocator@PEAVFixupTask@prv_fixup@@@std@@@std@@IEAAXPEAPEAVFixupTask@prv_fixup@@0@Z 000000014009bb2c f i oraexectask:prvFixupHandler.obj
 0001:0009ab2c       ?_Destroy@?$vector@PEAVScript@prv_fixup@@V?$allocator@PEAVScript@prv_fixup@@@std@@@std@@IEAAXPEAPEAVScript@prv_fixup@@0@Z 000000014009bb2c f i oraexectask:prvFixupTaskData.obj
 0001:0009ab2c       ?_Destroy@?$vector@PEBV?$basic_string@DU?$char_traits@D@std@@V?$allocator@D@2@@std@@V?$allocator@PEBV?$basic_string@DU?$char_traits@D@std@@V?$allocator@D@2@@std@@@2@@std@@IEAAXPEAPEBV?$basic_string@DU?$char_traits@D@std@@V?$allocator@D@2@@2@0@Z 000000014009bb2c f i oraexectask:sprvFixupUtility.obj
 0001:0009ab2c       ?_Destroy@?$vector@PEAVNLSError@prv_fixup@@V?$allocator@PEAVNLSError@prv_fixup@@@std@@@std@@IEAAXPEAPEAVNLSError@prv_fixup@@0@Z 000000014009bb2c f i oraexectask:prvFixupUtility.obj
 0001:0009ab88       ?_Reallocate@?$vector@PEAVScript@prv_fixup@@V?$allocator@PEAVScript@prv_fixup@@@std@@@std@@IEAAX_K@Z 000000014009bb88 f i oraexectask:prvFixupTaskData.obj
 0001:0009adc4       ?_Reserve@?$vector@PEAVScript@prv_fixup@@V?$allocator@PEAVScript@prv_fixup@@@std@@@std@@IEAAX_K@Z 000000014009bdc4 f i oraexectask:prvFixupTaskData.obj
 0001:0009ae7c       ?_Tidy@?$vector@PEAVNativeError@prv_fixup@@V?$allocator@PEAVNativeError@prv_fixup@@@std@@@std@@IEAAXXZ 000000014009be7c f i oraexectask:prvFixupResult.obj
 0001:0009ae7c       ?_Tidy@?$vector@PEBV?$basic_string@DU?$char_traits@D@std@@V?$allocator@D@2@@std@@V?$allocator@PEBV?$basic_string@DU?$char_traits@D@std@@V?$allocator@D@2@@std@@@2@@std@@IEAAXXZ 000000014009be7c f i oraexectask:sprvFixupUtility.obj
 0001:0009ae7c       ?_Tidy@?$vector@PEAVFixupTask@prv_fixup@@V?$allocator@PEAVFixupTask@prv_fixup@@@std@@@std@@IEAAXXZ 000000014009be7c f i oraexectask:prvFixupHandler.obj
 0001:0009ae7c       ?_Tidy@?$vector@PEAVFixupData@prv_fixup@@V?$allocator@PEAVFixupData@prv_fixup@@@std@@@std@@IEAAXXZ 000000014009be7c f i oraexectask:prvFixupHandler.obj
 0001:0009ae7c       ?_Tidy@?$vector@PEAVNameValuePair@prv_fixup@@V?$allocator@PEAVNameValuePair@prv_fixup@@@std@@@std@@IEAAXXZ 000000014009be7c f i oraexectask:prvFixupUtility.obj
 0001:0009ae7c       ?_Tidy@?$vector@PEAVXmlNode@prv_fixup@@V?$allocator@PEAVXmlNode@prv_fixup@@@std@@@std@@IEAAXXZ 000000014009be7c f i oraexectask:prvFixupUtility.obj
 0001:0009ae7c       ?_Tidy@?$vector@PEAVNLSError@prv_fixup@@V?$allocator@PEAVNLSError@prv_fixup@@@std@@@std@@IEAAXXZ 000000014009be7c f i oraexectask:prvFixupUtility.obj
 0001:0009ae7c       ?_Tidy@?$vector@PEAVScript@prv_fixup@@V?$allocator@PEAVScript@prv_fixup@@@std@@@std@@IEAAXXZ 000000014009be7c f i oraexectask:prvFixupTaskData.obj
 0001:0009af48       ?_Orphan_range@?$vector@PEAVXmlNode@prv_fixup@@V?$allocator@PEAVXmlNode@prv_fixup@@@std@@@std@@IEBAXPEAPEAVXmlNode@prv_fixup@@0@Z 000000014009bf48 f i oraexectask:prvFixupXmlNode.obj
 0001:0009af48       ?_Orphan_range@?$vector@PEAVFixupData@prv_fixup@@V?$allocator@PEAVFixupData@prv_fixup@@@std@@@std@@IEBAXPEAPEAVFixupData@prv_fixup@@0@Z 000000014009bf48 f i oraexectask:prvFixupXmlParser.obj
 0001:0009af48       ?_Orphan_range@?$vector@PEBV?$basic_string@DU?$char_traits@D@std@@V?$allocator@D@2@@std@@V?$allocator@PEBV?$basic_string@DU?$char_traits@D@std@@V?$allocator@D@2@@std@@@2@@std@@IEBAXPEAPEBV?$basic_string@DU?$char_traits@D@std@@V?$allocator@D@2@@2@0@Z 000000014009bf48 f i oraexectask:sprvFixupUtility.obj
 0001:0009af48       ?_Orphan_range@?$vector@PEAVNativeError@prv_fixup@@V?$allocator@PEAVNativeError@prv_fixup@@@std@@@std@@IEBAXPEAPEAVNativeError@prv_fixup@@0@Z 000000014009bf48 f i oraexectask:prvFixupResult.obj
 0001:0009af48       ?_Orphan_range@?$vector@PEAVFixupTask@prv_fixup@@V?$allocator@PEAVFixupTask@prv_fixup@@@std@@@std@@IEBAXPEAPEAVFixupTask@prv_fixup@@0@Z 000000014009bf48 f i oraexectask:prvFixupFactory.obj
 0001:0009af48       ?_Orphan_range@?$vector@PEAVScript@prv_fixup@@V?$allocator@PEAVScript@prv_fixup@@@std@@@std@@IEBAXPEAPEAVScript@prv_fixup@@0@Z 000000014009bf48 f i oraexectask:prvFixupTaskData.obj
 0001:0009af48       ?_Orphan_range@?$vector@V?$basic_string@DU?$char_traits@D@std@@V?$allocator@D@2@@std@@V?$allocator@V?$basic_string@DU?$char_traits@D@std@@V?$allocator@D@2@@std@@@2@@std@@IEBAXPEAV?$basic_string@DU?$char_traits@D@std@@V?$allocator@D@2@@2@0@Z 000000014009bf48 f i oraexectask:prvFixupUtility.obj
 0001:0009af48       ?_Orphan_range@?$vector@PEAVNLSError@prv_fixup@@V?$allocator@PEAVNLSError@prv_fixup@@@std@@@std@@IEBAXPEAPEAVNLSError@prv_fixup@@0@Z 000000014009bf48 f i oraexectask:prvFixupResult.obj
 0001:0009af48       ?_Orphan_range@?$vector@PEAVNameValuePair@prv_fixup@@V?$allocator@PEAVNameValuePair@prv_fixup@@@std@@@std@@IEBAXPEAPEAVNameValuePair@prv_fixup@@0@Z 000000014009bf48 f i oraexectask:prvFixupXmlNode.obj
 0001:0009af70       ??$_Destroy_range@U?$_Wrap_alloc@V?$allocator@PEAVXmlNode@prv_fixup@@@std@@@std@@@std@@YAXPEAPEAVXmlNode@prv_fixup@@0AEAU?$_Wrap_alloc@V?$allocator@PEAVXmlNode@prv_fixup@@@std@@@0@@Z 000000014009bf70 f i oraexectask:prvFixupUtility.obj
 0001:0009af70       ??$_Destroy_range@U?$_Wrap_alloc@V?$allocator@PEBV?$basic_string@DU?$char_traits@D@std@@V?$allocator@D@2@@std@@@std@@@std@@@std@@YAXPEAPEBV?$basic_string@DU?$char_traits@D@std@@V?$allocator@D@2@@0@0AEAU?$_Wrap_alloc@V?$allocator@PEBV?$basic_string@DU?$char_traits@D@std@@V?$allocator@D@2@@std@@@std@@@0@@Z 000000014009bf70 f i oraexectask:sprvFixupUtility.obj
 0001:0009af70       ??$_Destroy_range@U?$_Wrap_alloc@V?$allocator@PEAVScript@prv_fixup@@@std@@@std@@@std@@YAXPEAPEAVScript@prv_fixup@@0AEAU?$_Wrap_alloc@V?$allocator@PEAVScript@prv_fixup@@@std@@@0@@Z 000000014009bf70 f i oraexectask:prvFixupTaskData.obj
 0001:0009af70       ??$_Destroy_range@U?$_Wrap_alloc@V?$allocator@PEAVNativeError@prv_fixup@@@std@@@std@@@std@@YAXPEAPEAVNativeError@prv_fixup@@0AEAU?$_Wrap_alloc@V?$allocator@PEAVNativeError@prv_fixup@@@std@@@0@@Z 000000014009bf70 f i oraexectask:prvFixupResult.obj
 0001:0009af70       ??$_Destroy_range@U?$_Wrap_alloc@V?$allocator@PEAVFixupTask@prv_fixup@@@std@@@std@@@std@@YAXPEAPEAVFixupTask@prv_fixup@@0AEAU?$_Wrap_alloc@V?$allocator@PEAVFixupTask@prv_fixup@@@std@@@0@@Z 000000014009bf70 f i oraexectask:prvFixupHandler.obj
 0001:0009af70       ??$_Destroy_range@U?$_Wrap_alloc@V?$allocator@PEAVNameValuePair@prv_fixup@@@std@@@std@@@std@@YAXPEAPEAVNameValuePair@prv_fixup@@0AEAU?$_Wrap_alloc@V?$allocator@PEAVNameValuePair@prv_fixup@@@std@@@0@@Z 000000014009bf70 f i oraexectask:prvFixupUtility.obj
 0001:0009af70       ??$_Destroy_range@U?$_Wrap_alloc@V?$allocator@PEAVNLSError@prv_fixup@@@std@@@std@@@std@@YAXPEAPEAVNLSError@prv_fixup@@0AEAU?$_Wrap_alloc@V?$allocator@PEAVNLSError@prv_fixup@@@std@@@0@@Z 000000014009bf70 f i oraexectask:prvFixupUtility.obj
 0001:0009af70       ??$_Destroy_range@U?$_Wrap_alloc@V?$allocator@PEAVFixupData@prv_fixup@@@std@@@std@@@std@@YAXPEAPEAVFixupData@prv_fixup@@0AEAU?$_Wrap_alloc@V?$allocator@PEAVFixupData@prv_fixup@@@std@@@0@@Z 000000014009bf70 f i oraexectask:prvFixupHandler.obj
 0001:0009afdc       ??$_Destroy_range@U?$_Wrap_alloc@V?$allocator@PEAVXmlNode@prv_fixup@@@std@@@std@@@std@@YAXPEAPEAVXmlNode@prv_fixup@@0AEAU?$_Wrap_alloc@V?$allocator@PEAVXmlNode@prv_fixup@@@std@@@0@U_Scalar_ptr_iterator_tag@0@@Z 000000014009bfdc f i oraexectask:prvFixupUtility.obj
 0001:0009afdc       ??$_Destroy_range@U?$_Wrap_alloc@V?$allocator@PEAVScript@prv_fixup@@@std@@@std@@@std@@YAXPEAPEAVScript@prv_fixup@@0AEAU?$_Wrap_alloc@V?$allocator@PEAVScript@prv_fixup@@@std@@@0@U_Scalar_ptr_iterator_tag@0@@Z 000000014009bfdc f i oraexectask:prvFixupTaskData.obj
 0001:0009afdc       ??$_Destroy_range@U?$_Wrap_alloc@V?$allocator@PEAVNameValuePair@prv_fixup@@@std@@@std@@@std@@YAXPEAPEAVNameValuePair@prv_fixup@@0AEAU?$_Wrap_alloc@V?$allocator@PEAVNameValuePair@prv_fixup@@@std@@@0@U_Scalar_ptr_iterator_tag@0@@Z 000000014009bfdc f i oraexectask:prvFixupUtility.obj
 0001:0009afdc       ??$_Destroy_range@U?$_Wrap_alloc@V?$allocator@PEAVFixupData@prv_fixup@@@std@@@std@@@std@@YAXPEAPEAVFixupData@prv_fixup@@0AEAU?$_Wrap_alloc@V?$allocator@PEAVFixupData@prv_fixup@@@std@@@0@U_Scalar_ptr_iterator_tag@0@@Z 000000014009bfdc f i oraexectask:prvFixupHandler.obj
 0001:0009afdc       ??$_Destroy_range@U?$_Wrap_alloc@V?$allocator@PEBV?$basic_string@DU?$char_traits@D@std@@V?$allocator@D@2@@std@@@std@@@std@@@std@@YAXPEAPEBV?$basic_string@DU?$char_traits@D@std@@V?$allocator@D@2@@0@0AEAU?$_Wrap_alloc@V?$allocator@PEBV?$basic_string@DU?$char_traits@D@std@@V?$allocator@D@2@@std@@@std@@@0@U_Scalar_ptr_iterator_tag@0@@Z 000000014009bfdc f i oraexectask:sprvFixupUtility.obj
 0001:0009afdc       ??$_Destroy_range@U?$_Wrap_alloc@V?$allocator@PEAVNLSError@prv_fixup@@@std@@@std@@@std@@YAXPEAPEAVNLSError@prv_fixup@@0AEAU?$_Wrap_alloc@V?$allocator@PEAVNLSError@prv_fixup@@@std@@@0@U_Scalar_ptr_iterator_tag@0@@Z 000000014009bfdc f i oraexectask:prvFixupUtility.obj
 0001:0009afdc       ??$_Destroy_range@U?$_Wrap_alloc@V?$allocator@PEAVNativeError@prv_fixup@@@std@@@std@@@std@@YAXPEAPEAVNativeError@prv_fixup@@0AEAU?$_Wrap_alloc@V?$allocator@PEAVNativeError@prv_fixup@@@std@@@0@U_Scalar_ptr_iterator_tag@0@@Z 000000014009bfdc f i oraexectask:prvFixupResult.obj
 0001:0009afdc       ??$_Destroy_range@U?$_Wrap_alloc@V?$allocator@PEAVFixupTask@prv_fixup@@@std@@@std@@@std@@YAXPEAPEAVFixupTask@prv_fixup@@0AEAU?$_Wrap_alloc@V?$allocator@PEAVFixupTask@prv_fixup@@@std@@@0@U_Scalar_ptr_iterator_tag@0@@Z 000000014009bfdc f i oraexectask:prvFixupHandler.obj
 0001:0009b008       ??$move@AEAV?$basic_string@DU?$char_traits@D@std@@V?$allocator@D@2@@std@@@std@@YA$$QEAV?$basic_string@DU?$char_traits@D@std@@V?$allocator@D@2@@0@AEAV10@@Z 000000014009c008 f i oraexectask:prvFixupMain.obj
 0001:0009b008       ??$move@AEAV?$basic_istream@DU?$char_traits@D@std@@@std@@@std@@YA$$QEAV?$basic_istream@DU?$char_traits@D@std@@@0@AEAV10@@Z 000000014009c008 f i oraexectask:sprvFixupUtility.obj
 0001:0009b008       ??$addressof@QEAVXmlNode@prv_fixup@@@std@@YAPEBQEAVXmlNode@prv_fixup@@AEBQEAV12@@Z 000000014009c008 f i oraexectask:prvFixupXmlNode.obj
 0001:0009b008       ??$addressof@QEAVNLSError@prv_fixup@@@std@@YAPEBQEAVNLSError@prv_fixup@@AEBQEAV12@@Z 000000014009c008 f i oraexectask:prvFixupResult.obj
 0001:0009b008       ??$addressof@QEAVFixupTask@prv_fixup@@@std@@YAPEBQEAVFixupTask@prv_fixup@@AEBQEAV12@@Z 000000014009c008 f i oraexectask:prvFixupFactory.obj
 0001:0009b008       ??$addressof@QEAVNameValuePair@prv_fixup@@@std@@YAPEBQEAVNameValuePair@prv_fixup@@AEBQEAV12@@Z 000000014009c008 f i oraexectask:prvFixupXmlNode.obj
 0001:0009b008       ??$addressof@QEBV?$basic_string@DU?$char_traits@D@std@@V?$allocator@D@2@@std@@@std@@YAPEBQEBV?$basic_string@DU?$char_traits@D@std@@V?$allocator@D@2@@0@AEBQEBV10@@Z 000000014009c008 f i oraexectask:prvFixupXmlParser.obj
 0001:0009b008       ??$addressof@D@std@@YAPEADAEAD@Z 000000014009c008 f i oraexectask:prvFixupMain.obj
 0001:0009b008       ??$addressof@$$CBV?$basic_string@DU?$char_traits@D@std@@V?$allocator@D@2@@std@@@std@@YAPEBV?$basic_string@DU?$char_traits@D@std@@V?$allocator@D@2@@0@AEBV10@@Z 000000014009c008 f i oraexectask:prvFixupUtility.obj
 0001:0009b008       ??$addressof@PEBV?$basic_string@DU?$char_traits@D@std@@V?$allocator@D@2@@std@@@std@@YAPEAPEBV?$basic_string@DU?$char_traits@D@std@@V?$allocator@D@2@@0@AEAPEBV10@@Z 000000014009c008 f i oraexectask:sprvFixupUtility.obj
 0001:0009b008       ??$addressof@QEAVScript@prv_fixup@@@std@@YAPEBQEAVScript@prv_fixup@@AEBQEAV12@@Z 000000014009c008 f i oraexectask:prvFixupTaskData.obj
 0001:0009b008       ??$addressof@PEAVFixupData@prv_fixup@@@std@@YAPEAPEAVFixupData@prv_fixup@@AEAPEAV12@@Z 000000014009c008 f i oraexectask:prvFixupXmlParser.obj
 0001:0009b008       ??$addressof@QEAVFixupData@prv_fixup@@@std@@YAPEBQEAVFixupData@prv_fixup@@AEBQEAV12@@Z 000000014009c008 f i oraexectask:prvFixupXmlParser.obj
 0001:0009b008       ??$addressof@QEAVNativeError@prv_fixup@@@std@@YAPEBQEAVNativeError@prv_fixup@@AEBQEAV12@@Z 000000014009c008 f i oraexectask:prvFixupResult.obj
 0001:0009b02c       ??_GResult@prv_fixup@@QEAAPEAXI@Z 000000014009c02c f i oraexectask:prvFixupTaskData.obj
 0001:0009b02c       ??_EResult@prv_fixup@@QEAAPEAXI@Z 000000014009c02c f i oraexectask:prvFixupTaskData.obj
 0001:0009b070       ??0FixupData@prv_fixup@@QEAA@PEBV?$basic_string@DU?$char_traits@D@std@@V?$allocator@D@2@@std@@@Z 000000014009c070 f   oraexectask:prvFixupTaskData.obj
 0001:0009b27c       ??1FixupData@prv_fixup@@QEAA@XZ 000000014009c27c f   oraexectask:prvFixupTaskData.obj
 0001:0009b550       ?addData@FixupData@prv_fixup@@QEAAXPEBV?$basic_string@DU?$char_traits@D@std@@V?$allocator@D@2@@std@@0@Z 000000014009c550 f   oraexectask:prvFixupTaskData.obj
 0001:0009b698       ?addScript@FixupData@prv_fixup@@QEAAXPEAVScript@2@@Z 000000014009c698 f   oraexectask:prvFixupTaskData.obj
 0001:0009b6d6       ?addNode@FixupData@prv_fixup@@QEAAXPEBV?$basic_string@DU?$char_traits@D@std@@V?$allocator@D@2@@std@@@Z 000000014009c6d6 f   oraexectask:prvFixupTaskData.obj
 0001:0009b7e4       ?setExpectedValue@FixupData@prv_fixup@@QEAAXPEBV?$basic_string@DU?$char_traits@D@std@@V?$allocator@D@2@@std@@@Z 000000014009c7e4 f   oraexectask:prvFixupTaskData.obj
 0001:0009b8e0       ?setActualValue@FixupData@prv_fixup@@QEAAXPEBV?$basic_string@DU?$char_traits@D@std@@V?$allocator@D@2@@std@@@Z 000000014009c8e0 f   oraexectask:prvFixupTaskData.obj
 0001:0009b9dc       ?setResult@FixupData@prv_fixup@@QEAAXPEAVResult@2@@Z 000000014009c9dc f   oraexectask:prvFixupTaskData.obj
 0001:0009ba08       ?getTaskIDStr@FixupData@prv_fixup@@QEBAPEBV?$basic_string@DU?$char_traits@D@std@@V?$allocator@D@2@@std@@XZ 000000014009ca08 f   oraexectask:prvFixupTaskData.obj
 0001:0009ba28       ?getExpectedValue@FixupData@prv_fixup@@QEBAPEBV?$basic_string@DU?$char_traits@D@std@@V?$allocator@D@2@@std@@XZ 000000014009ca28 f   oraexectask:prvFixupTaskData.obj
 0001:0009ba48       ?getActualValue@FixupData@prv_fixup@@QEBAPEBV?$basic_string@DU?$char_traits@D@std@@V?$allocator@D@2@@std@@XZ 000000014009ca48 f   oraexectask:prvFixupTaskData.obj
 0001:0009ba68       ?getTaskID@FixupData@prv_fixup@@QEBA?AW4TASK_ID@2@XZ 000000014009ca68 f   oraexectask:prvFixupTaskData.obj
 0001:0009ba96       ?getScriptList@FixupData@prv_fixup@@QEBA?AV?$vector@PEAVScript@prv_fixup@@V?$allocator@PEAVScript@prv_fixup@@@std@@@std@@XZ 000000014009ca96 f   oraexectask:prvFixupTaskData.obj
 0001:0009bad2       ?getDataSet@FixupData@prv_fixup@@QEBA?AV?$vector@PEAVNameValuePair@prv_fixup@@V?$allocator@PEAVNameValuePair@prv_fixup@@@std@@@std@@XZ 000000014009cad2 f   oraexectask:prvFixupTaskData.obj
 0001:0009bb0e       ?getParticipatingNodes@FixupData@prv_fixup@@QEBA?AV?$vector@PEBV?$basic_string@DU?$char_traits@D@std@@V?$allocator@D@2@@std@@V?$allocator@PEBV?$basic_string@DU?$char_traits@D@std@@V?$allocator@D@2@@std@@@2@@std@@XZ 000000014009cb0e f   oraexectask:prvFixupTaskData.obj
 0001:0009bb4a       ?appliesToThisNode@FixupData@prv_fixup@@QEBA_NPEBV?$basic_string@DU?$char_traits@D@std@@V?$allocator@D@2@@std@@@Z 000000014009cb4a f   oraexectask:prvFixupTaskData.obj
 0001:0009bcca       ?getResult@FixupData@prv_fixup@@QEBAPEAVResult@2@XZ 000000014009ccca f   oraexectask:prvFixupTaskData.obj
 0001:0009d318       ??_EScript@prv_fixup@@UEAAPEAXI@Z 000000014009e318 f i oraexectask:prvFixupScript.obj
 0001:0009d318       ??_GScript@prv_fixup@@UEAAPEAXI@Z 000000014009e318 f i oraexectask:prvFixupScript.obj
 0001:0009d35c       ??_GShellScript@prv_fixup@@UEAAPEAXI@Z 000000014009e35c f i oraexectask:prvFixupScript.obj
 0001:0009d35c       ??_EShellScript@prv_fixup@@UEAAPEAXI@Z 000000014009e35c f i oraexectask:prvFixupScript.obj
 0001:0009d3a0       ??0Script@prv_fixup@@IEAA@PEBV?$basic_string@DU?$char_traits@D@std@@V?$allocator@D@2@@std@@0@Z 000000014009e3a0 f   oraexectask:prvFixupScript.obj
 0001:0009d542       ?setArgumentList@Script@prv_fixup@@QEAAXV?$vector@PEBV?$basic_string@DU?$char_traits@D@std@@V?$allocator@D@2@@std@@V?$allocator@PEBV?$basic_string@DU?$char_traits@D@std@@V?$allocator@D@2@@std@@@2@@std@@@Z 000000014009e542 f   oraexectask:prvFixupScript.obj
 0001:0009d608       ?getScriptFilePath@Script@prv_fixup@@QEBAPEBV?$basic_string@DU?$char_traits@D@std@@V?$allocator@D@2@@std@@XZ 000000014009e608 f   oraexectask:prvFixupScript.obj
 0001:0009d9c8       ?getArguments@Script@prv_fixup@@QEBA?AV?$vector@PEBV?$basic_string@DU?$char_traits@D@std@@V?$allocator@D@2@@std@@V?$allocator@PEBV?$basic_string@DU?$char_traits@D@std@@V?$allocator@D@2@@std@@@2@@std@@XZ 000000014009e9c8 f   oraexectask:prvFixupScript.obj
 0001:0009da04       ?createScript@Script@prv_fixup@@SAPEAV12@W4_SCRIPT_TYPE@2@PEBV?$basic_string@DU?$char_traits@D@std@@V?$allocator@D@2@@std@@1@Z 000000014009ea04 f   oraexectask:prvFixupScript.obj
 0001:0009db44       ??1Script@prv_fixup@@UEAA@XZ 000000014009eb44 f   oraexectask:prvFixupScript.obj
 0001:0009dba8       ??0ShellScript@prv_fixup@@QEAA@PEBV?$basic_string@DU?$char_traits@D@std@@V?$allocator@D@2@@std@@0@Z 000000014009eba8 f   oraexectask:prvFixupScript.obj
 0001:0009dc06       ??1ShellScript@prv_fixup@@UEAA@XZ 000000014009ec06 f   oraexectask:prvFixupScript.obj
 0001:0009dc38       ?runScript@ShellScript@prv_fixup@@UEAAPEAVResult@2@XZ 000000014009ec38 f   oraexectask:prvFixupScript.obj
 0001:0009fb48       ??_EsTaskSystemSettings@prv_fixup@@UEAAPEAXI@Z 00000001400a0b48 f i oraexectask:ssprvFixupTaskSystemSettings.obj
 0001:0009fb48       ??_GsTaskSystemSettings@prv_fixup@@UEAAPEAXI@Z 00000001400a0b48 f i oraexectask:ssprvFixupTaskSystemSettings.obj
 0001:0009fb8c       ?fix@sTaskSystemSettings@prv_fixup@@MEAAPEAVResult@2@PEAVFixupData@2@@Z 00000001400a0b8c f   oraexectask:ssprvFixupTaskSystemSettings.obj
 0001:0009fc84       ??0sTaskSystemSettings@prv_fixup@@QEAA@PEAVFixupData@1@@Z 00000001400a0c84 f   oraexectask:ssprvFixupTaskSystemSettings.obj
 0001:0009fcca       ??1sTaskSystemSettings@prv_fixup@@UEAA@XZ 00000001400a0cca f   oraexectask:ssprvFixupTaskSystemSettings.obj
 0001:000a1328       ??_GsTaskClusterSettings@prv_fixup@@UEAAPEAXI@Z 00000001400a2328 f i oraexectask:ssprvFixupTaskClusterSettings.obj
 0001:000a1328       ??_EsTaskClusterSettings@prv_fixup@@UEAAPEAXI@Z 00000001400a2328 f i oraexectask:ssprvFixupTaskClusterSettings.obj
 0001:000a136c       ?fix@sTaskClusterSettings@prv_fixup@@MEAAPEAVResult@2@PEAVFixupData@2@@Z 00000001400a236c f   oraexectask:ssprvFixupTaskClusterSettings.obj
 0001:000a1464       ??0sTaskClusterSettings@prv_fixup@@QEAA@PEAVFixupData@1@@Z 00000001400a2464 f   oraexectask:ssprvFixupTaskClusterSettings.obj
 0001:000a14aa       ??1sTaskClusterSettings@prv_fixup@@UEAA@XZ 00000001400a24aa f   oraexectask:ssprvFixupTaskClusterSettings.obj
 0001:000a2b08       ??_GsTaskUserGroupFixup@prv_fixup@@UEAAPEAXI@Z 00000001400a3b08 f i oraexectask:ssprvFixupTaskUserAndGroup.obj
 0001:000a2b08       ??_EsTaskUserGroupFixup@prv_fixup@@UEAAPEAXI@Z 00000001400a3b08 f i oraexectask:ssprvFixupTaskUserAndGroup.obj
 0001:000a2b4c       ?fix@sTaskUserGroupFixup@prv_fixup@@MEAAPEAVResult@2@PEAVFixupData@2@@Z 00000001400a3b4c f   oraexectask:ssprvFixupTaskUserAndGroup.obj
 0001:000a2c44       ??0sTaskUserGroupFixup@prv_fixup@@QEAA@PEAVFixupData@1@@Z 00000001400a3c44 f   oraexectask:ssprvFixupTaskUserAndGroup.obj
 0001:000a2c8a       ??1sTaskUserGroupFixup@prv_fixup@@UEAA@XZ 00000001400a3c8a f   oraexectask:ssprvFixupTaskUserAndGroup.obj
 0001:000a42e8       ??_EsTaskDaemonProcesses@prv_fixup@@UEAAPEAXI@Z 00000001400a52e8 f i oraexectask:ssprvFixupTaskDaemonProcesses.obj
 0001:000a42e8       ??_GsTaskDaemonProcesses@prv_fixup@@UEAAPEAXI@Z 00000001400a52e8 f i oraexectask:ssprvFixupTaskDaemonProcesses.obj
 0001:000a432c       ?fix@sTaskDaemonProcesses@prv_fixup@@MEAAPEAVResult@2@PEAVFixupData@2@@Z 00000001400a532c f   oraexectask:ssprvFixupTaskDaemonProcesses.obj
 0001:000a4424       ??0sTaskDaemonProcesses@prv_fixup@@QEAA@PEAVFixupData@1@@Z 00000001400a5424 f   oraexectask:ssprvFixupTaskDaemonProcesses.obj
 0001:000a446a       ??1sTaskDaemonProcesses@prv_fixup@@UEAA@XZ 00000001400a546a f   oraexectask:ssprvFixupTaskDaemonProcesses.obj
 0001:000a5ae0       ss_snprintf                00000001400a6ae0 f   oracore12:oracore12.dll
 0001:000a5ae6       slzsetevar                 00000001400a6ae6 f   oracore12:oracore12.dll
 0001:000a5aec       lstclo                     00000001400a6aec f   oracore12:oracore12.dll
 0001:000a5af2       lfird                      00000001400a6af2 f   oracore12:oracore12.dll
 0001:000a5af8       slzprintf                  00000001400a6af8 f   oracore12:oracore12.dll
 0001:000a5afe       slosFillErr                00000001400a6afe f   oracore12:oracore12.dll
 0001:000a5b04       lstprintf                  00000001400a6b04 f   oracore12:oracore12.dll
 0001:000a5b0a       lmmtophp                   00000001400a6b0a f   oracore12:oracore12.dll
 0001:000a5b10       lmmcalloc                  00000001400a6b10 f   oracore12:oracore12.dll
 0001:000a5b16       lmmfree                    00000001400a6b16 f   oracore12:oracore12.dll
 0001:000a5b1c       lsfcln                     00000001400a6b1c f   oracore12:oracore12.dll
 0001:000a5b22       lfiwr                      00000001400a6b22 f   oracore12:oracore12.dll
 0001:000a5b28       lfiflu                     00000001400a6b28 f   oracore12:oracore12.dll
 0001:000a5b2e       lfimknam                   00000001400a6b2e f   oracore12:oracore12.dll
 0001:000a5b34       lfilini                    00000001400a6b34 f   oracore12:oracore12.dll
 0001:000a5b3a       lfiopn                     00000001400a6b3a f   oracore12:oracore12.dll
 0001:000a5b40       lsfp                       00000001400a6b40 f   oracore12:oracore12.dll
 0001:000a5b46       lpminit                    00000001400a6b46 f   oracore12:oracore12.dll
 0001:000a5b4c       lpmloadpkg                 00000001400a6b4c f   oracore12:oracore12.dll
 0001:000a5b52       lsfini                     00000001400a6b52 f   oracore12:oracore12.dll
 0001:000a5b58       slzgetevar                 00000001400a6b58 f   oracore12:oracore12.dll
 0001:000a5b5e       lficls                     00000001400a6b5e f   oracore12:oracore12.dll
 0001:000a5b64       lfifno                     00000001400a6b64 f   oracore12:oracore12.dll
 0001:000a5b6a       slosOtherInfo              00000001400a6b6a f   oracore12:oracore12.dll
 0001:000a5b70       lfifex                     00000001400a6b70 f   oracore12:oracore12.dll
 0001:000a5b76       lmmrealloc                 00000001400a6b76 f   oracore12:oracore12.dll
 0001:000a5b7c       lstmup                     00000001400a6b7c f   oracore12:oracore12.dll
 0001:000a5b82       lstlo                      00000001400a6b82 f   oracore12:oracore12.dll
 0001:000a5b88       inet_ntop                  00000001400a6b88 f   ws2_32:WS2_32.dll
 0001:000a5b8e       strcat                     00000001400a6b8e f   msvcrt:MSVCR120.dll
 0001:000a5bb0       __security_check_cookie    00000001400a6bb0 f   msvcrt:amdsecgs.obj
 0001:000a5be0       __chkstk                   00000001400a6be0 f   msvcrt:chkstk.obj
 0001:000a5be0       _alloca_probe              00000001400a6be0 f   msvcrt:chkstk.obj
 0001:000a5c2e       memset                     00000001400a6c2e f   msvcrt:MSVCR120.dll
 0001:000a5c34       strcpy                     00000001400a6c34 f   msvcrt:MSVCR120.dll
 0001:000a5c3a       strlen                     00000001400a6c3a f   msvcrt:MSVCR120.dll
 0001:000a5c40       strcmp                     00000001400a6c40 f   msvcrt:MSVCR120.dll
 0001:000a5c46       getpid                     00000001400a6c46 f   msvcrt:MSVCR120.dll
 0001:000a5c46       _getpid                    00000001400a6c46 f   msvcrt:MSVCR120.dll
 0001:000a5c4c       memcmp                     00000001400a6c4c f   msvcrt:MSVCR120.dll
 0001:000a5c52       memcpy                     00000001400a6c52 f   msvcrt:MSVCR120.dll
 0001:000a5efc       mainCRTStartup             00000001400a6efc f   msvcrt:crtexe.obj
 0001:000a5f0e       ??3@YAXPEAX@Z              00000001400a6f0e f   msvcrt:MSVCR120.dll
 0001:000a5f14       __CxxFrameHandler3         00000001400a6f14 f   msvcrt:MSVCR120.dll
 0001:000a5f1a       _CxxThrowException         00000001400a6f1a f   msvcrt:MSVCR120.dll
 0001:000a5f20       ??2@YAPEAX_K@Z             00000001400a6f20 f   msvcrt:MSVCR120.dll
 0001:000a5f26       ??_U@YAPEAX_K@Z            00000001400a6f26 f   msvcrt:MSVCR120.dll
 0001:000a5f2c       __atonexitinit             00000001400a6f2c f   msvcrt:atonexit.obj
 0001:000a5f7c       _onexit                    00000001400a6f7c f   msvcrt:atonexit.obj
 0001:000a602c       atexit                     00000001400a702c f   msvcrt:atonexit.obj
 0001:000a6044       _purecall                  00000001400a7044 f   msvcrt:MSVCR120.dll
 0001:000a604c       ??_Etype_info@@UEAAPEAXI@Z 00000001400a704c f i msvcrt:ti_inst.obj
 0001:000a60b6       ??0bad_cast@std@@QEAA@AEBV01@@Z 00000001400a70b6 f   msvcrt:MSVCR120.dll
 0001:000a60bc       ??0exception@std@@QEAA@AEBV01@@Z 00000001400a70bc f   msvcrt:MSVCR120.dll
 0001:000a60c2       ??1bad_cast@std@@UEAA@XZ   00000001400a70c2 f   msvcrt:MSVCR120.dll
 0001:000a60c8       __raise_securityfailure    00000001400a70c8 f   msvcrt:gs_report.obj
 0001:000a6114       __report_gsfailure         00000001400a7114 f   msvcrt:gs_report.obj
 0001:000a61e8       ?__CxxUnhandledExceptionFilter@@YAJPEAU_EXCEPTION_POINTERS@@@Z 00000001400a71e8 f   msvcrt:unhandld.obj
 0001:000a6220       __CxxSetUnhandledExceptionFilter 00000001400a7220 f   msvcrt:unhandld.obj
 0001:000a6238       _XcptFilter                00000001400a7238 f   msvcrt:MSVCR120.dll
 0001:000a623e       _amsg_exit                 00000001400a723e f   msvcrt:MSVCR120.dll
 0001:000a6244       _setargv                   00000001400a7244 f   msvcrt:dllargv.obj
 0001:000a6244       _matherr                   00000001400a7244 f   msvcrt:merr.obj
 0001:000a6250       _FindPESection             00000001400a7250 f   msvcrt:pesect.obj
 0001:000a62a0       _IsNonwritableInCurrentImage 00000001400a72a0 f   msvcrt:pesect.obj
 0001:000a62f0       _ValidateImageBase         00000001400a72f0 f   msvcrt:pesect.obj
 0001:000a6320       __security_init_cookie     00000001400a7320 f   msvcrt:gs_support.obj
 0001:000a63cc       _RTC_Initialize            00000001400a73cc f   msvcrt:initsect.obj
 0001:000a6404       _RTC_Terminate             00000001400a7404 f   msvcrt:initsect.obj
 0001:000a643c       _initterm_e                00000001400a743c f   msvcrt:MSVCR120.dll
 0001:000a6442       _initterm                  00000001400a7442 f   msvcrt:MSVCR120.dll
 0001:000a6448       __C_specific_handler       00000001400a7448 f   msvcrt:MSVCR120.dll
 0001:000a644e       _lock                      00000001400a744e f   msvcrt:MSVCR120.dll
 0001:000a6454       _unlock                    00000001400a7454 f   msvcrt:MSVCR120.dll
 0001:000a645a       __dllonexit                00000001400a745a f   msvcrt:MSVCR120.dll
 0001:000a6460       ??_M@YAXPEAX_KHP6AX0@Z@Z   00000001400a7460 f   msvcrt:ehvecdtr.obj
 0001:000a64c0       ?__ArrayUnwind@@YAXPEAX_KHP6AX0@Z@Z 00000001400a74c0 f   msvcrt:ehvecdtr.obj
 0001:000a650a       __crt_debugger_hook        00000001400a750a f   msvcrt:MSVCR120.dll
 0001:000a6510       __crtUnhandledException    00000001400a7510 f   msvcrt:MSVCR120.dll
 0001:000a6516       __crtTerminateProcess      00000001400a7516 f   msvcrt:MSVCR120.dll
 0001:000a651c       __crtCapturePreviousContext 00000001400a751c f   msvcrt:MSVCR120.dll
 0001:000a6522       ?terminate@@YAXXZ          00000001400a7522 f   msvcrt:MSVCR120.dll
 0001:000a6528       __crtSetUnhandledExceptionFilter 00000001400a7528 f   msvcrt:MSVCR120.dll
 0001:000a652e       ?_type_info_dtor_internal_method@type_info@@QEAAXXZ 00000001400a752e f   msvcrt:MSVCR120.dll
 0001:000a652e       ??1type_info@@UEAA@XZ      00000001400a752e f   msvcrt:MSVCR120.dll
 0001:000a6534       NetUserGetLocalGroups      00000001400a7534 f   netapi32:NETAPI32.dll
 0001:000a653a       NetApiBufferFree           00000001400a753a f   netapi32:NETAPI32.dll
 0001:000a6540       GetIfTable                 00000001400a7540 f   Iphlpapi:IPHLPAPI.DLL
 0001:000a6546       ConvertIpv4MaskToLength    00000001400a7546 f   Iphlpapi:IPHLPAPI.DLL
 0001:000a654c       InitializeUnicastIpAddressEntry 00000001400a754c f   Iphlpapi:IPHLPAPI.DLL
 0001:000a6552       CreateUnicastIpAddressEntry 00000001400a7552 f   Iphlpapi:IPHLPAPI.DLL
 0001:000a6558       AddIPAddress               00000001400a7558 f   Iphlpapi:IPHLPAPI.DLL
 0001:000a655e       GetUnicastIpAddressEntry   00000001400a755e f   Iphlpapi:IPHLPAPI.DLL
 0001:000a6564       DeleteUnicastIpAddressEntry 00000001400a7564 f   Iphlpapi:IPHLPAPI.DLL
 0001:000a656a       DeleteIPAddress            00000001400a756a f   Iphlpapi:IPHLPAPI.DLL
 0001:000a6570       GetAdaptersInfo            00000001400a7570 f   Iphlpapi:IPHLPAPI.DLL
 0001:000a6576       if_nametoindex             00000001400a7576 f   Iphlpapi:IPHLPAPI.DLL
 0001:000a657c       GetAdaptersAddresses       00000001400a757c f   Iphlpapi:IPHLPAPI.DLL
 0001:000a6582       GetFileVersionInfoSizeA    00000001400a7582 f   version:VERSION.dll
 0001:000a6588       GetFileVersionInfoA        00000001400a7588 f   version:VERSION.dll
 0001:000a658e       VerQueryValueA             00000001400a758e f   version:VERSION.dll
 0001:000a6594       ?_Facet_Register@std@@YAXPEAV_Facet_base@1@@Z 00000001400a7594 f   msvcprt:locale0_implib.obj
 0001:000a65c8       ?showmanyc@?$basic_streambuf@DU?$char_traits@D@std@@@std@@MEAA_JXZ 00000001400a75c8 f   msvcprt:MSVCP120.dll
 0001:000a65ce       ?xsgetn@?$basic_streambuf@DU?$char_traits@D@std@@@std@@MEAA_JPEAD_J@Z 00000001400a75ce f   msvcprt:MSVCP120.dll
 0001:000a65d4       ?xsputn@?$basic_streambuf@DU?$char_traits@D@std@@@std@@MEAA_JPEBD_J@Z 00000001400a75d4 f   msvcprt:MSVCP120.dll
 0001:000a65da       IsProcessorFeaturePresent  00000001400a75da f   kernel32:KERNEL32.dll
 0002:00000000       __imp_RegSetValueExA       00000001400a8000     advapi32:ADVAPI32.dll
 0002:00000008       __imp_OpenServiceA         00000001400a8008     advapi32:ADVAPI32.dll
 0002:00000010       __imp_QueryServiceConfigA  00000001400a8010     advapi32:ADVAPI32.dll
 0002:00000018       __imp_QueryServiceStatus   00000001400a8018     advapi32:ADVAPI32.dll
 0002:00000020       __imp_CloseServiceHandle   00000001400a8020     advapi32:ADVAPI32.dll
 0002:00000028       __imp_RegOpenKeyExA        00000001400a8028     advapi32:ADVAPI32.dll
 0002:00000030       __imp_RegEnumValueA        00000001400a8030     advapi32:ADVAPI32.dll
 0002:00000038       __imp_RegCloseKey          00000001400a8038     advapi32:ADVAPI32.dll
 0002:00000040       __imp_RegDeleteValueA      00000001400a8040     advapi32:ADVAPI32.dll
 0002:00000048       __imp_RegOpenKeyA          00000001400a8048     advapi32:ADVAPI32.dll
 0002:00000050       __imp_RegQueryValueExA     00000001400a8050     advapi32:ADVAPI32.dll
 0002:00000058       __imp_OpenSCManagerA       00000001400a8058     advapi32:ADVAPI32.dll
 0002:00000060       \177ADVAPI32_NULL_THUNK_DATA 00000001400a8060     advapi32:ADVAPI32.dll
 0002:00000068       __imp_InitializeUnicastIpAddressEntry 00000001400a8068     Iphlpapi:IPHLPAPI.DLL
 0002:00000070       __imp_ConvertIpv4MaskToLength 00000001400a8070     Iphlpapi:IPHLPAPI.DLL
 0002:00000078       __imp_GetIfTable           00000001400a8078     Iphlpapi:IPHLPAPI.DLL
 0002:00000080       __imp_CreateUnicastIpAddressEntry 00000001400a8080     Iphlpapi:IPHLPAPI.DLL
 0002:00000088       __imp_AddIPAddress         00000001400a8088     Iphlpapi:IPHLPAPI.DLL
 0002:00000090       __imp_GetUnicastIpAddressEntry 00000001400a8090     Iphlpapi:IPHLPAPI.DLL
 0002:00000098       __imp_DeleteUnicastIpAddressEntry 00000001400a8098     Iphlpapi:IPHLPAPI.DLL
 0002:000000a0       __imp_DeleteIPAddress      00000001400a80a0     Iphlpapi:IPHLPAPI.DLL
 0002:000000a8       __imp_GetAdaptersInfo      00000001400a80a8     Iphlpapi:IPHLPAPI.DLL
 0002:000000b0       __imp_if_nametoindex       00000001400a80b0     Iphlpapi:IPHLPAPI.DLL
 0002:000000b8       __imp_GetAdaptersAddresses 00000001400a80b8     Iphlpapi:IPHLPAPI.DLL
 0002:000000c0       \177IPHLPAPI_NULL_THUNK_DATA 00000001400a80c0     Iphlpapi:IPHLPAPI.DLL
 0002:000000c8       __imp_GetFileAttributesA   00000001400a80c8     kernel32:KERNEL32.dll
 0002:000000d0       __imp_QueryPerformanceCounter 00000001400a80d0     kernel32:KERNEL32.dll
 0002:000000d8       __imp_IsProcessorFeaturePresent 00000001400a80d8     kernel32:KERNEL32.dll
 0002:000000e0       __imp_IsDebuggerPresent    00000001400a80e0     kernel32:KERNEL32.dll
 0002:000000e8       __imp_DecodePointer        00000001400a80e8     kernel32:KERNEL32.dll
 0002:000000f0       __imp_EncodePointer        00000001400a80f0     kernel32:KERNEL32.dll
 0002:000000f8       __imp_MoveFileA            00000001400a80f8     kernel32:KERNEL32.dll
 0002:00000100       __imp_FindVolumeClose      00000001400a8100     kernel32:KERNEL32.dll
 0002:00000108       __imp_FindNextVolumeA      00000001400a8108     kernel32:KERNEL32.dll
 0002:00000110       __imp_FindFirstVolumeA     00000001400a8110     kernel32:KERNEL32.dll
 0002:00000118       __imp_VirtualFree          00000001400a8118     kernel32:KERNEL32.dll
 0002:00000120       __imp_VirtualAlloc         00000001400a8120     kernel32:KERNEL32.dll
 0002:00000128       __imp_TerminateProcess     00000001400a8128     kernel32:KERNEL32.dll
 0002:00000130       __imp_CreateDirectoryA     00000001400a8130     kernel32:KERNEL32.dll
 0002:00000138       __imp_GetTickCount         00000001400a8138     kernel32:KERNEL32.dll
 0002:00000140       __imp_GetCurrentProcessId  00000001400a8140     kernel32:KERNEL32.dll
 0002:00000148       __imp_GetLogicalDrives     00000001400a8148     kernel32:KERNEL32.dll
 0002:00000150       __imp_GetVolumeNameForVolumeMountPointA 00000001400a8150     kernel32:KERNEL32.dll
 0002:00000158       __imp_GetVolumePathNameA   00000001400a8158     kernel32:KERNEL32.dll
 0002:00000160       __imp_GetDiskFreeSpaceExA  00000001400a8160     kernel32:KERNEL32.dll
 0002:00000168       __imp_GetTimeZoneInformation 00000001400a8168     kernel32:KERNEL32.dll
 0002:00000170       __imp_MultiByteToWideChar  00000001400a8170     kernel32:KERNEL32.dll
 0002:00000178       __imp_GetNativeSystemInfo  00000001400a8178     kernel32:KERNEL32.dll
 0002:00000180       __imp_GlobalMemoryStatusEx 00000001400a8180     kernel32:KERNEL32.dll
 0002:00000188       __imp_GetVersion           00000001400a8188     kernel32:KERNEL32.dll
 0002:00000190       __imp_GetModuleFileNameA   00000001400a8190     kernel32:KERNEL32.dll
 0002:00000198       __imp_GetTempPathA         00000001400a8198     kernel32:KERNEL32.dll
 0002:000001a0       __imp_WideCharToMultiByte  00000001400a81a0     kernel32:KERNEL32.dll
 0002:000001a8       __imp_QueryDosDeviceW      00000001400a81a8     kernel32:KERNEL32.dll
 0002:000001b0       __imp_QueryDosDeviceA      00000001400a81b0     kernel32:KERNEL32.dll
 0002:000001b8       __imp_GetVolumeInformationA 00000001400a81b8     kernel32:KERNEL32.dll
 0002:000001c0       __imp_DefineDosDeviceA     00000001400a81c0     kernel32:KERNEL32.dll
 0002:000001c8       __imp_DeviceIoControl      00000001400a81c8     kernel32:KERNEL32.dll
 0002:000001d0       __imp_GetFullPathNameA     00000001400a81d0     kernel32:KERNEL32.dll
 0002:000001d8       __imp_GetCurrentDirectoryA 00000001400a81d8     kernel32:KERNEL32.dll
 0002:000001e0       __imp_GetSystemTime        00000001400a81e0     kernel32:KERNEL32.dll
 0002:000001e8       __imp_GetFileAttributesExA 00000001400a81e8     kernel32:KERNEL32.dll
 0002:000001f0       __imp_GlobalFree           00000001400a81f0     kernel32:KERNEL32.dll
 0002:000001f8       __imp_GlobalAlloc          00000001400a81f8     kernel32:KERNEL32.dll
 0002:00000200       __imp_SearchPathA          00000001400a8200     kernel32:KERNEL32.dll
 0002:00000208       __imp_GetSystemDirectoryA  00000001400a8208     kernel32:KERNEL32.dll
 0002:00000210       __imp_GetFileSizeEx        00000001400a8210     kernel32:KERNEL32.dll
 0002:00000218       __imp_OpenFile             00000001400a8218     kernel32:KERNEL32.dll
 0002:00000220       __imp_FindNextFileA        00000001400a8220     kernel32:KERNEL32.dll
 0002:00000228       __imp_FindClose            00000001400a8228     kernel32:KERNEL32.dll
 0002:00000230       __imp_LocalFree            00000001400a8230     kernel32:KERNEL32.dll
 0002:00000238       __imp_FormatMessageA       00000001400a8238     kernel32:KERNEL32.dll
 0002:00000240       __imp_FindFirstFileA       00000001400a8240     kernel32:KERNEL32.dll
 0002:00000248       __imp_DeleteFileA          00000001400a8248     kernel32:KERNEL32.dll
 0002:00000250       __imp_GetVersionExA        00000001400a8250     kernel32:KERNEL32.dll
 0002:00000258       __imp_GetSystemTimeAsFileTime 00000001400a8258     kernel32:KERNEL32.dll
 0002:00000260       \177KERNEL32_NULL_THUNK_DATA 00000001400a8260     kernel32:KERNEL32.dll
 0002:00000268       __imp_?_Xbad_alloc@std@@YAXXZ 00000001400a8268     msvcprt:MSVCP120.dll
 0002:00000270       __imp_?_Getgloballocale@locale@std@@CAPEAV_Locimp@12@XZ 00000001400a8270     msvcprt:MSVCP120.dll
 0002:00000278       __imp_?rdbuf@?$basic_ios@DU?$char_traits@D@std@@@std@@QEBAPEAV?$basic_streambuf@DU?$char_traits@D@std@@@2@XZ 00000001400a8278     msvcprt:MSVCP120.dll
 0002:00000280       __imp_?good@ios_base@std@@QEBA_NXZ 00000001400a8280     msvcprt:MSVCP120.dll
 0002:00000288       __imp_?tie@?$basic_ios@DU?$char_traits@D@std@@@std@@QEBAPEAV?$basic_ostream@DU?$char_traits@D@std@@@2@XZ 00000001400a8288     msvcprt:MSVCP120.dll
 0002:00000290       __imp_?_Ipfx@?$basic_istream@DU?$char_traits@D@std@@@std@@QEAA_N_N@Z 00000001400a8290     msvcprt:MSVCP120.dll
 0002:00000298       __imp_?uncaught_exception@std@@YA_NXZ 00000001400a8298     msvcprt:MSVCP120.dll
 0002:000002a0       __imp_?xsputn@?$basic_streambuf@DU?$char_traits@D@std@@@std@@MEAA_JPEBD_J@Z 00000001400a82a0     msvcprt:MSVCP120.dll
 0002:000002a8       __imp_?_Osfx@?$basic_ostream@DU?$char_traits@D@std@@@std@@QEAAXXZ 00000001400a82a8     msvcprt:MSVCP120.dll
 0002:000002b0       __imp_??0?$basic_streambuf@DU?$char_traits@D@std@@@std@@IEAA@XZ 00000001400a82b0     msvcprt:MSVCP120.dll
 0002:000002b8       __imp_??1?$basic_streambuf@DU?$char_traits@D@std@@@std@@UEAA@XZ 00000001400a82b8     msvcprt:MSVCP120.dll
 0002:000002c0       __imp_?_Fiopen@std@@YAPEAU_iobuf@@PEBDHH@Z 00000001400a82c0     msvcprt:MSVCP120.dll
 0002:000002c8       __imp_?getloc@?$basic_streambuf@DU?$char_traits@D@std@@@std@@QEBA?AVlocale@2@XZ 00000001400a82c8     msvcprt:MSVCP120.dll
 0002:000002d0       __imp_?pptr@?$basic_streambuf@DU?$char_traits@D@std@@@std@@IEBAPEADXZ 00000001400a82d0     msvcprt:MSVCP120.dll
 0002:000002d8       __imp_?epptr@?$basic_streambuf@DU?$char_traits@D@std@@@std@@IEBAPEADXZ 00000001400a82d8     msvcprt:MSVCP120.dll
 0002:000002e0       __imp_?_Pninc@?$basic_streambuf@DU?$char_traits@D@std@@@std@@IEAAPEADXZ 00000001400a82e0     msvcprt:MSVCP120.dll
 0002:000002e8       __imp_?out@?$codecvt@DDH@std@@QEBAHAEAHPEBD1AEAPEBDPEAD3AEAPEAD@Z 00000001400a82e8     msvcprt:MSVCP120.dll
 0002:000002f0       __imp_?gptr@?$basic_streambuf@DU?$char_traits@D@std@@@std@@IEBAPEADXZ 00000001400a82f0     msvcprt:MSVCP120.dll
 0002:000002f8       __imp_?eback@?$basic_streambuf@DU?$char_traits@D@std@@@std@@IEBAPEADXZ 00000001400a82f8     msvcprt:MSVCP120.dll
 0002:00000300       __imp_?_Gndec@?$basic_streambuf@DU?$char_traits@D@std@@@std@@IEAAPEADXZ 00000001400a8300     msvcprt:MSVCP120.dll
 0002:00000308       __imp_?egptr@?$basic_streambuf@DU?$char_traits@D@std@@@std@@IEBAPEADXZ 00000001400a8308     msvcprt:MSVCP120.dll
 0002:00000310       __imp_?_Gninc@?$basic_streambuf@DU?$char_traits@D@std@@@std@@IEAAPEADXZ 00000001400a8310     msvcprt:MSVCP120.dll
 0002:00000318       __imp_?in@?$codecvt@DDH@std@@QEBAHAEAHPEBD1AEAPEBDPEAD3AEAPEAD@Z 00000001400a8318     msvcprt:MSVCP120.dll
 0002:00000320       __imp_?_BADOFF@std@@3_JB   00000001400a8320     msvcprt:MSVCP120.dll
 0002:00000328       __imp_?_Init@?$basic_streambuf@DU?$char_traits@D@std@@@std@@IEAAXXZ 00000001400a8328     msvcprt:MSVCP120.dll
 0002:00000330       __imp_?_Init@?$basic_streambuf@DU?$char_traits@D@std@@@std@@IEAAXPEAPEAD0PEAH001@Z 00000001400a8330     msvcprt:MSVCP120.dll
 0002:00000338       __imp_?unshift@?$codecvt@DDH@std@@QEBAHAEAHPEAD1AEAPEAD@Z 00000001400a8338     msvcprt:MSVCP120.dll
 0002:00000340       __imp_?always_noconv@codecvt_base@std@@QEBA_NXZ 00000001400a8340     msvcprt:MSVCP120.dll
 0002:00000348       __imp_?setg@?$basic_streambuf@DU?$char_traits@D@std@@@std@@IEAAXPEAD00@Z 00000001400a8348     msvcprt:MSVCP120.dll
 0002:00000350       __imp_??0?$basic_ios@DU?$char_traits@D@std@@@std@@IEAA@XZ 00000001400a8350     msvcprt:MSVCP120.dll
 0002:00000358       __imp_??0?$basic_ostream@DU?$char_traits@D@std@@@std@@QEAA@PEAV?$basic_streambuf@DU?$char_traits@D@std@@@1@_N@Z 00000001400a8358     msvcprt:MSVCP120.dll
 0002:00000360       __imp_?setstate@?$basic_ios@DU?$char_traits@D@std@@@std@@QEAAXH_N@Z 00000001400a8360     msvcprt:MSVCP120.dll
 0002:00000368       __imp_??1?$basic_ostream@DU?$char_traits@D@std@@@std@@UEAA@XZ 00000001400a8368     msvcprt:MSVCP120.dll
 0002:00000370       __imp_??1?$basic_ios@DU?$char_traits@D@std@@@std@@UEAA@XZ 00000001400a8370     msvcprt:MSVCP120.dll
 0002:00000378       __imp_?clear@?$basic_ios@DU?$char_traits@D@std@@@std@@QEAAXH_N@Z 00000001400a8378     msvcprt:MSVCP120.dll
 0002:00000380       __imp_?width@ios_base@std@@QEBA_JXZ 00000001400a8380     msvcprt:MSVCP120.dll
 0002:00000388       __imp_?flags@ios_base@std@@QEBAHXZ 00000001400a8388     msvcprt:MSVCP120.dll
 0002:00000390       __imp_?fill@?$basic_ios@DU?$char_traits@D@std@@@std@@QEBADXZ 00000001400a8390     msvcprt:MSVCP120.dll
 0002:00000398       __imp_?sputc@?$basic_streambuf@DU?$char_traits@D@std@@@std@@QEAAHD@Z 00000001400a8398     msvcprt:MSVCP120.dll
 0002:000003a0       __imp_?sputn@?$basic_streambuf@DU?$char_traits@D@std@@@std@@QEAA_JPEBD_J@Z 00000001400a83a0     msvcprt:MSVCP120.dll
 0002:000003a8       __imp_?width@ios_base@std@@QEAA_J_J@Z 00000001400a83a8     msvcprt:MSVCP120.dll
 0002:000003b0       __imp_?widen@?$basic_ios@DU?$char_traits@D@std@@@std@@QEBADD@Z 00000001400a83b0     msvcprt:MSVCP120.dll
 0002:000003b8       __imp_?put@?$basic_ostream@DU?$char_traits@D@std@@@std@@QEAAAEAV12@D@Z 00000001400a83b8     msvcprt:MSVCP120.dll
 0002:000003c0       __imp_??0_Lockit@std@@QEAA@H@Z 00000001400a83c0     msvcprt:MSVCP120.dll
 0002:000003c8       __imp_?id@?$codecvt@DDH@std@@2V0locale@2@A 00000001400a83c8     msvcprt:MSVCP120.dll
 0002:000003d0       __imp_??Bid@locale@std@@QEAA_KXZ 00000001400a83d0     msvcprt:MSVCP120.dll
 0002:000003d8       __imp_?_Getcat@?$codecvt@DDH@std@@SA_KPEAPEBVfacet@locale@2@PEBV42@@Z 00000001400a83d8     msvcprt:MSVCP120.dll
 0002:000003e0       __imp_?_Orphan_all@_Container_base0@std@@QEAAXXZ 00000001400a83e0     msvcprt:MSVCP120.dll
 0002:000003e8       __imp_??0?$basic_istream@DU?$char_traits@D@std@@@std@@QEAA@PEAV?$basic_streambuf@DU?$char_traits@D@std@@@1@_N@Z 00000001400a83e8     msvcprt:MSVCP120.dll
 0002:000003f0       __imp_??1?$basic_istream@DU?$char_traits@D@std@@@std@@UEAA@XZ 00000001400a83f0     msvcprt:MSVCP120.dll
 0002:000003f8       __imp_?sgetc@?$basic_streambuf@DU?$char_traits@D@std@@@std@@QEAAHXZ 00000001400a83f8     msvcprt:MSVCP120.dll
 0002:00000400       __imp_?snextc@?$basic_streambuf@DU?$char_traits@D@std@@@std@@QEAAHXZ 00000001400a8400     msvcprt:MSVCP120.dll
 0002:00000408       __imp_?sbumpc@?$basic_streambuf@DU?$char_traits@D@std@@@std@@QEAAHXZ 00000001400a8408     msvcprt:MSVCP120.dll
 0002:00000410       __imp_??7ios_base@std@@QEBA_NXZ 00000001400a8410     msvcprt:MSVCP120.dll
 0002:00000418       __imp_?fail@ios_base@std@@QEBA_NXZ 00000001400a8418     msvcprt:MSVCP120.dll
 0002:00000420       __imp_?_Swap_all@_Container_base0@std@@QEAAXAEAU12@@Z 00000001400a8420     msvcprt:MSVCP120.dll
 0002:00000428       __imp_??1_Lockit@std@@QEAA@XZ 00000001400a8428     msvcprt:MSVCP120.dll
 0002:00000430       __imp_??Bios_base@std@@QEBA_NXZ 00000001400a8430     msvcprt:MSVCP120.dll
 0002:00000438       __imp_??6?$basic_ostream@DU?$char_traits@D@std@@@std@@QEAAAEAV01@P6AAEAV01@AEAV01@@Z@Z 00000001400a8438     msvcprt:MSVCP120.dll
 0002:00000440       __imp_?_Winerror_map@std@@YAPEBDH@Z 00000001400a8440     msvcprt:MSVCP120.dll
 0002:00000448       __imp_?_Syserror_map@std@@YAPEBDH@Z 00000001400a8448     msvcprt:MSVCP120.dll
 0002:00000450       __imp_?showmanyc@?$basic_streambuf@DU?$char_traits@D@std@@@std@@MEAA_JXZ 00000001400a8450     msvcprt:MSVCP120.dll
 0002:00000458       __imp_?xsgetn@?$basic_streambuf@DU?$char_traits@D@std@@@std@@MEAA_JPEAD_J@Z 00000001400a8458     msvcprt:MSVCP120.dll
 0002:00000460       __imp_??0id@locale@std@@QEAA@_K@Z 00000001400a8460     msvcprt:MSVCP120.dll
 0002:00000468       __imp_?flush@?$basic_ostream@DU?$char_traits@D@std@@@std@@QEAAAEAV12@XZ 00000001400a8468     msvcprt:MSVCP120.dll
 0002:00000470       __imp_?_Xlength_error@std@@YAXPEBD@Z 00000001400a8470     msvcprt:MSVCP120.dll
 0002:00000478       __imp_?_Xout_of_range@std@@YAXPEBD@Z 00000001400a8478     msvcprt:MSVCP120.dll
 0002:00000480       \177MSVCP120_NULL_THUNK_DATA 00000001400a8480     msvcprt:MSVCP120.dll
 0002:00000488       __imp_sprintf              00000001400a8488     msvcrt:MSVCR120.dll
 0002:00000490       __imp_strlen               00000001400a8490     msvcrt:MSVCR120.dll
 0002:00000498       __imp_strncpy              00000001400a8498     msvcrt:MSVCR120.dll
 0002:000004a0       __imp_strcmp               00000001400a84a0     msvcrt:MSVCR120.dll
 0002:000004a8       __imp_malloc               00000001400a84a8     msvcrt:MSVCR120.dll
 0002:000004b0       __imp_free                 00000001400a84b0     msvcrt:MSVCR120.dll
 0002:000004b8       __imp_fprintf              00000001400a84b8     msvcrt:MSVCR120.dll
 0002:000004c0       __imp_strncmp              00000001400a84c0     msvcrt:MSVCR120.dll
 0002:000004c8       __imp_wcscmp               00000001400a84c8     msvcrt:MSVCR120.dll
 0002:000004d0       __imp_fopen                00000001400a84d0     msvcrt:MSVCR120.dll
 0002:000004d8       __imp__getpid              00000001400a84d8     msvcrt:MSVCR120.dll
 0002:000004e0       __imp_fgets                00000001400a84e0     msvcrt:MSVCR120.dll
 0002:000004e8       __imp_ferror               00000001400a84e8     msvcrt:MSVCR120.dll
 0002:000004f0       __imp__errno               00000001400a84f0     msvcrt:MSVCR120.dll
 0002:000004f8       __imp_strerror             00000001400a84f8     msvcrt:MSVCR120.dll
 0002:00000500       __imp_fclose               00000001400a8500     msvcrt:MSVCR120.dll
 0002:00000508       __imp_strrchr              00000001400a8508     msvcrt:MSVCR120.dll
 0002:00000510       __imp_remove               00000001400a8510     msvcrt:MSVCR120.dll
 0002:00000518       __imp_calloc               00000001400a8518     msvcrt:MSVCR120.dll
 0002:00000520       __imp_strncat              00000001400a8520     msvcrt:MSVCR120.dll
 0002:00000528       __imp_exit                 00000001400a8528     msvcrt:MSVCR120.dll
 0002:00000530       __imp_realloc              00000001400a8530     msvcrt:MSVCR120.dll
 0002:00000538       __imp_isdigit              00000001400a8538     msvcrt:MSVCR120.dll
 0002:00000540       __imp_atoi                 00000001400a8540     msvcrt:MSVCR120.dll
 0002:00000548       __imp_isalpha              00000001400a8548     msvcrt:MSVCR120.dll
 0002:00000550       __imp__strtime             00000001400a8550     msvcrt:MSVCR120.dll
 0002:00000558       __imp__strdate             00000001400a8558     msvcrt:MSVCR120.dll
 0002:00000560       __imp_vfprintf             00000001400a8560     msvcrt:MSVCR120.dll
 0002:00000568       __imp___iob_func           00000001400a8568     msvcrt:MSVCR120.dll
 0002:00000570       __imp__vswprintf_c_l       00000001400a8570     msvcrt:MSVCR120.dll
 0002:00000578       __imp__vsnprintf           00000001400a8578     msvcrt:MSVCR120.dll
 0002:00000580       __imp__snwprintf           00000001400a8580     msvcrt:MSVCR120.dll
 0002:00000588       __imp_wcslen               00000001400a8588     msvcrt:MSVCR120.dll
 0002:00000590       __imp__snprintf            00000001400a8590     msvcrt:MSVCR120.dll
 0002:00000598       __imp_memcmp               00000001400a8598     msvcrt:MSVCR120.dll
 0002:000005a0       __imp__putenv              00000001400a85a0     msvcrt:MSVCR120.dll
 0002:000005a0       __imp_putenv               00000001400a85a0     msvcrt:MSVCR120.dll
 0002:000005a8       __imp__popen               00000001400a85a8     msvcrt:MSVCR120.dll
 0002:000005b0       __imp_feof                 00000001400a85b0     msvcrt:MSVCR120.dll
 0002:000005b8       __imp_strstr               00000001400a85b8     msvcrt:MSVCR120.dll
 0002:000005c0       __imp_sscanf               00000001400a85c0     msvcrt:MSVCR120.dll
 0002:000005c8       __imp_strchr               00000001400a85c8     msvcrt:MSVCR120.dll
 0002:000005d0       __imp__pclose              00000001400a85d0     msvcrt:MSVCR120.dll
 0002:000005d8       __imp_getenv               00000001400a85d8     msvcrt:MSVCR120.dll
 0002:000005e0       __imp_fflush               00000001400a85e0     msvcrt:MSVCR120.dll
 0002:000005e8       __imp_strtok               00000001400a85e8     msvcrt:MSVCR120.dll
 0002:000005f0       __imp_atol                 00000001400a85f0     msvcrt:MSVCR120.dll
 0002:000005f8       __imp__creat               00000001400a85f8     msvcrt:MSVCR120.dll
 0002:00000600       __imp__fileno              00000001400a8600     msvcrt:MSVCR120.dll
 0002:00000608       __imp__dup2                00000001400a8608     msvcrt:MSVCR120.dll
 0002:00000610       __imp_tolower              00000001400a8610     msvcrt:MSVCR120.dll
 0002:00000618       __imp_strdup               00000001400a8618     msvcrt:MSVCR120.dll
 0002:00000618       __imp__strdup              00000001400a8618     msvcrt:MSVCR120.dll
 0002:00000620       __imp__strupr              00000001400a8620     msvcrt:MSVCR120.dll
 0002:00000628       __imp_stricmp              00000001400a8628     msvcrt:MSVCR120.dll
 0002:00000628       __imp__stricmp             00000001400a8628     msvcrt:MSVCR120.dll
 0002:00000630       __imp__localtime64         00000001400a8630     msvcrt:MSVCR120.dll
 0002:00000638       __imp__time64              00000001400a8638     msvcrt:MSVCR120.dll
 0002:00000640       __imp_strtol               00000001400a8640     msvcrt:MSVCR120.dll
 0002:00000648       __imp_strtok_s             00000001400a8648     msvcrt:MSVCR120.dll
 0002:00000650       __imp_isspace              00000001400a8650     msvcrt:MSVCR120.dll
 0002:00000658       __imp_??3@YAXPEAX@Z        00000001400a8658     msvcrt:MSVCR120.dll
 0002:00000660       __imp_memchr               00000001400a8660     msvcrt:MSVCR120.dll
 0002:00000668       __imp_memmove              00000001400a8668     msvcrt:MSVCR120.dll
 0002:00000670       __imp___CxxFrameHandler3   00000001400a8670     msvcrt:MSVCR120.dll
 0002:00000678       __imp__CxxThrowException   00000001400a8678     msvcrt:MSVCR120.dll
 0002:00000680       __imp_??2@YAPEAX_K@Z       00000001400a8680     msvcrt:MSVCR120.dll
 0002:00000688       __imp_??_U@YAPEAX_K@Z      00000001400a8688     msvcrt:MSVCR120.dll
 0002:00000690       __imp__purecall            00000001400a8690     msvcrt:MSVCR120.dll
 0002:00000698       __imp_wcstombs             00000001400a8698     msvcrt:MSVCR120.dll
 0002:000006a0       __imp__lock_file           00000001400a86a0     msvcrt:MSVCR120.dll
 0002:000006a8       __imp__unlock_file         00000001400a86a8     msvcrt:MSVCR120.dll
 0002:000006b0       __imp_fwrite               00000001400a86b0     msvcrt:MSVCR120.dll
 0002:000006b8       __imp_fgetc                00000001400a86b8     msvcrt:MSVCR120.dll
 0002:000006c0       __imp_ungetc               00000001400a86c0     msvcrt:MSVCR120.dll
 0002:000006c8       __imp_memcpy_s             00000001400a86c8     msvcrt:MSVCR120.dll
 0002:000006d0       __imp__fseeki64            00000001400a86d0     msvcrt:MSVCR120.dll
 0002:000006d8       __imp_fgetpos              00000001400a86d8     msvcrt:MSVCR120.dll
 0002:000006e0       __imp_fsetpos              00000001400a86e0     msvcrt:MSVCR120.dll
 0002:000006e8       __imp_setvbuf              00000001400a86e8     msvcrt:MSVCR120.dll
 0002:000006f0       __imp_fputc                00000001400a86f0     msvcrt:MSVCR120.dll
 0002:000006f8       __imp_??0bad_cast@std@@QEAA@PEBD@Z 00000001400a86f8     msvcrt:MSVCR120.dll
 0002:00000700       __imp_??0bad_cast@std@@QEAA@AEBV01@@Z 00000001400a8700     msvcrt:MSVCR120.dll
 0002:00000708       __imp_??0exception@std@@QEAA@AEBV01@@Z 00000001400a8708     msvcrt:MSVCR120.dll
 0002:00000710       __imp_??1bad_cast@std@@UEAA@XZ 00000001400a8710     msvcrt:MSVCR120.dll
 0002:00000718       __imp_strtoul              00000001400a8718     msvcrt:MSVCR120.dll
 0002:00000720       __imp_strtod               00000001400a8720     msvcrt:MSVCR120.dll
 0002:00000728       __imp_toupper              00000001400a8728     msvcrt:MSVCR120.dll
 0002:00000730       __imp_??0exception@std@@QEAA@XZ 00000001400a8730     msvcrt:MSVCR120.dll
 0002:00000738       __imp_??1exception@std@@UEAA@XZ 00000001400a8738     msvcrt:MSVCR120.dll
 0002:00000740       __imp__XcptFilter          00000001400a8740     msvcrt:MSVCR120.dll
 0002:00000748       __imp__amsg_exit           00000001400a8748     msvcrt:MSVCR120.dll
 0002:00000750       __imp___getmainargs        00000001400a8750     msvcrt:MSVCR120.dll
 0002:00000758       __imp___set_app_type       00000001400a8758     msvcrt:MSVCR120.dll
 0002:00000760       __imp__exit                00000001400a8760     msvcrt:MSVCR120.dll
 0002:00000768       __imp__cexit               00000001400a8768     msvcrt:MSVCR120.dll
 0002:00000770       __imp__configthreadlocale  00000001400a8770     msvcrt:MSVCR120.dll
 0002:00000778       __imp___setusermatherr     00000001400a8778     msvcrt:MSVCR120.dll
 0002:00000780       __imp__initterm_e          00000001400a8780     msvcrt:MSVCR120.dll
 0002:00000788       __imp__initterm            00000001400a8788     msvcrt:MSVCR120.dll
 0002:00000790       __imp___C_specific_handler 00000001400a8790     msvcrt:MSVCR120.dll
 0002:00000798       __imp___initenv            00000001400a8798     msvcrt:MSVCR120.dll
 0002:000007a0       __imp__fmode               00000001400a87a0     msvcrt:MSVCR120.dll
 0002:000007a8       __imp__commode             00000001400a87a8     msvcrt:MSVCR120.dll
 0002:000007b0       __imp__lock                00000001400a87b0     msvcrt:MSVCR120.dll
 0002:000007b8       __imp__unlock              00000001400a87b8     msvcrt:MSVCR120.dll
 0002:000007c0       __imp__calloc_crt          00000001400a87c0     msvcrt:MSVCR120.dll
 0002:000007c8       __imp___dllonexit          00000001400a87c8     msvcrt:MSVCR120.dll
 0002:000007d0       __imp__onexit              00000001400a87d0     msvcrt:MSVCR120.dll
 0002:000007d8       __imp___crt_debugger_hook  00000001400a87d8     msvcrt:MSVCR120.dll
 0002:000007e0       __imp___crtUnhandledException 00000001400a87e0     msvcrt:MSVCR120.dll
 0002:000007e8       __imp___crtTerminateProcess 00000001400a87e8     msvcrt:MSVCR120.dll
 0002:000007f0       __imp___crtCapturePreviousContext 00000001400a87f0     msvcrt:MSVCR120.dll
 0002:000007f8       __imp_?terminate@@YAXXZ    00000001400a87f8     msvcrt:MSVCR120.dll
 0002:00000800       __imp___crtSetUnhandledExceptionFilter 00000001400a8800     msvcrt:MSVCR120.dll
 0002:00000808       __imp_?_type_info_dtor_internal_method@type_info@@QEAAXXZ 00000001400a8808     msvcrt:MSVCR120.dll
 0002:00000810       __imp_strcpy               00000001400a8810     msvcrt:MSVCR120.dll
 0002:00000818       __imp_printf               00000001400a8818     msvcrt:MSVCR120.dll
 0002:00000820       __imp_memset               00000001400a8820     msvcrt:MSVCR120.dll
 0002:00000828       __imp_system               00000001400a8828     msvcrt:MSVCR120.dll
 0002:00000830       __imp_strcat               00000001400a8830     msvcrt:MSVCR120.dll
 0002:00000838       __imp__stat64i32           00000001400a8838     msvcrt:MSVCR120.dll
 0002:00000840       __imp_strnicmp             00000001400a8840     msvcrt:MSVCR120.dll
 0002:00000840       __imp__strnicmp            00000001400a8840     msvcrt:MSVCR120.dll
 0002:00000848       __imp_memccpy              00000001400a8848     msvcrt:MSVCR120.dll
 0002:00000848       __imp__memccpy             00000001400a8848     msvcrt:MSVCR120.dll
 0002:00000850       __imp_close                00000001400a8850     msvcrt:MSVCR120.dll
 0002:00000850       __imp__close               00000001400a8850     msvcrt:MSVCR120.dll
 0002:00000858       __imp_tzset                00000001400a8858     msvcrt:MSVCR120.dll
 0002:00000858       __imp__tzset               00000001400a8858     msvcrt:MSVCR120.dll
 0002:00000860       __imp_timezone             00000001400a8860     msvcrt:MSVCR120.dll
 0002:00000860       __imp__timezone            00000001400a8860     msvcrt:MSVCR120.dll
 0002:00000868       __imp__tzname              00000001400a8868     msvcrt:MSVCR120.dll
 0002:00000868       __imp_tzname               00000001400a8868     msvcrt:MSVCR120.dll
 0002:00000870       __imp__daylight            00000001400a8870     msvcrt:MSVCR120.dll
 0002:00000870       __imp_daylight             00000001400a8870     msvcrt:MSVCR120.dll
 0002:00000878       __imp_memcpy               00000001400a8878     msvcrt:MSVCR120.dll
 0002:00000880       \177MSVCR120_NULL_THUNK_DATA 00000001400a8880     msvcrt:MSVCR120.dll
 0002:00000888       __imp_NetApiBufferFree     00000001400a8888     netapi32:NETAPI32.dll
 0002:00000890       __imp_NetUserGetLocalGroups 00000001400a8890     netapi32:NETAPI32.dll
 0002:00000898       \177NETAPI32_NULL_THUNK_DATA 00000001400a8898     netapi32:NETAPI32.dll
 0002:000008a0       __imp_GetSystemMetrics     00000001400a88a0     user32:USER32.dll
 0002:000008a8       \177USER32_NULL_THUNK_DATA 00000001400a88a8     user32:USER32.dll
 0002:000008b0       __imp_GetFileVersionInfoA  00000001400a88b0     version:VERSION.dll
 0002:000008b8       __imp_GetFileVersionInfoSizeA 00000001400a88b8     version:VERSION.dll
 0002:000008c0       __imp_VerQueryValueA       00000001400a88c0     version:VERSION.dll
 0002:000008c8       \177VERSION_NULL_THUNK_DATA 00000001400a88c8     version:VERSION.dll
 0002:000008d0       __imp_listen               00000001400a88d0     ws2_32:WS2_32.dll
 0002:000008d8       __imp_ntohs                00000001400a88d8     ws2_32:WS2_32.dll
 0002:000008e0       __imp_getsockname          00000001400a88e0     ws2_32:WS2_32.dll
 0002:000008e8       __imp_htons                00000001400a88e8     ws2_32:WS2_32.dll
 0002:000008f0       __imp_gethostname          00000001400a88f0     ws2_32:WS2_32.dll
 0002:000008f8       __imp_freeaddrinfo         00000001400a88f8     ws2_32:WS2_32.dll
 0002:00000900       __imp_getaddrinfo          00000001400a8900     ws2_32:WS2_32.dll
 0002:00000908       __imp_bind                 00000001400a8908     ws2_32:WS2_32.dll
 0002:00000910       __imp_htonl                00000001400a8910     ws2_32:WS2_32.dll
 0002:00000918       __imp_inet_ntop            00000001400a8918     ws2_32:WS2_32.dll
 0002:00000920       __imp_inet_pton            00000001400a8920     ws2_32:WS2_32.dll
 0002:00000928       __imp_WSAStringToAddressA  00000001400a8928     ws2_32:WS2_32.dll
 0002:00000930       __imp_WSAAddressToStringA  00000001400a8930     ws2_32:WS2_32.dll
 0002:00000938       __imp_inet_ntoa            00000001400a8938     ws2_32:WS2_32.dll
 0002:00000940       __imp_gethostbyname        00000001400a8940     ws2_32:WS2_32.dll
 0002:00000948       __imp_inet_addr            00000001400a8948     ws2_32:WS2_32.dll
 0002:00000950       \177WS2_32_NULL_THUNK_DATA 00000001400a8950     ws2_32:WS2_32.dll
 0002:00000958       __imp_slzsetevar           00000001400a8958     oracore12:oracore12.dll
 0002:00000960       __imp_lstclo               00000001400a8960     oracore12:oracore12.dll
 0002:00000968       __imp_lfird                00000001400a8968     oracore12:oracore12.dll
 0002:00000970       __imp_slzprintf            00000001400a8970     oracore12:oracore12.dll
 0002:00000978       __imp_slosFillErr          00000001400a8978     oracore12:oracore12.dll
 0002:00000980       __imp_lstprintf            00000001400a8980     oracore12:oracore12.dll
 0002:00000988       __imp_lmmtophp             00000001400a8988     oracore12:oracore12.dll
 0002:00000990       __imp_lmmcalloc            00000001400a8990     oracore12:oracore12.dll
 0002:00000998       __imp_lmmfree              00000001400a8998     oracore12:oracore12.dll
 0002:000009a0       __imp_lsfcln               00000001400a89a0     oracore12:oracore12.dll
 0002:000009a8       __imp_lfiwr                00000001400a89a8     oracore12:oracore12.dll
 0002:000009b0       __imp_lfiflu               00000001400a89b0     oracore12:oracore12.dll
 0002:000009b8       __imp_lfimknam             00000001400a89b8     oracore12:oracore12.dll
 0002:000009c0       __imp_lfilini              00000001400a89c0     oracore12:oracore12.dll
 0002:000009c8       __imp_lfiopn               00000001400a89c8     oracore12:oracore12.dll
 0002:000009d0       __imp_lsfp                 00000001400a89d0     oracore12:oracore12.dll
 0002:000009d8       __imp_lpminit              00000001400a89d8     oracore12:oracore12.dll
 0002:000009e0       __imp_ss_snprintf          00000001400a89e0     oracore12:oracore12.dll
 0002:000009e8       __imp_lpmloadpkg           00000001400a89e8     oracore12:oracore12.dll
 0002:000009f0       __imp_lsfini               00000001400a89f0     oracore12:oracore12.dll
 0002:000009f8       __imp_slzgetevar           00000001400a89f8     oracore12:oracore12.dll
 0002:00000a00       __imp_lficls               00000001400a8a00     oracore12:oracore12.dll
 0002:00000a08       __imp_lfifno               00000001400a8a08     oracore12:oracore12.dll
 0002:00000a10       __imp_slosOtherInfo        00000001400a8a10     oracore12:oracore12.dll
 0002:00000a18       __imp_lfifex               00000001400a8a18     oracore12:oracore12.dll
 0002:00000a20       __imp_lmmrealloc           00000001400a8a20     oracore12:oracore12.dll
 0002:00000a28       __imp_lstmup               00000001400a8a28     oracore12:oracore12.dll
 0002:00000a30       __imp_lstlo                00000001400a8a30     oracore12:oracore12.dll
 0002:00000a38       \177oracore12_NULL_THUNK_DATA 00000001400a8a38     oracore12:oracore12.dll
 0002:00000a40       __imp_CreateFileA          00000001400a8a40     orauts:orauts.dll
 0002:00000a48       __imp_CloseHandle          00000001400a8a48     orauts:orauts.dll
 0002:00000a50       __imp_WSAGetLastError      00000001400a8a50     orauts:orauts.dll
 0002:00000a58       __imp_GetLastError         00000001400a8a58     orauts:orauts.dll
 0002:00000a60       __imp_CreateProcessA       00000001400a8a60     orauts:orauts.dll
 0002:00000a68       __imp_LoadLibraryA         00000001400a8a68     orauts:orauts.dll
 0002:00000a70       __imp_GetProcAddress       00000001400a8a70     orauts:orauts.dll
 0002:00000a78       __imp_SetFilePointer       00000001400a8a78     orauts:orauts.dll
 0002:00000a80       __imp_ReadFile             00000001400a8a80     orauts:orauts.dll
 0002:00000a88       __imp_WriteFile            00000001400a8a88     orauts:orauts.dll
 0002:00000a90       __imp_SetLastError         00000001400a8a90     orauts:orauts.dll
 0002:00000a98       __imp_GetCurrentThreadId   00000001400a8a98     orauts:orauts.dll
 0002:00000aa0       __imp_FreeLibrary          00000001400a8aa0     orauts:orauts.dll
 0002:00000aa8       __imp_Sleep                00000001400a8aa8     orauts:orauts.dll
 0002:00000ab0       __imp_WSASocketA           00000001400a8ab0     orauts:orauts.dll
 0002:00000ab8       __imp_ioctlsocket          00000001400a8ab8     orauts:orauts.dll
 0002:00000ac0       __imp_setsockopt           00000001400a8ac0     orauts:orauts.dll
 0002:00000ac8       __imp_sendto               00000001400a8ac8     orauts:orauts.dll
 0002:00000ad0       __imp_recvfrom             00000001400a8ad0     orauts:orauts.dll
 0002:00000ad8       __imp_select               00000001400a8ad8     orauts:orauts.dll
 0002:00000ae0       __imp_closesocket          00000001400a8ae0     orauts:orauts.dll
 0002:00000ae8       __imp_WSACleanup           00000001400a8ae8     orauts:orauts.dll
 0002:00000af0       __imp_OpenProcess          00000001400a8af0     orauts:orauts.dll
 0002:00000af8       __imp_SleepEx              00000001400a8af8     orauts:orauts.dll
 0002:00000b00       __imp_socket               00000001400a8b00     orauts:orauts.dll
 0002:00000b08       __imp_CreateThread         00000001400a8b08     orauts:orauts.dll
 0002:00000b10       __imp_accept               00000001400a8b10     orauts:orauts.dll
 0002:00000b18       __imp_connect              00000001400a8b18     orauts:orauts.dll
 0002:00000b20       __imp_recv                 00000001400a8b20     orauts:orauts.dll
 0002:00000b28       __imp_send                 00000001400a8b28     orauts:orauts.dll
 0002:00000b30       __imp_WSAStartup           00000001400a8b30     orauts:orauts.dll
 0002:00000b38       \177orauts_NULL_THUNK_DATA 00000001400a8b38     orauts:orauts.dll
 0002:00000b40       __xc_a                     00000001400a8b40     msvcrt:cinitexe.obj
 0002:00002830       __xc_z                     00000001400aa830     msvcrt:cinitexe.obj
 0002:00002838       __xi_a                     00000001400aa838     msvcrt:cinitexe.obj
 0002:00002858       __xi_z                     00000001400aa858     msvcrt:cinitexe.obj
 0002:000033a0       ??_C@_03A@?5?$DO?5?$AA@    00000001400ab3a0     sprvfex.obj
 0002:000033a4       ??_C@_05A@?52?$DO?$CG1?$AA@ 00000001400ab3a4     sprvfex.obj
 0002:000033ac       ??_C@_0P@A@sprvfexExecCmd?$AA@ 00000001400ab3ac     sprvfex.obj
 0002:000033bc       ??_C@_0BC@A@sprvfexCheckOsver?$AA@ 00000001400ab3bc     sprvfex.obj
 0002:000033d0       ??_C@_0N@A@GetVersionEx?$AA@ 00000001400ab3d0     sprvfex.obj
 0002:000033e0       ??_C@_0DD@A@sprvfexCheckOsRelease?3?5unable?5to?5wrap?5log?5message?6?$AA@ 00000001400ab3e0     sprvfex.obj
 0002:00003414       ??_C@_0CI@A@Exectask?3?5could?5not?5retrieve?5OS?5Version?$AA@ 00000001400ab414     sprvfex.obj
 0002:0000343c       ??_C@_07A@Unknown?$AA@     00000001400ab43c     sprvfex.obj
 0002:00003444       ??_C@_0BH@A@Windows?5Server?52008?5R2?$AA@ 00000001400ab444     sprvfex.obj
 0002:0000345c       ??_C@_0BE@A@Windows?5Server?52008?$AA@ 00000001400ab45c     sprvfex.obj
 0002:00003470       ??_C@_0BE@A@Windows?5Server?52003?$AA@ 00000001400ab470     sprvfex.obj
 0002:00003484       ??_C@_0L@A@Windows?5XP?$AA@ 00000001400ab484     sprvfex.obj
 0002:00003490       ??_C@_0N@A@Windows?52000?$AA@ 00000001400ab490     sprvfex.obj
 0002:000034a0       ??_C@_0L@A@Windows?5NT?$AA@ 00000001400ab4a0     sprvfex.obj
 0002:000034ac       ??_C@_0L@A@Windows?595?$AA@ 00000001400ab4ac     sprvfex.obj
 0002:000034b8       ??_C@_0L@A@Windows?598?$AA@ 00000001400ab4b8     sprvfex.obj
 0002:000034c4       ??_C@_0BD@A@Windows?5Millennium?$AA@ 00000001400ab4c4     sprvfex.obj
 0002:000034d8       ??_C@_06A@Win32s?$AA@      00000001400ab4d8     sprvfex.obj
 0002:000034e0       ??_C@_0CM@A@sprvfexCheckOsRelease?3?5unable?5to?5wrap?5vres?6?$AA@ 00000001400ab4e0     sprvfex.obj
 0002:0000350c       ??_C@_0DD@A@sprvfexCheckOsRelease?3?5unable?5to?5wrap?5val?5message?6?$AA@ 00000001400ab50c     sprvfex.obj
 0002:00003540       ??_C@_0CO@A@Exectask?3?5OS?5version?5retrieval?5was?5successful?$AA@ 00000001400ab540     sprvfex.obj
 0002:00003570       ??_C@_01A@?2?$AA@          00000001400ab570     sprvfex.obj
 0002:00003574       ??_C@_01A@0?$AA@           00000001400ab574     sprvfex.obj
 0002:00003578       ??_C@_0BD@A@GetDiskFreeSpaceEx?$AA@ 00000001400ab578     sprvfex.obj
 0002:0000358c       ??_C@_08A@CVU00551?$AA@    00000001400ab58c     sprvfex.obj
 0002:00003598       ??_C@_0BP@A@Exectask?3getspaceavail?5success?$AA@ 00000001400ab598     sprvfex.obj
 0002:000035b8       ??_C@_0BO@A@Exectask?3getspaceavail?5failed?$AA@ 00000001400ab5b8     sprvfex.obj
 0002:000035d8       ??_C@_0BA@A@?$DMCONNECTED?0YES?$DO?$AA@ 00000001400ab5d8     sprvfex.obj
 0002:000035e8       ??_C@_0P@A@?$DMCONNECTED?0NO?$DO?$AA@ 00000001400ab5e8     sprvfex.obj
 0002:000035f8       ??_C@_02A@?$CFs?$AA@       00000001400ab5f8     sprvfex.obj
 0002:000035fc       ??_C@_0BD@A@FindFirstFile?$CI?$CJ?5?$CFs?$AA@ 00000001400ab5fc     sprvfex.obj
 0002:00003610       ??_C@_0O@A@FindFirstFile?$AA@ 00000001400ab610     sprvfex.obj
 0002:00003620       ??_C@_08A@CVU00500?$AA@    00000001400ab620     sprvfex.obj
 0002:0000362c       ??_C@_08A@CVU00501?$AA@    00000001400ab62c     sprvfex.obj
 0002:00003638       ??_C@_04A@prvf?$AA@        00000001400ab638     sprvfex.obj
 0002:00003640       ??_C@_04A@7508?$AA@        00000001400ab640     sprvfex.obj
 0002:00003648       ??_C@_08A@CVU00480?$AA@    00000001400ab648     sprvfex.obj
 0002:00003654       ??_C@_0BC@A@GetFileAttributes?$AA@ 00000001400ab654     sprvfex.obj
 0002:00003668       ??_C@_0BO@A@Given?5Path?5is?5not?5a?5directory?$AA@ 00000001400ab668     sprvfex.obj
 0002:00003688       ??_C@_04A@?$CFs?2?$CK?$AA@ 00000001400ab688     sprvfex.obj
 0002:00003690       ??_C@_08A@CVU00481?$AA@    00000001400ab690     sprvfex.obj
 0002:0000369c       ??_C@_0CL@A@Error?5while?5getting?5size?5of?5the?5directory?4?$AA@ 00000001400ab69c     sprvfex.obj
 0002:000036c8       ??_C@_05A@?$CFs?1?$CFs?$AA@ 00000001400ab6c8     sprvfex.obj
 0002:000036d0       ??_C@_02A@?4?4?$AA@        00000001400ab6d0     sprvfex.obj
 0002:000036d4       ??_C@_01A@?4?$AA@          00000001400ab6d4     sprvfex.obj
 0002:000036d8       ??_C@_08A@CVU00482?$AA@    00000001400ab6d8     sprvfex.obj
 0002:000036e4       ??_C@_0BD@A@sprvfex_getdirsize?$AA@ 00000001400ab6e4     sprvfex.obj
 0002:000036f8       ??_C@_0BH@A@Could?5not?5handle?5size?4?$AA@ 00000001400ab6f8     sprvfex.obj
 0002:00003710       ??_C@_05A@?$CFI64d?$AA@    00000001400ab710     sprvfex.obj
 0002:00003718       ??_C@_0CJ@A@sprvfex_getdirsize?3?5unable?5to?5write?5val?6?$AA@ 00000001400ab718     sprvfex.obj
 0002:00003744       ??_C@_0CJ@A@sprvfex_getdirsize?3?5unable?5to?5wrap?5vres?6?$AA@ 00000001400ab744     sprvfex.obj
 0002:00003770       ??_C@_0CB@A@Exectask?3?5sprvfex_getdirsize?5?$CFs?4?$AA@ 00000001400ab770     sprvfex.obj
 0002:00003794       ??_C@_0L@A@successful?$AA@ 00000001400ab794     sprvfex.obj
 0002:000037a0       ??_C@_06A@failed?$AA@      00000001400ab7a0     sprvfex.obj
 0002:000037a8       ??_C@_0DA@A@sprvfex_getdirsize?3?5unable?5to?5wrap?5log?5message?6?$AA@ 00000001400ab7a8     sprvfex.obj
 0002:000037d8       ??_C@_0P@A@sprvfexChkFile?$AA@ 00000001400ab7d8     sprvfex.obj
 0002:000037e8       ??_C@_08A@OpenFile?$AA@    00000001400ab7e8     sprvfex.obj
 0002:000037f4       ??_C@_0CM@A@sprvfexChkFile?3?5unable?5to?5wrap?5log?5message?6?$AA@ 00000001400ab7f4     sprvfex.obj
 0002:00003820       ??_C@_0CH@A@Exectask?3?5could?5not?5retrieve?5file?5size?$AA@ 00000001400ab820     sprvfex.obj
 0002:00003848       ??_C@_02A@?$CFd?$AA@       00000001400ab848     sprvfex.obj
 0002:0000384c       ??_C@_0O@A@GetFileSizeEx?$AA@ 00000001400ab84c     sprvfex.obj
 0002:0000385c       ??_C@_0CN@A@sprvfexChkFile?3?5unable?5to?5wrap?5filesize?5val?6?$AA@ 00000001400ab85c     sprvfex.obj
 0002:0000388c       ??_C@_0CN@A@Exectask?3?5file?5size?5retrieval?5was?5successful?$AA@ 00000001400ab88c     sprvfex.obj
 0002:000038bc       ??_C@_0CF@A@sprvfexChkFile?3?5unable?5to?5wrap?5vres?6?$AA@ 00000001400ab8bc     sprvfex.obj
 0002:000038e4       ??_C@_0CE@A@Exectask?3?5file?5check?5was?5successful?$AA@ 00000001400ab8e4     sprvfex.obj
 0002:00003908       ??_C@_0BH@A@sprvfexChkFileInSystem?$AA@ 00000001400ab908     sprvfex.obj
 0002:00003920       ??_C@_0P@A@malloc?5failure?$AA@ 00000001400ab920     sprvfex.obj
 0002:00003930       ??_C@_0DA@A@sprvfexChkFileInSystem?3?5unable?5to?5wrap?5log?5msg?6?$AA@ 00000001400ab930     sprvfex.obj
 0002:00003960       ??_C@_0CK@A@Exectask?3?5check?5of?5file?5in?5system?5failed?4?$AA@ 00000001400ab960     sprvfex.obj
 0002:0000398c       ??_C@_0BD@A@GetSystemDirectory?$AA@ 00000001400ab98c     sprvfex.obj
 0002:000039a0       ??_C@_0DE@A@sprvfexChkFileInSystem?3?5unable?5to?5wrap?5log?5message?6?$AA@ 00000001400ab9a0     sprvfex.obj
 0002:000039d4       ??_C@_0DI@A@Exectask?3?5could?5not?5perform?5the?5check?5of?5file?5in?5System?$AA@ 00000001400ab9d4     sprvfex.obj
 0002:00003a0c       ??_C@_0CN@A@sprvfexChkFileInSystem?3?5unable?5to?5wrap?5vres?6?$AA@ 00000001400aba0c     sprvfex.obj
 0002:00003a3c       ??_C@_0CO@A@Exectask?3?5file?5check?5in?5system?5was?5successful?$AA@ 00000001400aba3c     sprvfex.obj
 0002:00003a6c       ??_C@_0BE@A@sprvfexCheckFileVer?$AA@ 00000001400aba6c     sprvfex.obj
 0002:00003a80       ??_C@_0BH@A@GetFileVersionInfoSize?$AA@ 00000001400aba80     sprvfex.obj
 0002:00003a98       ??_C@_0DB@A@sprvfexCheckFileVer?3?5unable?5to?5wrap?5log?5message?6?$AA@ 00000001400aba98     sprvfex.obj
 0002:00003acc       ??_C@_0CK@A@Exectask?3?5could?5not?5retrieve?5File?5Version?$AA@ 00000001400abacc     sprvfex.obj
 0002:00003af8       ??_C@_0N@A@?$CFd?4?$CFd?4?$CFd?4?$CFd?6?$AA@ 00000001400abaf8     sprvfex.obj
 0002:00003b08       ??_C@_0O@A@VerQueryValue?$AA@ 00000001400abb08     sprvfex.obj
 0002:00003b18       ??_C@_0M@A@GlobalAlloc?$AA@ 00000001400abb18     sprvfex.obj
 0002:00003b24       ??_C@_0DB@A@sprvfexCheckFileVer?3?5unable?5to?5wrap?5val?5message?6?$AA@ 00000001400abb24     sprvfex.obj
 0002:00003b58       ??_C@_0CK@A@sprvfexCheckfileVer?3?5unable?5to?5wrap?5vres?6?$AA@ 00000001400abb58     sprvfex.obj
 0002:00003b84       ??_C@_0DA@A@Exectask?3?5File?5Version?5retrieval?5was?5successful?$AA@ 00000001400abb84     sprvfex.obj
 0002:00003bb4       ??_C@_04A@?2?2?4?2?$AA@    00000001400abbb4     sprvfex.obj
 0002:00003bbc       ??_C@_04A@?2?2?$DP?2?$AA@  00000001400abbbc     sprvfex.obj
 0002:00003bc4       ??_C@_06A@?$DMFILE?$DO?$AA@ 00000001400abbc4     sprvfex.obj
 0002:00003bcc       ??_C@_09A@?$DMNAME?0?$CFs?$DO?$AA@ 00000001400abbcc     sprvfex.obj
 0002:00003bd8       ??_C@_06A@?$CFHOST?$CF?$AA@ 00000001400abbd8     sprvfex.obj
 0002:00003be0       ??_C@_05A@$HOST?$AA@       00000001400abbe0     sprvfex.obj
 0002:00003be8       ??_C@_0L@A@?$DMSTATUS?01?$DO?$AA@ 00000001400abbe8     sprvfex.obj
 0002:00003bf4       ??_C@_0L@A@?$DMERROR?0?$CFs?$DO?$AA@ 00000001400abbf4     sprvfex.obj
 0002:00003c00       ??_C@_0L@A@?$DMSTATUS?00?$DO?$AA@ 00000001400abc00     sprvfex.obj
 0002:00003c0c       ??_C@_08A@?$DM?1FILE?$DO?6?$AA@ 00000001400abc0c     sprvfex.obj
 0002:00003c18       ??_C@_06A@?$CFs?2?$CK?4?$CK?$AA@ 00000001400abc18     sprvfex.obj
 0002:00003c20       ??_C@_05A@?$CFs?2?$CFs?$AA@ 00000001400abc20     sprvfex.obj
 0002:00003c28       ??_C@_0DA@A@sprvfexGetFileInfo?3?5unable?5to?5wrap?5log?5message?6?$AA@ 00000001400abc28     sprvfex.obj
 0002:00003c58       ??_C@_0CJ@A@sprvfexGetFileInfo?3?5input?5path?5is?5NULL?4?6?$AA@ 00000001400abc58     sprvfex.obj
 0002:00003c84       ??_C@_01A@r?$AA@           00000001400abc84     sprvfex.obj
 0002:00003c88       ??_C@_0DE@A@sprvfexGetFileInfo?3?5unable?5to?5open?5config?5file?5?$CFs?4?6?$AA@ 00000001400abc88     sprvfex.obj
 0002:00003cbc       ??_C@_0BC@A@getFileInfo?$CFd?4out?$AA@ 00000001400abcbc     sprvfex.obj
 0002:00003cd0       ??_C@_07A@scratch?$AA@     00000001400abcd0     sprvfex.obj
 0002:00003cd8       ??_C@_01A@w?$AA@           00000001400abcd8     sprvfex.obj
 0002:00003cdc       ??_C@_0DO@A@sprvfexGetFileInfo?3?5unable?5to?5open?5temporary?5output?5file?5?$CFs?4?6?$AA@ 00000001400abcdc     sprvfex.obj
 0002:00003d1c       ??_C@_0DG@A@sprvfexGetFileInfo?3?5error?5in?5reading?5config?5file?5?$CFs?4?6?$AA@ 00000001400abd1c     sprvfex.obj
 0002:00003d54       ??_C@_0DA@A@sprvfexGetFileInfo?3?5unable?5to?5wrap?5val?5message?6?$AA@ 00000001400abd54     sprvfex.obj
 0002:00003d84       ??_C@_0DB@A@sprvfexLongestValidDirpath?3?5unable?5to?5wrap?5vres?6?$AA@ 00000001400abd84     sprvfex.obj
 0002:00003db8       ??_C@_0DB@A@sprvfexLongestValidDirpath?3?5unable?5to?5wrap?5?5val?6?$AA@ 00000001400abdb8     sprvfex.obj
 0002:00003dec       ??_C@_0CJ@A@Exectask?3?5sprvfexLongestValidDirpath?5?$CFs?4?$AA@ 00000001400abdec     sprvfex.obj
 0002:00003e18       ??_C@_0DI@A@sprvfexLongestValidDirpath?3?5unable?5to?5wrap?5log?5message?6?$AA@ 00000001400abe18     sprvfex.obj
 0002:00003e50       ??_C@_07A@NOMATCH?$AA@     00000001400abe50     sprvfex.obj
 0002:00003e58       ??_C@_0CG@A@sprvfex_fnmatch?3?5unable?5to?5wrap?5vres?6?$AA@ 00000001400abe58     sprvfex.obj
 0002:00003e80       ??_C@_08A@CVU00488?$AA@    00000001400abe80     sprvfex.obj
 0002:00003e8c       ??_C@_0BI@A@sprvfex_chkdirstructure?$AA@ 00000001400abe8c     sprvfex.obj
 0002:00003ea4       ??_C@_0BB@A@NULL?5Parameters?4?$AA@ 00000001400abea4     sprvfex.obj
 0002:00003eb8       ??_C@_0BD@A@tempfile?$CFd?$CFd?$CFd?$CFd?$CFd?$AA@ 00000001400abeb8     sprvfex.obj
 0002:00003ecc       ??_C@_0BE@A@GetCurrentDirectory?$AA@ 00000001400abecc     sprvfex.obj
 0002:00003ee0       ??_C@_0BA@A@GetFullPathName?$AA@ 00000001400abee0     sprvfex.obj
 0002:00003ef0       ??_C@_06A@?$CFs?$CFc?$CFs?$AA@ 00000001400abef0     sprvfex.obj
 0002:00003ef8       ??_C@_02A@a?$CL?$AA@       00000001400abef8     sprvfex.obj
 0002:00003efc       ??_C@_05A@fopen?$AA@       00000001400abefc     sprvfex.obj
 0002:00003f04       ??_C@_04A@?$CFs?$CFc?$AA@  00000001400abf04     sprvfex.obj
 0002:00003f0c       ??_C@_08A@CVU00485?$AA@    00000001400abf0c     sprvfex.obj
 0002:00003f18       ??_C@_0BP@A@CRS?5Home?5is?5under?5Oracle?5Base?4?$AA@ 00000001400abf18     sprvfex.obj
 0002:00003f38       ??_C@_0CN@A@sprvfex_checkdirstruct?3?5unable?5to?5wrap?5vres?6?$AA@ 00000001400abf38     sprvfex.obj
 0002:00003f68       ??_C@_0DE@A@sprvfex_checkdirstruct?3?5unable?5to?5wrap?5log?5message?6?$AA@ 00000001400abf68     sprvfex.obj
 0002:00003f9c       ??_C@_0CM@A@Check?5of?5directory?5structure?5is?5successful?4?$AA@ 00000001400abf9c     sprvfex.obj
 0002:00003fc8       ??_C@_0CI@A@Check?5of?5directory?5structure?5is?5failed?4?$AA@ 00000001400abfc8     sprvfex.obj
 0002:00003ff0       ??_C@_01A@?5?$AA@          00000001400abff0     sprvfex.obj
 0002:00003ff4       ??_C@_05A@?5?9win?$AA@     00000001400abff4     sprvfex.obj
 0002:00003ffc       ??_C@_07A@?5?9debug?$AA@   00000001400abffc     sprvfex.obj
 0002:00004004       ??_C@_0O@A@CreateProcess?$AA@ 00000001400ac004     sprvfex.obj
 0002:00004014       ??_C@_0BF@A@sprvfexCreateProcess?$AA@ 00000001400ac014     sprvfex.obj
 0002:0000402c       ??_C@_08A@NLS_LANG?$AA@    00000001400ac02c     sprvfex.obj
 0002:00004038       ??_C@_0BK@A@American_America?4US7ASCII?$AA@ 00000001400ac038     sprvfex.obj
 0002:00004054       ??_C@_0BF@A@sprvfex_checkservice?$AA@ 00000001400ac054     sprvfex.obj
 0002:0000406c       ??_C@_06A@calloc?$AA@      00000001400ac06c     sprvfex.obj
 0002:00004074       ??_C@_0CA@A@?$CFs?3?5unable?5to?5wrap?5log?5message?6?$AA@ 00000001400ac074     sprvfex.obj
 0002:000040a0       ??_C@_0FO@A@?$DMSERVICE_TYPE?$DO?$CFu?$DM?1SERVICE_TYPE?$DO?$DMSTART_TYPE?$DO?$CFu?$DM?1START_TYPE?$DO?$DMSERVICE_STATUS?$DO?$CFu?$DM?1SERVICE_STATUS?$DO?$AA@ 00000001400ac0a0     sprvfex.obj
 0002:00004100       ??_C@_0BC@A@?$DMERROR?$DO?$CFs?$DM?1ERROR?$DO?$AA@ 00000001400ac100     sprvfex.obj
 0002:00004114       ??_C@_0CD@A@checkservice?3?5unable?5to?5wrap?5vres?6?$AA@ 00000001400ac114     sprvfex.obj
 0002:00004138       ??_C@_0BC@A@sprvfex_checkPort?$AA@ 00000001400ac138     sprvfex.obj
 0002:0000414c       ??_C@_0CP@A@sprvfex_checkPort?3?5unable?5to?5wrap?5log?5message?6?$AA@ 00000001400ac14c     sprvfex.obj
 0002:0000417c       ??_C@_0DL@A@Exectask?3?5could?5not?5perform?5the?5check?5of?5port?5availability?$AA@ 00000001400ac17c     sprvfex.obj
 0002:000041c0       ??_C@_0EP@A@?$CFs?2netstat?4exe?5?9an?5?$HM?5?$CFs?2findstr?4exe?5?$CCLISTENING?$CC?5?$HM?5?$CFs?2findstr?4exe?5?$CC?3?$CFs?$FL?$FO?4?30?99?$FN?$CC?$AA@ 00000001400ac1c0     sprvfex.obj
 0002:00004220       ??_C@_0EK@A@?$CFs?2netstat?4exe?5?9an?5?$HM?5?$CFs?2findstr?4exe?5?$CCUDP?$CC?5?$HM?5?$CFs?2findstr?4exe?5?$CC?3?$CFs?$FL?$FO0?99?$FN?4?$CK?3?$CC?$AA@ 00000001400ac220     sprvfex.obj
 0002:00004280       ??_C@_0BP@A@ERROR?3?5Invalid?5protocol?5used?4?6?$AA@ 00000001400ac280     sprvfex.obj
 0002:000042a0       ??_C@_03A@udp?$AA@         00000001400ac2a0     sprvfex.obj
 0002:000042a4       ??_C@_03A@tcp?$AA@         00000001400ac2a4     sprvfex.obj
 0002:000042a8       ??_C@_0CD@A@ERROR?3?5Unable?5to?5allocate?5memory?4?6?$AA@ 00000001400ac2a8     sprvfex.obj
 0002:000042cc       ??_C@_0BN@A@Protocol?5?$CFs?5port?5?$CFs?5in?5use?4?6?$AA@ 00000001400ac2cc     sprvfex.obj
 0002:000042ec       ??_C@_0DG@A@prvfex_checkPort?3?5unable?5to?5wrap?5verification?5result?6?$AA@ 00000001400ac2ec     sprvfex.obj
 0002:00004324       ??_C@_0CO@A@prvfex_checkPort?3?5unable?5to?5wrap?5log?5message?6?$AA@ 00000001400ac324     sprvfex.obj
 0002:00004354       ??_C@_0CA@A@Exectask?3?5chkportnumber?5failed?6?$AA@ 00000001400ac354     sprvfex.obj
 0002:00004374       ??_C@_0CB@A@Protocol?5?$CFs?5port?5?$CFs?5not?5in?5use?4?6?$AA@ 00000001400ac374     sprvfex.obj
 0002:00004398       ??_C@_0DH@A@sprvfex_checkPort?3?5unable?5to?5wrap?5verification?5result?6?$AA@ 00000001400ac398     sprvfex.obj
 0002:000043d0       ??_C@_0BO@A@Exectask?3?5chkport?5successful?6?$AA@ 00000001400ac3d0     sprvfex.obj
 0002:000043f0       ??_C@_0CF@A@Could?5not?5check?5the?5Port?5?$CFs?5status?4?6?$AA@ 00000001400ac3f0     sprvfex.obj
 0002:00004418       ??_C@_0BK@A@Exectask?3?5chkport?5failed?6?$AA@ 00000001400ac418     sprvfex.obj
 0002:00004434       ??_C@_06A@GLOBAL?$AA@      00000001400ac434     sprvfex.obj
 0002:0000443c       ??_C@_0DF@A@prvfex_oputtoval?3?5unable?5to?5open?5output?5file?$FLRC?3?$CFd?$FN?6?$AA@ 00000001400ac43c     sprvfex.obj
 0002:00004474       ??_C@_0DB@A@prvcCopyFile?3?5unable?5to?5read?5source?5file?$FLRC?3?$CFd?$FN?6?$AA@ 00000001400ac474     sprvfex.obj
 0002:000044a8       ??_C@_0CP@A@prvfex_oputtoval?3?5unable?5to?5close?5output?5file?6?$AA@ 00000001400ac4a8     sprvfex.obj
 0002:000044d8       ??_C@_0DD@A@prvfex_chkICMPPing?3?5ping?5input?5file?5does?5not?5exist?$AA@ 00000001400ac4d8     sprvfex.obj
 0002:0000450c       ??_C@_0DH@A@prvfex_chkICMPPing?3?5unable?5to?5parse?5ping?5details?5file?5?$AA@ 00000001400ac50c     sprvfex.obj
 0002:00004544       ??_C@_08A@CVU00548?$AA@    00000001400ac544     sprvfex.obj
 0002:00004550       ??_C@_08A@CVU00567?$AA@    00000001400ac550     sprvfex.obj
 0002:0000455c       ??_C@_0BC@A@sprvnc_ping?5?$CFs?5?$CFs?$AA@ 00000001400ac55c     sprvfex.obj
 0002:00004570       ??_C@_0DF@A@prvfex_chkICMPPing?3?5unable?5to?5delete?5ping?5input?5file?$AA@ 00000001400ac570     sprvfex.obj
 0002:000045a8       ??_C@_0CC@A@Exectask?3?5sprvfex_chkICMPPing?5?$CFs?4?$AA@ 00000001400ac5a8     sprvfex.obj
 0002:000045cc       ??_C@_08A@CVU00568?$AA@    00000001400ac5cc     sprvfex.obj
 0002:000045e0       ??_C@_0ID@A@?$DMCV_VAL?$DO?$DMSOURCE_IP?$DO?$CFs?$DM?1SOURCE_IP?$DO?$DMDEST_IP?$DO?$CFs?$DM?1DEST_IP?$DO?$DMCONNECTED?$DOFALSE?$DM?1CONNECTED?$DO?$DMCOMMAND?$DO?$CFs?$DM?1COMMAND?$DO?$DMERROR?$DO?$CFs?$DM?1ERROR?$DO?$DM?1CV_VAL?$DO?6?$AA@ 00000001400ac5e0     sprvfex.obj
 0002:00004680       ??_C@_0FM@A@?$DMCV_VAL?$DO?$DMSOURCE_IP?$DO?$CFs?$DM?1SOURCE_IP?$DO?$DMDEST_IP?$DO?$CFs?$DM?1DEST_IP?$DO?$DMCONNECTED?$DOTRUE?$DM?1CONNECTED?$DO?$DM?1CV_VAL?$DO?6?$AA@ 00000001400ac680     sprvfex.obj
 0002:000046e0       ??_C@_08A@CVU00569?$AA@    00000001400ac6e0     sprvfex.obj
 0002:000046ec       ??_C@_01A@a?$AA@           00000001400ac6ec     sprvfex.obj
 0002:000046f0       ??_C@_0CB@A@Error?5obtaining?5physical?5drives?6?$AA@ 00000001400ac6f0     OracleLinkSupport.obj
 0002:00004714       ??_C@_0N@A@Kernel32?4dll?$AA@ 00000001400ac714     OracleLinkSupport.obj
 0002:00004724       ??_C@_0BI@A@cant?5load?5kernel32?4dll?6?$AA@ 00000001400ac724     OracleLinkSupport.obj
 0002:0000473c       ??_C@_0BB@A@FindFirstVolumeA?$AA@ 00000001400ac73c     OracleLinkSupport.obj
 0002:00004750       ??_C@_0CI@A@Error?5in?5find1stVol?5call?5with?5error?3?5?$CFd?$AA@ 00000001400ac750     OracleLinkSupport.obj
 0002:00004778       ??_C@_0BA@A@FindNextVolumeA?$AA@ 00000001400ac778     OracleLinkSupport.obj
 0002:00004788       ??_C@_0CO@A@Error?5in?5find?5nect?5volume?5call?5with?5error?3?5?$CFd?$AA@ 00000001400ac788     OracleLinkSupport.obj
 0002:000047b8       ??_C@_0BD@A@No?5volumes?5found?$CB?6?$AA@ 00000001400ac7b8     OracleLinkSupport.obj
 0002:000047cc       ??_C@_0BO@A@?6?5Cannot?5open?5handle?5to?5file?6?$AA@ 00000001400ac7cc     OracleLinkSupport.obj
 0002:00004800       ??_C@_0EB@A@Couldnt?5allocate?5memory?5to?5store?5the?5name?5of?5the?5physical?5drive?6?$AA@ 00000001400ac800     OracleLinkSupport.obj
 0002:00004860       ??_C@_0BB@A@PhysicalDrive?$CFd?$AA?$AA@ 00000001400ac860     OracleLinkSupport.obj
 0002:00004874       ??_C@_0BA@A@?5Found?5disk?5?$CFs?6?$AA@ 00000001400ac874     OracleLinkSupport.obj
 0002:00004884       ??_C@_0O@A@PhysicalDrive?$AA@ 00000001400ac884     OracleLinkSupport.obj
 0002:00004894       ??_C@_0DF@A@QueryDosDeviceAll?3?5buffer?5was?5filled?5with?5?$CFd?5bytes?5?6?$AA@ 00000001400ac894     OracleLinkSupport.obj
 0002:000048cc       ??_C@_0CM@A@Unable?5to?5resize?5memory?5allocation?0?5area?51?6?$AA@ 00000001400ac8cc     OracleLinkSupport.obj
 0002:000048f8       ??_C@_0CN@A@Unable?5to?5resize?5memory?5allocaytion?0?5area?52?6?$AA@ 00000001400ac8f8     OracleLinkSupport.obj
 0002:00004928       ??_C@_0BO@A@Error?5getting?5dos?5devices?5?$CFd?6?$AA@ 00000001400ac928     OracleLinkSupport.obj
 0002:00004948       ??_C@_0BD@A@Value?5Not?5Located?6?$AA@ 00000001400ac948     OracleLinkSupport.obj
 0002:0000495c       ??_C@_06A@?2?2?4?2?$CFs?$AA@ 00000001400ac95c     OracleLinkSupport.obj
 0002:00004964       ??_C@_0CL@A@Error?5opening?5physical?5disk?5?$CFs?5?$CIError?5?$CFd?$CJ?6?$AA@ 00000001400ac964     OracleLinkSupport.obj
 0002:00004990       ??_C@_0CH@A@Error?5in?5malloc?5of?5DISKINFO?5structure?6?$AA@ 00000001400ac990     OracleLinkSupport.obj
 0002:000049b8       ??_C@_0DB@A@Error?5in?5IO?5Control?5call?5for?5disk?5?$CFs?5?$CIError?5?$CFd?$CJ?6?$AA@ 00000001400ac9b8     OracleLinkSupport.obj
 0002:000049ec       ??_C@_0CP@A@Error?5in?5allocation?5of?5DRIVE_LAYOUT_STRUCTURE?6?$AA@ 00000001400ac9ec     OracleLinkSupport.obj
 0002:00004a1c       ??_C@_0CN@A@Error?5in?5deviceIOControl?5call?5?$CFd?0?5for?5disk?5?6?$AA@ 00000001400aca1c     OracleLinkSupport.obj
 0002:00004a4c       ??_C@_0BA@A@The?5count?5?$DN?5?$CFd?6?$AA@ 00000001400aca4c     OracleLinkSupport.obj
 0002:00004a5c       ??_C@_0BH@A@The?5signature?5is?50x?$CFx?6?$AA@ 00000001400aca5c     OracleLinkSupport.obj
 0002:00004a74       ??_C@_0DD@A@Number?5of?5partitions?5?$CI?$CFd?$CJ?5less?5than?5or?5equal?5to?54?6?$AA@ 00000001400aca74     OracleLinkSupport.obj
 0002:00004aa8       ??_C@_0DG@A@The?5number?5of?5partitions?5?$CI?$CFd?$CJ?5is?5not?5a?5multiple?5of?54?6?$AA@ 00000001400acaa8     OracleLinkSupport.obj
 0002:00004ae0       ??_C@_0DN@A@Error?3?5First?5Partition?5of?5the?5disk?5must?5be?5an?5extended?5disk?6?$AA@ 00000001400acae0     OracleLinkSupport.obj
 0002:00004b20       ??_C@_0BJ@A@Found?5the?5partition?3?5?$CFd?6?$AA@ 00000001400acb20     OracleLinkSupport.obj
 0002:00004b40       ??_C@_0EP@A@Error?3?5A?5recognized?5partition?$CI?$CFd?$CJ?5has?5been?5found?5in?5the?5first?5partition?5table?6?$AA@ 00000001400acb40     OracleLinkSupport.obj
 0002:00004ba0       ??_C@_00A@?$AA@            00000001400acba0     OracleLinkSupport.obj
 0002:00004bc0       ??_C@_0FH@A@Error?3?5The?5first?5partition?5entry?5in?5partition?5table?5?$CFd?5is?5not?5a?5recognized?5partition?6?5?$AA@ 00000001400acbc0     OracleLinkSupport.obj
 0002:00004c20       ??_C@_0GE@A@Error?3?5The?5first?5extended?5partition?5entry?5in?5partition?5table?5?$CFd?5is?5not?5a?5valid?5logical?5drive?5type?6?5?$AA@ 00000001400acc20     OracleLinkSupport.obj
 0002:00004ca0       ??_C@_0EE@A@Error?3?5Second?5Partition?5entry?5of?5the?5disk?5must?5be?5an?5extended?5disk?6?$AA@ 00000001400acca0     OracleLinkSupport.obj
 0002:00004d00       ??_C@_0CK@A@Error?5in?5read?5of?5first?5sector?5error?5?$CI?$CFd?$CJ?6?$AA@ 00000001400acd00     OracleLinkSupport.obj
 0002:00004d2c       ??_C@_0DC@A@Error?5in?5read?5of?5first?5sector?5size?$CI?$CFd?$CJ?0?5read?$CI?$CFd?$CJ?6?$AA@ 00000001400acd2c     OracleLinkSupport.obj
 0002:00004d60       ??_C@_0CN@A@Partition?5contains?5a?5FAT?$CIMSDOS?$CJ?5file?5system?6?$AA@ 00000001400acd60     OracleLinkSupport.obj
 0002:00004d90       ??_C@_05A@MSDOS?$AA@       00000001400acd90     OracleLinkSupport.obj
 0002:00004d98       ??_C@_0CH@A@Partition?5contains?5a?5NTFS?5file?5system?6?$AA@ 00000001400acd98     OracleLinkSupport.obj
 0002:00004dc0       ??_C@_04A@NTFS?$AA@        00000001400acdc0     OracleLinkSupport.obj
 0002:00004dc8       ??_C@_0BD@A@oobj_disk?$CFd_part?$CFd?$AA@ 00000001400acdc8     OracleLinkSupport.obj
 0002:00004ddc       ??_C@_0BP@A@?2Device?2Harddisk?$CFd?2Partition?$CFd?$AA@ 00000001400acddc     OracleLinkSupport.obj
 0002:00004dfc       ??_C@_07A@?2?2?4?2?$CFs?2?$AA@ 00000001400acdfc     OracleLinkSupport.obj
 0002:00004e04       ??_C@_0CM@A@Failed?5to?5determine?5filesystem?5types?5for?5?$CFs?$AA@ 00000001400ace04     OracleLinkSupport.obj
 0002:00004e30       ??_C@_0DC@A@Failed?5to?5read?5volume?5information?5for?5?$CFs?0?5err?5?$CFd?6?$AA@ 00000001400ace30     OracleLinkSupport.obj
 0002:00004e64       ??_C@_0BK@A@?$CFs?5contains?5?$CFs?5fileSystem?$AA@ 00000001400ace64     OracleLinkSupport.obj
 0002:00004e80       ??_C@_07A@ORALINK?$AA@     00000001400ace80     OracleLinkSupport.obj
 0002:00004e88       ??_C@_0BO@A@Error?5deleting?5symbolic?5link?6?$AA@ 00000001400ace88     OracleLinkSupport.obj
 0002:00004ea8       ??_C@_0BO@A@Error?5creating?5symbolic?5link?6?$AA@ 00000001400acea8     OracleLinkSupport.obj
 0002:00004ec8       ??_C@_0BL@A@Created?5Link?3?$CFs?5Device?3?$CFs?6?$AA@ 00000001400acec8     OracleLinkSupport.obj
 0002:00004ee4       ??_C@_0BJ@A@Error?5Marking?5partition?6?$AA@ 00000001400acee4     OracleLinkSupport.obj
 0002:00004f00       ??_C@_0BO@A@Error?5Creating?5Symbolic?5link?6?$AA@ 00000001400acf00     OracleLinkSupport.obj
 0002:00004f20       ??_C@_0CL@A@Error?5in?5Write?5of?5first?5sector?5error?5?$CI?$CFd?$CJ?6?$AA@ 00000001400acf20     OracleLinkSupport.obj
 0002:00004f4c       ??_C@_0DE@A@Error?5in?5write?5of?5first?5sector?5size?$CI?$CFd?$CJ?0?5write?$CI?$CFd?$CJ?6?$AA@ 00000001400acf4c     OracleLinkSupport.obj
 0002:00004f80       ??_C@_02A@?1d?$AA@         00000001400acf80     OracleLinkSupport.obj
 0002:00004f84       ??_C@_0N@A@?$CFs?5is?5on?3?$CFs?6?$AA@ 00000001400acf84     OracleLinkSupport.obj
 0002:00004f94       ??_C@_06A@OraCFS?$AA@      00000001400acf94     OracleLinkSupport.obj
 0002:00004f9c       ??_C@_0BM@A@Deleted?5Link?3?5?$CFs?5Device?3?$CFs?6?$AA@ 00000001400acf9c     OracleLinkSupport.obj
 0002:00004fb8       ??_C@_0BM@A@Link?3?$CFs?5Device?3?$CFs?5Error?3?$CFd?6?$AA@ 00000001400acfb8     OracleLinkSupport.obj
 0002:00004fd4       ??_C@_0CL@A@Unable?5to?5allocate?5memory?5for?5DeviceNames?6?$AA@ 00000001400acfd4     OracleLinkSupport.obj
 0002:00005000       ??_C@_0CO@A@Unable?5to?5re?9allocate?5memory?5for?5DeviceNames?6?$AA@ 00000001400ad000     OracleLinkSupport.obj
 0002:00005030       ??_C@_0CH@A@Error?5?$CFd?5in?5call?5to?5QueryDosDeviceAll?6?$AA@ 00000001400ad030     OracleLinkSupport.obj
 0002:00005058       ??_C@_0CM@A@Unable?5to?5allocate?5memory?5for?5MappingNames?6?$AA@ 00000001400ad058     OracleLinkSupport.obj
 0002:00005084       ??_C@_0DE@A@Query?5Dos?5Device?5Name?5on?3?5?5?5?$CFs?5?5?5?3return?5not?5found?6?$AA@ 00000001400ad084     OracleLinkSupport.obj
 0002:000050b8       ??_C@_0DD@A@Query?5Dos?5Device?5Name?5on?3?5?5?5?$CFs?5?5?5?3return?5error?5?$CFd?6?$AA@ 00000001400ad0b8     OracleLinkSupport.obj
 0002:000050ec       ??_C@_0BB@A@?2Device?2Harddisk?$AA@ 00000001400ad0ec     OracleLinkSupport.obj
 0002:00005100       ??_C@_0DN@A@SYSTEM?2CurrentControlSet?2Control?2Session?5Manager?2DOS?5Devices?$AA@ 00000001400ad100     OracleLinkSupport.obj
 0002:00005140       ??_C@_0BK@A@The?5number?5of?5bytes?5?$DN?5?$CFd?6?$AA@ 00000001400ad140     OracleLinkSupport.obj
 0002:0000515c       ??_C@_0CJ@A@?9?9?9?9?9?9?9?9?9Extended?5Partition?9?9?9?9?9?9?9?9?9?9?9?9?6?$AA@ 00000001400ad15c     OracleLinkSupport.obj
 0002:00005188       ??_C@_0BP@A@Partition?5Starting?5offset?3?5?$CFd?6?$AA@ 00000001400ad188     OracleLinkSupport.obj
 0002:000051a8       ??_C@_0BP@A@Partition?5Hidden?5sectors?5?3?5?$CFd?6?$AA@ 00000001400ad1a8     OracleLinkSupport.obj
 0002:000051c8       ??_C@_0CG@A@Partition?5Length?5of?5partition?5is?5?5?$CFd?6?$AA@ 00000001400ad1c8     OracleLinkSupport.obj
 0002:000051f0       ??_C@_0CM@A@?9?9?9?$DO?5Partition?5number?5?$CFd?5is?5NOT?5recognized?6?$AA@ 00000001400ad1f0     OracleLinkSupport.obj
 0002:0000521c       ??_C@_0CI@A@?9?9?9?$DO?5Partition?5number?5?$CFd?5is?5recognized?6?$AA@ 00000001400ad21c     OracleLinkSupport.obj
 0002:00005244       ??_C@_0BG@A@Partition?5number?3?5?$CFd?6?$AA@ 00000001400ad244     OracleLinkSupport.obj
 0002:0000525c       ??_C@_0BG@A@Partition?5type?3?5?5?5?$CFd?6?$AA@ 00000001400ad25c     OracleLinkSupport.obj
 0002:00005274       ??_C@_0BH@A@Set?5drive?5return?5true?6?$AA@ 00000001400ad274     OracleLinkSupport.obj
 0002:0000528c       ??_C@_0BN@A@Set?5drive?5return?5error?5?$DN?5?$CFd?6?$AA@ 00000001400ad28c     OracleLinkSupport.obj
 0002:000052ac       ??_C@_0CG@A@Get?5drive?5Layout?5returned?5error?5?$DN?5?$CFd?6?$AA@ 00000001400ad2ac     OracleLinkSupport.obj
 0002:000052d4       ??_C@_0DB@A@Failure?5in?5allocation?5of?5buffer?5for?5WideCharStr?6?$AA@ 00000001400ad2d4     OracleLinkSupport.obj
 0002:00005308       ??_C@_0CJ@A@Failure?5in?5WideCharToMultiByte?5error?5?$CFd?6?$AA@ 00000001400ad308     OracleLinkSupport.obj
 0002:00005334       ??_C@_09A@?6?$CFs?5?$CFs?5?$CFs?$AA@ 00000001400ad334     LogSupport.obj
 0002:00005340       ??_C@_07A@?$CI?$CFd?$CJ?5?3?6?$AA@ 00000001400ad340     LogSupport.obj
 0002:00005348       ??_C@_08A@?$CFs?5?$CFs?5?3?5?$AA@ 00000001400ad348     LogSupport.obj
 0002:00005354       ??_C@_07A@?$CI?$CFd?$CJ?5?3?5?$AA@ 00000001400ad354     LogSupport.obj
 0002:0000535c       ??_C@_01A@?6?$AA@          00000001400ad35c     LogSupport.obj
 0002:00005360       ??_C@_0P@A@?6?$CFs?5WARNING?5?3?5?$AA@ 00000001400ad360     LogSupport.obj
 0002:00005370       ??_C@_0P@A@?6?$CFs?5PANIC?5?5?5?3?5?$AA@ 00000001400ad370     LogSupport.obj
 0002:00005380       ??_C@_0P@A@?6?$CFs?5ERROR?5?5?5?3?5?$AA@ 00000001400ad380     LogSupport.obj
 0002:00005390       ??_C@_0BJ@A@Couldn?8t?5open?5logfile?5?$CFs?$AA@ 00000001400ad390     LogSupport.obj
 0002:000053ac       ??_C@_0BJ@A@error?5getting?5temp?5path?6?$AA@ 00000001400ad3ac     LogSupport.obj
 0002:000053c8       ??_C@_04A@?4log?$AA@       00000001400ad3c8     LogSupport.obj
 0002:000053d0       ??_C@_03A@?$CFs?6?$AA@     00000001400ad3d0     DiskKey.obj
 0002:000053d4       ??_C@_0BG@A@Writing?5the?5disk?5key?6?$AA@ 00000001400ad3d4     DiskKey.obj
 0002:000053ec       ??_C@_0BK@A@No?5Write?5of?5the?5disk?5key?6?$AA@ 00000001400ad3ec     DiskKey.obj
 0002:000054a0       ??_C@_0N@A@arg_info_bad?$AA@ 00000001400ad4a0     sclsi.obj
 0002:000054b0       ??_C@_0BP@A@must?5provide?5nodeinfo?5argument?$AA@ 00000001400ad4b0     sclsi.obj
 0002:000054d0       ??_C@_06A@malloc?$AA@      00000001400ad4d0     sclsi.obj
 0002:000054d8       ??_C@_0M@A@sclsigift?41?$AA@ 00000001400ad4d8     sclsi.obj
 0002:000054e4       ??_C@_0DE@A@malloc?5failed?5to?5allocate?5?$CFd?5bytes?5for?5MIB_IFTABLE?4?$AA@ 00000001400ad4e4     sclsi.obj
 0002:00005518       ??_C@_0L@A@GetIfTable?$AA@ 00000001400ad518     sclsi.obj
 0002:00005524       ??_C@_0M@A@sclsigift?42?$AA@ 00000001400ad524     sclsi.obj
 0002:00005530       ??_C@_0DA@A@GetIfTable?5OS?5error?5message?5?$FL?$CFs?$FN?5for?5error?5?$FL?$CFd?$FN?$AA@ 00000001400ad530     sclsi.obj
 0002:00005560       ??_C@_0M@A@sclsigift?43?$AA@ 00000001400ad560     sclsi.obj
 0002:0000556c       ??_C@_0CK@A@?$CF02?42X?3?$CF02?42X?3?$CF02?42X?3?$CF02?42X?3?$CF02?42X?3?$CF02?42X?$AA@ 00000001400ad56c     sclsi.obj
 0002:00005598       ??_C@_0L@A@mprapi?4dll?$AA@ 00000001400ad598     sclsi.obj
 0002:000055a4       ??_C@_0BL@A@LoadLibrary?5mprapi?5failed?4?$AA@ 00000001400ad5a4     sclsi.obj
 0002:000055c0       ??_C@_0M@A@QryIPv4Ex01?$AA@ 00000001400ad5c0     sclsi.obj
 0002:000055cc       ??_C@_0BI@A@ret?4?5val?3?5?$CFd?0?5errno?3?5?$CFd?$AA@ 00000001400ad5cc     sclsi.obj
 0002:000055e4       ??_C@_0N@A@iphlpapi?4dll?$AA@ 00000001400ad5e4     sclsi.obj
 0002:000055f4       ??_C@_0BN@A@LoadLibrary?5iphlpapi?5failed?4?$AA@ 00000001400ad5f4     sclsi.obj
 0002:00005614       ??_C@_0M@A@QryIPv4Ex02?$AA@ 00000001400ad614     sclsi.obj
 0002:00005620       ??_C@_0BA@A@GetAdaptersInfo?$AA@ 00000001400ad620     sclsi.obj
 0002:00005630       ??_C@_0BF@A@GetAdaptersAddresses?$AA@ 00000001400ad630     sclsi.obj
 0002:00005648       ??_C@_0BJ@A@MprConfigGetFriendlyName?$AA@ 00000001400ad648     sclsi.obj
 0002:00005664       ??_C@_0BH@A@MprConfigServerConnect?$AA@ 00000001400ad664     sclsi.obj
 0002:0000567c       ??_C@_0BK@A@MprConfigServerDisconnect?$AA@ 00000001400ad67c     sclsi.obj
 0002:00005698       ??_C@_0BP@A@GetProcAddress?5call?$CIs?$CJ?5failed?4?$AA@ 00000001400ad698     sclsi.obj
 0002:000056b8       ??_C@_0M@A@QryIPv4Ex03?$AA@ 00000001400ad6b8     sclsi.obj
 0002:000056c4       ??_C@_0P@A@calloc?5failed?4?$AA@ 00000001400ad6c4     sclsi.obj
 0002:000056d4       ??_C@_0M@A@QryIPv4Ex05?$AA@ 00000001400ad6d4     sclsi.obj
 0002:000056e0       ??_C@_0M@A@QryIPv4Ex07?$AA@ 00000001400ad6e0     sclsi.obj
 0002:000056ec       ??_C@_0BN@A@GetAdaptersAddresses?5failed?4?$AA@ 00000001400ad6ec     sclsi.obj
 0002:0000570c       ??_C@_0M@A@QryIPv4Ex08?$AA@ 00000001400ad70c     sclsi.obj
 0002:00005718       ??_C@_0BH@A@sclsiidex?5alloc?5failed?$AA@ 00000001400ad718     sclsi.obj
 0002:00005730       ??_C@_0CC@A@failed?5to?5connect?5to?5local?5server?$AA@ 00000001400ad730     sclsi.obj
 0002:00005754       ??_C@_15A@?$CF?$AAS?$AA?$AA?$AA@ 00000001400ad754     sclsi.obj
 0002:0000575c       ??_C@_0M@A@QryIPv4Ex12?$AA@ 00000001400ad75c     sclsi.obj
 0002:00005768       ??_C@_0CB@A@couldnt?5determine?5name?0?5SID?5?$DN?5?$CFs?$AA@ 00000001400ad768     sclsi.obj
 0002:0000578c       ??_C@_02A@?$CFS?$AA@       00000001400ad78c     sclsi.obj
 0002:00005790       ??_C@_07A@UNKNOWN?$AA@     00000001400ad790     sclsi.obj
 0002:00005798       ??_C@_0M@A@netstat?5?9rn?$AA@ 00000001400ad798     sclsi.obj
 0002:000057a4       ??_C@_0BE@A@Network?5Destination?$AA@ 00000001400ad7a4     sclsi.obj
 0002:000057b8       ??_C@_08A@?$CFs?5?$CFs?5?$CFs?$AA@ 00000001400ad7b8     sclsi.obj
 0002:000057c4       ??_C@_0BA@A@Default?5Gateway?$AA@ 00000001400ad7c4     sclsi.obj
 0002:000057d4       ??_C@_0P@A@?$CFs?5?$CFs?5?$CFs?5?$CFs?5?$CFd?$AA@ 00000001400ad7d4     sclsi.obj
 0002:000057e4       ??_C@_07A@0?40?40?40?$AA@  00000001400ad7e4     sclsi.obj
 0002:000057ec       ??_C@_05A@?$CFd?4?$CFd?$AA@ 00000001400ad7ec     sclsi.obj
 0002:000057f4       ??_C@_0BD@A@decode?5information?$AA@ 00000001400ad7f4     sclsi.obj
 0002:00005808       ??_C@_0BC@A@unrecognized_host?$AA@ 00000001400ad808     sclsi.obj
 0002:0000581c       ??_C@_0BD@A@error?5getting?5addr?$AA@ 00000001400ad81c     sclsi.obj
 0002:00005830       ??_C@_0BP@A@gethostbyname?5failed?5?$CFd?5for?5?$CFs?$AA@ 00000001400ad830     sclsi.obj
 0002:00005850       ??_C@_0O@A@convert_error?$AA@ 00000001400ad850     sclsi.obj
 0002:00005860       ??_C@_0BI@A@error?5converting?5string?$AA@ 00000001400ad860     sclsi.obj
 0002:00005878       ??_C@_0O@A@buf_too_small?$AA@ 00000001400ad878     sclsi.obj
 0002:00005888       ??_C@_0BH@A@output?5buffer?5to?5small?$AA@ 00000001400ad888     sclsi.obj
 0002:000058a0       ??_C@_0M@A@arg_len_bad?$AA@ 00000001400ad8a0     sclsi.obj
 0002:000058ac       ??_C@_0BK@A@must?5provide?5len?5argument?$AA@ 00000001400ad8ac     sclsi.obj
 0002:000058c8       ??_C@_0BB@A@node?5information?$AA@ 00000001400ad8c8     sclsi.obj
 0002:000058dc       ??_C@_0BL@A@must?5provide?5info?5argument?$AA@ 00000001400ad8dc     sclsi.obj
 0002:000058f8       ??_C@_0N@A@invalid_type?$AA@ 00000001400ad8f8     sclsi.obj
 0002:00005908       ??_C@_0BH@A@unrecognized?5info?5type?$AA@ 00000001400ad908     sclsi.obj
 0002:00005920       ??_C@_0O@A@type_not_impl?$AA@ 00000001400ad920     sclsi.obj
 0002:00005930       ??_C@_0BJ@A@type?5not?5yet?5implemented?$AA@ 00000001400ad930     sclsi.obj
 0002:0000594c       ??_C@_0BC@A@unrecognized?5type?$AA@ 00000001400ad94c     sclsi.obj
 0002:00005960       ??_C@_09A@type?5?$DN?5?$CFu?$AA@ 00000001400ad960     sclsi.obj
 0002:0000596c       ??_C@_04A@FEC0?$AA@        00000001400ad96c     sclsi.obj
 0002:00005974       ??_C@_0N@A@routequeryv6?$AA@ 00000001400ad974     sclsi.obj
 0002:00005984       ??_C@_08A@not_impl?$AA@    00000001400ad984     sclsi.obj
 0002:00005990       ??_C@_0BK@A@not?5presently?5implemented?$AA@ 00000001400ad990     sclsi.obj
 0002:000059ac       ??_C@_0L@A@routequery?$AA@ 00000001400ad9ac     sclsi.obj
 0002:000059b8       ??_C@_08A@routedel?$AA@    00000001400ad9b8     sclsi.obj
 0002:000059c4       ??_C@_08A@routeadd?$AA@    00000001400ad9c4     sclsi.obj
 0002:000059d0       ??_C@_0L@A@routedelv6?$AA@ 00000001400ad9d0     sclsi.obj
 0002:000059dc       ??_C@_0L@A@routeaddv6?$AA@ 00000001400ad9dc     sclsi.obj
 0002:000059e8       ??_C@_0N@A@LoadLibrary?4?$AA@ 00000001400ad9e8     sclsi.obj
 0002:000059f8       ??_C@_0L@A@sclsiGID?01?$AA@ 00000001400ad9f8     sclsi.obj
 0002:00005a04       ??_C@_0BN@A@library?3?5iphlpapi?0?5errno?3?5?$CFd?$AA@ 00000001400ada04     sclsi.obj
 0002:00005a24       ??_C@_0L@A@sclsiGID?02?$AA@ 00000001400ada24     sclsi.obj
 0002:00005a30       ??_C@_0BG@A@retval?3?5?$CFd?0?5errno?3?5?$CFd?$AA@ 00000001400ada30     sclsi.obj
 0002:00005a48       ??_C@_0BD@A@WSAAddressToString?$AA@ 00000001400ada48     sclsi.obj
 0002:00005a5c       ??_C@_0L@A@sclsiGID?03?$AA@ 00000001400ada5c     sclsi.obj
 0002:00005a68       ??_C@_09A@Error?5?$CFd?5?$AA@ 00000001400ada68     sclsi.obj
 0002:00005a74       ??_C@_0BD@A@WSAStringToAddress?$AA@ 00000001400ada74     sclsi.obj
 0002:00005a88       ??_C@_0N@A@sclsiadaddr1?$AA@ 00000001400ada88     sclsi.obj
 0002:00005a98       ??_C@_0BM@A@Error?5in?5WSAStringToAddress?$AA@ 00000001400ada98     sclsi.obj
 0002:00005ab4       ??_C@_09A@inet_addr?$AA@   00000001400adab4     sclsi.obj
 0002:00005ac0       ??_C@_0N@A@sclsiadaddr4?$AA@ 00000001400adac0     sclsi.obj
 0002:00005ad0       ??_C@_0BI@A@ConvertIpv4MaskToLength?$AA@ 00000001400adad0     sclsi.obj
 0002:00005ae8       ??_C@_0N@A@sclsiadaddr5?$AA@ 00000001400adae8     sclsi.obj
 0002:00005af8       ??_C@_0BM@A@CreateUnicastIpAddressEntry?$AA@ 00000001400adaf8     sclsi.obj
 0002:00005b14       ??_C@_0N@A@sclsiadaddr3?$AA@ 00000001400adb14     sclsi.obj
 0002:00005b24       ??_C@_0BB@A@error?5code?5is?5?$CFd?$AA@ 00000001400adb24     sclsi.obj
 0002:00005b38       ??_C@_0N@A@sclsiadaddr2?$AA@ 00000001400adb38     sclsi.obj
 0002:00005b48       ??_C@_0N@A@AddIPAddress?$AA@ 00000001400adb48     sclsi.obj
 0002:00005b58       ??_C@_0BC@A@sclsiaddaddrsv6?01?$AA@ 00000001400adb58     sclsi.obj
 0002:00005b6c       ??_C@_0BC@A@sclsiaddaddrsv6?03?$AA@ 00000001400adb6c     sclsi.obj
 0002:00005b80       ??_C@_0L@A@statipv6?01?$AA@ 00000001400adb80     sclsi.obj
 0002:00005b8c       ??_C@_0BN@A@return?5value?3?5?$CFd?0?5err?5no?3?5?$CFd?$AA@ 00000001400adb8c     sclsi.obj
 0002:00005bac       ??_C@_0L@A@statipv6?02?$AA@ 00000001400adbac     sclsi.obj
 0002:00005bb8       ??_C@_0BL@A@return?5value?3?5?$CFd?0?5erno?3?5?$CFd?$AA@ 00000001400adbb8     sclsi.obj
 0002:00005bd4       ??_C@_0P@A@GetProcAddress?$AA@ 00000001400adbd4     sclsi.obj
 0002:00005be4       ??_C@_0L@A@statipv6?03?$AA@ 00000001400adbe4     sclsi.obj
 0002:00005bf0       ??_C@_0L@A@statipv6?05?$AA@ 00000001400adbf0     sclsi.obj
 0002:00005bfc       ??_C@_0L@A@statipv6?06?$AA@ 00000001400adbfc     sclsi.obj
 0002:00005c08       ??_C@_0BM@A@Error?5in?5WSAAddressToString?$AA@ 00000001400adc08     sclsi.obj
 0002:00005c24       ??_C@_0L@A@statipv6?07?$AA@ 00000001400adc24     sclsi.obj
 0002:00005c30       ??_C@_0CA@A@pfnGetAdaptersAddresses?5failed?4?$AA@ 00000001400adc30     sclsi.obj
 0002:00005c50       ??_C@_0L@A@statipv6?08?$AA@ 00000001400adc50     sclsi.obj
 0002:00005c5c       ??_C@_0L@A@statipv6?09?$AA@ 00000001400adc5c     sclsi.obj
 0002:00005c68       ??_C@_0O@A@error?5code?$DN?$CFd?$AA@ 00000001400adc68     sclsi.obj
 0002:00005c78       ??_C@_0BA@A@sclsideladdrs?01?$AA@ 00000001400adc78     sclsi.obj
 0002:00005c88       ??_C@_0BJ@A@GetUnicastIpAddressEntry?$AA@ 00000001400adc88     sclsi.obj
 0002:00005ca4       ??_C@_0BB@A@sclsideladdrsv?02?$AA@ 00000001400adca4     sclsi.obj
 0002:00005cb8       ??_C@_0O@A@error?5code?5?$CFd?$AA@ 00000001400adcb8     sclsi.obj
 0002:00005cc8       ??_C@_0BM@A@DeleteUnicastIpAddressEntry?$AA@ 00000001400adcc8     sclsi.obj
 0002:00005ce4       ??_C@_0BB@A@sclsideladdrsv?03?$AA@ 00000001400adce4     sclsi.obj
 0002:00005cf8       ??_C@_0BA@A@DeleteIPAddress?$AA@ 00000001400adcf8     sclsi.obj
 0002:00005d08       ??_C@_07A@sStopIp?$AA@     00000001400add08     sclsi.obj
 0002:00005d10       ??_C@_0BC@A@sclsideladdrsv6?01?$AA@ 00000001400add10     sclsi.obj
 0002:00005d24       ??_C@_0BC@A@sclsideladdrsv6?02?$AA@ 00000001400add24     sclsi.obj
 0002:00005d38       ??_C@_0BC@A@sclsideladdrsv6?03?$AA@ 00000001400add38     sclsi.obj
 0002:00005d4c       ??_C@_0M@A@QryIPv6Ex01?$AA@ 00000001400add4c     sclsi.obj
 0002:00005d58       ??_C@_0M@A@QryIPv6Ex02?$AA@ 00000001400add58     sclsi.obj
 0002:00005d64       ??_C@_0M@A@QryIPv6Ex03?$AA@ 00000001400add64     sclsi.obj
 0002:00005d70       ??_C@_0M@A@QryIPv6Ex04?$AA@ 00000001400add70     sclsi.obj
 0002:00005d7c       ??_C@_0M@A@QryIPv6Ex05?$AA@ 00000001400add7c     sclsi.obj
 0002:00005d88       ??_C@_05A@ffff?3?$AA@      00000001400add88     sclsi.obj
 0002:00005d90       ??_C@_01A@?3?$AA@          00000001400add90     sclsi.obj
 0002:00005d94       ??_C@_04A@fe80?$AA@        00000001400add94     sclsi.obj
 0002:00005d9c       ??_C@_06A@isatap?$AA@      00000001400add9c     sclsi.obj
 0002:00005da4       ??_C@_06A@Teredo?$AA@      00000001400adda4     sclsi.obj
 0002:00005dac       ??_C@_08A@Loopback?$AA@    00000001400addac     sclsi.obj
 0002:00005db8       ??_C@_04A@fec0?$AA@        00000001400addb8     sclsi.obj
 0002:00005dc0       ??_C@_04A@FE80?$AA@        00000001400addc0     sclsi.obj
 0002:00006060       ??_C@_03A@?4?4?4?$AA@      00000001400ae060     oraexectask:prvfex.obj
 0002:00006064       ??_C@_04A@?4err?$AA@       00000001400ae064     oraexectask:prvfex.obj
 0002:0000606c       ??_C@_0P@A@EXECTASK_TRACE?$AA@ 00000001400ae06c     oraexectask:prvfex.obj
 0002:0000607c       ??_C@_06A@?9debug?$AA@     00000001400ae07c     oraexectask:prvfex.obj
 0002:00006084       ??_C@_0BM@A@Invalid?5Syntax?5for?5?9chkIpmi?$AA@ 00000001400ae084     oraexectask:prvfex.obj
 0002:000060a0       ??_C@_0CI@A@Error?5while?5checking?5IPMI?5Configuration?$AA@ 00000001400ae0a0     oraexectask:prvfex.obj
 0002:000060c8       ??_C@_0BO@A@Invalid?5Syntax?5for?5?9multicast?$AA@ 00000001400ae0c8     oraexectask:prvfex.obj
 0002:000060e8       ??_C@_0BO@A@Invalid?5Syntax?5for?5?9broadcast?$AA@ 00000001400ae0e8     oraexectask:prvfex.obj
 0002:00006108       ??_C@_0BO@A@Invalid?5Syntax?5for?5?9getstinfo?$AA@ 00000001400ae108     oraexectask:prvfex.obj
 0002:00006128       ??_C@_0CC@A@Error?5while?5getting?5Storage?5Info?4?$AA@ 00000001400ae128     oraexectask:prvfex.obj
 0002:0000614c       ??_C@_0BD@A@?$DMDATE?0?$CFs?$DO?$DMTIME?0?$CFs?$DO?$AA@ 00000001400ae14c     oraexectask:prvfex.obj
 0002:00006160       ??_C@_0M@A@Mar?5?53?52017?$AA@ 00000001400ae160     oraexectask:prvfex.obj
 0002:0000616c       ??_C@_08A@15?354?304?$AA@  00000001400ae16c     oraexectask:prvfex.obj
 0002:00006178       ??_C@_05A@?$CFs?4?$CFs?$AA@ 00000001400ae178     oraexectask:prvfex.obj
 0002:00006180       ??_C@_0L@A@12?42?40?41?40?$AA@ 00000001400ae180     oraexectask:prvfex.obj
 0002:0000618c       ??_C@_0M@A@03_03_17_nt?$AA@ 00000001400ae18c     oraexectask:prvfex.obj
 0002:00006198       ??_C@_0CA@A@Error?5while?5getting?5login?5shell?$AA@ 00000001400ae198     oraexectask:prvfex.obj
 0002:000061b8       ??_C@_0DB@A@Error?5while?5getting?5details?5of?5the?5given?5user?5ID?$AA@ 00000001400ae1b8     oraexectask:prvfex.obj
 0002:000061ec       ??_C@_03A@GID?$AA@         00000001400ae1ec     oraexectask:prvfex.obj
 0002:000061f0       ??_C@_03A@UID?$AA@         00000001400ae1f0     oraexectask:prvfex.obj
 0002:000061f4       ??_C@_0DG@A@Error?5while?5getting?5available?5unique?5user?5OR?5group?5ID?$AA@ 00000001400ae1f4     oraexectask:prvfex.obj
 0002:0000622c       ??_C@_0CI@A@Error?5while?5checking?5process?5liveliness?$AA@ 00000001400ae22c     oraexectask:prvfex.obj
 0002:00006254       ??_C@_0BG@A@?5failed?5getting?5cname?$AA@ 00000001400ae254     oraexectask:prvfex.obj
 0002:0000626c       ??_C@_0BM@A@Error?5while?5checking?5memory?$AA@ 00000001400ae26c     oraexectask:prvfex.obj
 0002:00006288       ??_C@_0CN@A@Error?5while?5checking?5available?5?$CIfree?$CJ?5memory?$AA@ 00000001400ae288     oraexectask:prvfex.obj
 0002:000062b8       ??_C@_0BP@A@Error?5while?5checking?5run?5level?$AA@ 00000001400ae2b8     oraexectask:prvfex.obj
 0002:000062d8       ??_C@_0CA@A@Error?5while?5checking?5OS?5version?$AA@ 00000001400ae2d8     oraexectask:prvfex.obj
 0002:000062f8       ??_C@_0BP@A@Error?5while?5getting?5OS?5release?$AA@ 00000001400ae2f8     oraexectask:prvfex.obj
 0002:00006318       ??_C@_0BO@A@Error?5while?5checking?5OS?5patch?$AA@ 00000001400ae318     oraexectask:prvfex.obj
 0002:00006338       ??_C@_0CA@A@Error?5while?5checking?5swap?5space?$AA@ 00000001400ae338     oraexectask:prvfex.obj
 0002:00006358       ??_C@_0CC@A@Error?5while?5checking?5architecture?$AA@ 00000001400ae358     oraexectask:prvfex.obj
 0002:0000637c       ??_C@_0CN@A@Error?5while?5checking?5user?5file?5creation?5mask?$AA@ 00000001400ae37c     oraexectask:prvfex.obj
 0002:000063ac       ??_C@_0CA@A@Error?5while?5checking?5user?5group?$AA@ 00000001400ae3ac     oraexectask:prvfex.obj
 0002:000063cc       ??_C@_0BK@A@Error?5while?5checking?5file?$AA@ 00000001400ae3cc     oraexectask:prvfex.obj
 0002:000063e8       ??_C@_0BP@A@Error?5while?5checking?5file?5link?$AA@ 00000001400ae3e8     oraexectask:prvfex.obj
 0002:00006408       ??_C@_02A@?9w?$AA@         00000001400ae408     oraexectask:prvfex.obj
 0002:0000640c       ??_C@_0CE@A@Error?5while?5checking?5file?5in?5SYSTEM?$AA@ 00000001400ae40c     oraexectask:prvfex.obj
 0002:00006430       ??_C@_0CK@A@Error?5retrieving?5device?5ID?5of?5device?5file?$AA@ 00000001400ae430     oraexectask:prvfex.obj
 0002:0000645c       ??_C@_0CC@A@Error?5while?5checking?5file?5version?$AA@ 00000001400ae45c     oraexectask:prvfex.obj
 0002:00006480       ??_C@_0BN@A@Error?5while?5checking?5package?$AA@ 00000001400ae480     oraexectask:prvfex.obj
 0002:000064a0       ??_C@_0CE@A@Error?5while?5retrieving?5all?5packages?$AA@ 00000001400ae4a0     oraexectask:prvfex.obj
 0002:000064c4       ??_C@_0BK@A@Error?5while?5checking?5user?$AA@ 00000001400ae4c4     oraexectask:prvfex.obj
 0002:000064e0       ??_C@_0BL@A@Error?5while?5checking?5group?$AA@ 00000001400ae4e0     oraexectask:prvfex.obj
 0002:000064fc       ??_C@_0CA@A@Error?5while?5checking?5hosts?5file?$AA@ 00000001400ae4fc     oraexectask:prvfex.obj
 0002:0000651c       ??_C@_0CJ@A@Error?5while?5retrieving?5kernel?5parameter?4?$AA@ 00000001400ae51c     oraexectask:prvfex.obj
 0002:00006548       ??_C@_0CJ@A@Error?5while?5retrieving?5system?5parameter?4?$AA@ 00000001400ae548     oraexectask:prvfex.obj
 0002:00006574       ??_C@_0CO@A@Error?5while?5retrieving?5environment?5variables?4?$AA@ 00000001400ae574     oraexectask:prvfex.obj
 0002:000065a4       ??_C@_0BN@A@Invalid?5option?4?5Syntax?5error?$AA@ 00000001400ae5a4     oraexectask:prvfex.obj
 0002:000065c4       ??_C@_0CC@A@Error?5while?5retrieving?5time?5zone?4?$AA@ 00000001400ae5c4     oraexectask:prvfex.obj
 0002:000065e8       ??_C@_07A@?$CFs?$CFd?$CFs?6?$AA@ 00000001400ae5e8     oraexectask:prvfex.obj
 0002:000065f0       ??_C@_08A@?$CFs?$CFld?$CFs?6?$AA@ 00000001400ae5f0     oraexectask:prvfex.obj
 0002:000065fc       ??_C@_05A@?$CFs?$CFd?6?$AA@ 00000001400ae5fc     oraexectask:prvfex.obj
 0002:00006604       ??_C@_06A@?$CFs?$CFld?6?$AA@ 00000001400ae604     oraexectask:prvfex.obj
 0002:0000660c       ??_C@_0BH@A@Time?5zone?5not?5defined?6?$AA@ 00000001400ae60c     oraexectask:prvfex.obj
 0002:00006624       ??_C@_0CA@A@Error?5while?5retrieving?5hostname?$AA@ 00000001400ae624     oraexectask:prvfex.obj
 0002:00006644       ??_C@_0CH@A@Failed?5to?5allocate?5?$CFd?5bytes?5of?5memory?6?$AA@ 00000001400ae644     oraexectask:prvfex.obj
 0002:0000666c       ??_C@_0CE@A@Error?5while?5running?5generic?5command?$AA@ 00000001400ae66c     oraexectask:prvfex.obj
 0002:00006690       ??_C@_0CF@A@ATTENTION?3?5this?5text?5went?5to?5STDERR?$CB?$AA@ 00000001400ae690     oraexectask:prvfex.obj
 0002:000066c0       ??_C@_0BDK@A@INFORMATIONAL?3?5This?5is?5a?5very?5long?5message?5to?5test?5the?5handling?5of?5a?5very?5long?5message?5that?5may?5be?5put?5out?5onto?5STDERR?4?5The?5intent?5is?5to?5insure?5that?5there?5are?5no?5buffer?5overun?5issues?5or?5problems?5returning?5this?5data?5back?5to?5CVU?5if?5there?5are?5multiple?5messages?5output?5to?5STDERR?5and?5one?5of?5them?5is?5very?5long?5in?5length?$AA@ 00000001400ae6c0     oraexectask:prvfex.obj
 0002:00006800       ??_C@_0BL@A@Error?5while?5running?5runexe?$AA@ 00000001400ae800     oraexectask:prvfex.obj
 0002:0000681c       ??_C@_0CJ@A@Error?5while?5running?5runexe?5with?5no?5error?$AA@ 00000001400ae81c     oraexectask:prvfex.obj
 0002:00006848       ??_C@_0CN@A@executable?5does?5not?5exists?5at?5path?5specified?$AA@ 00000001400ae848     oraexectask:prvfex.obj
 0002:00006880       ??_C@_0ED@A@failed?5to?5verify?5the?5existence?5of?5the?5executable?5at?5path?5specified?$AA@ 00000001400ae880     oraexectask:prvfex.obj
 0002:000068e0       ??_C@_0CI@A@Error?5while?5performing?5fixup?5operations?$AA@ 00000001400ae8e0     oraexectask:prvfex.obj
 0002:00006908       ??_C@_0DN@A@Error?5while?5performing?5ssh?5user?5equivalence?5setup?5operations?$AA@ 00000001400ae908     oraexectask:prvfex.obj
 0002:00006948       ??_C@_0CK@A@Error?5while?5getting?5file?5information?5for?5?$AA@ 00000001400ae948     oraexectask:prvfex.obj
 0002:00006974       ??_C@_0BJ@A@Error?5running?5TCP?5server?$AA@ 00000001400ae974     oraexectask:prvfex.obj
 0002:00006990       ??_C@_0CK@A@Error?5running?5TCP?5server?5on?5specific?5port?$AA@ 00000001400ae990     oraexectask:prvfex.obj
 0002:000069bc       ??_C@_0CB@A@Error?5checking?5TCP?5communication?$AA@ 00000001400ae9bc     oraexectask:prvfex.obj
 0002:000069e0       ??_C@_0CD@A@Invalid?5Syntax?5for?5?9chkTCPclientEx?$AA@ 00000001400ae9e0     oraexectask:prvfex.obj
 0002:00006a04       ??_C@_0CA@A@Invalid?5Syntax?5for?5?9chkICMPPing?$AA@ 00000001400aea04     oraexectask:prvfex.obj
 0002:00006a24       ??_C@_0CF@A@Error?5getting?5USM?5device?5permissions?$AA@ 00000001400aea24     oraexectask:prvfex.obj
 0002:00006a4c       ??_C@_0BP@A@Error?5getting?5Udev?5permissions?$AA@ 00000001400aea4c     oraexectask:prvfex.obj
 0002:00006a6c       ??_C@_0CE@A@Error?5while?5retrieving?5bug?5symbols?4?$AA@ 00000001400aea6c     oraexectask:prvfex.obj
 0002:00006a90       ??_C@_0CI@A@Error?5while?5retrieving?5resource?5limits?4?$AA@ 00000001400aea90     oraexectask:prvfex.obj
 0002:00006ab8       ??_C@_0BM@A@Error?5while?5killing?5process?$AA@ 00000001400aeab8     oraexectask:prvfex.obj
 0002:00006ad4       ??_C@_0BG@A@Error?5running?5fnmatch?$AA@ 00000001400aead4     oraexectask:prvfex.obj
 0002:00006aec       ??_C@_0BL@A@Error?5running?5checkservice?$AA@ 00000001400aeaec     oraexectask:prvfex.obj
 0002:00006b08       ??_C@_0BA@A@?9checkremotessh?$AA@ 00000001400aeb08     oraexectask:prvfex.obj
 0002:00006b18       ??_C@_0O@A@?9checkservice?$AA@ 00000001400aeb18     oraexectask:prvfex.obj
 0002:00006b28       ??_C@_08A@?9fnmatch?$AA@   00000001400aeb28     oraexectask:prvfex.obj
 0002:00006b34       ??_C@_09A@?9killproc?$AA@  00000001400aeb34     oraexectask:prvfex.obj
 0002:00006b40       ??_C@_0BE@A@?9getallrlimitsbypid?$AA@ 00000001400aeb40     oraexectask:prvfex.obj
 0002:00006b54       ??_C@_0P@A@?9getallrlimits?$AA@ 00000001400aeb54     oraexectask:prvfex.obj
 0002:00006b64       ??_C@_0L@A@?9getrlimit?$AA@ 00000001400aeb64     oraexectask:prvfex.obj
 0002:00006b70       ??_C@_0L@A@?9getbugsym?$AA@ 00000001400aeb70     oraexectask:prvfex.obj
 0002:00006b7c       ??_C@_0N@A@?9getudevinfo?$AA@ 00000001400aeb7c     oraexectask:prvfex.obj
 0002:00006b8c       ??_C@_0P@A@?9getusmdevinfo?$AA@ 00000001400aeb8c     oraexectask:prvfex.obj
 0002:00006b9c       ??_C@_0N@A@?9chkICMPPing?$AA@ 00000001400aeb9c     oraexectask:prvfex.obj
 0002:00006bac       ??_C@_0BA@A@?9chkTCPclientEx?$AA@ 00000001400aebac     oraexectask:prvfex.obj
 0002:00006bbc       ??_C@_0O@A@?9chkTCPclient?$AA@ 00000001400aebbc     oraexectask:prvfex.obj
 0002:00006bcc       ??_C@_0BA@A@?9runTCPserverEx?$AA@ 00000001400aebcc     oraexectask:prvfex.obj
 0002:00006bdc       ??_C@_0BB@A@?9runServerOnPort?$AA@ 00000001400aebdc     oraexectask:prvfex.obj
 0002:00006bf0       ??_C@_0O@A@?9runTCPserver?$AA@ 00000001400aebf0     oraexectask:prvfex.obj
 0002:00006c00       ??_C@_08A@?9recurse?$AA@   00000001400aec00     oraexectask:prvfex.obj
 0002:00006c0c       ??_C@_0N@A@?9getfileinfo?$AA@ 00000001400aec0c     oraexectask:prvfex.obj
 0002:00006c1c       ??_C@_0M@A@?9updateKeys?$AA@ 00000001400aec1c     oraexectask:prvfex.obj
 0002:00006c28       ??_C@_0O@A@?9generateKeys?$AA@ 00000001400aec28     oraexectask:prvfex.obj
 0002:00006c38       ??_C@_0BG@A@?9setupUserEquivalence?$AA@ 00000001400aec38     oraexectask:prvfex.obj
 0002:00006c50       ??_C@_09A@?9runfixup?$AA@  00000001400aec50     oraexectask:prvfex.obj
 0002:00006c5c       ??_C@_0N@A@?9runexenoerr?$AA@ 00000001400aec5c     oraexectask:prvfex.obj
 0002:00006c6c       ??_C@_07A@?9runexe?$AA@    00000001400aec6c     oraexectask:prvfex.obj
 0002:00006c74       ??_C@_0O@A@?9runcmdstderr?$AA@ 00000001400aec74     oraexectask:prvfex.obj
 0002:00006c84       ??_C@_0L@A@?9rungencmd?$AA@ 00000001400aec84     oraexectask:prvfex.obj
 0002:00006c90       ??_C@_0N@A@?9gethostname?$AA@ 00000001400aec90     oraexectask:prvfex.obj
 0002:00006ca0       ??_C@_08A@timezone?$AA@    00000001400aeca0     oraexectask:prvfex.obj
 0002:00006cac       ??_C@_05A@print?$AA@       00000001400aecac     oraexectask:prvfex.obj
 0002:00006cb4       ??_C@_0N@A@?9gettimezone?$AA@ 00000001400aecb4     oraexectask:prvfex.obj
 0002:00006cc4       ??_C@_0BD@A@?9getallenvvarbypid?$AA@ 00000001400aecc4     oraexectask:prvfex.obj
 0002:00006cd8       ??_C@_0BA@A@?9getallsysparam?$AA@ 00000001400aecd8     oraexectask:prvfex.obj
 0002:00006ce8       ??_C@_0N@A@?9getsysparam?$AA@ 00000001400aece8     oraexectask:prvfex.obj
 0002:00006cf8       ??_C@_0BG@A@?9getconfigkernelparam?$AA@ 00000001400aecf8     oraexectask:prvfex.obj
 0002:00006d10       ??_C@_0BA@A@?9getkernelparam?$AA@ 00000001400aed10     oraexectask:prvfex.obj
 0002:00006d20       ??_C@_0O@A@?9chkhostsfile?$AA@ 00000001400aed20     oraexectask:prvfex.obj
 0002:00006d30       ??_C@_09A@?9chkgroup?$AA@  00000001400aed30     oraexectask:prvfex.obj
 0002:00006d3c       ??_C@_08A@?9chkuser?$AA@   00000001400aed3c     oraexectask:prvfex.obj
 0002:00006d48       ??_C@_0BA@A@?9getallpackages?$AA@ 00000001400aed48     oraexectask:prvfex.obj
 0002:00006d58       ??_C@_0M@A@?9chkpackage?$AA@ 00000001400aed58     oraexectask:prvfex.obj
 0002:00006d64       ??_C@_0M@A@?9getfilever?$AA@ 00000001400aed64     oraexectask:prvfex.obj
 0002:00006d70       ??_C@_0O@A@?9getdevfileid?$AA@ 00000001400aed70     oraexectask:prvfex.obj
 0002:00006d80       ??_C@_0O@A@?9chkfileinsys?$AA@ 00000001400aed80     oraexectask:prvfex.obj
 0002:00006d90       ??_C@_0P@A@?9getspaceavail?$AA@ 00000001400aed90     oraexectask:prvfex.obj
 0002:00006da0       ??_C@_0BE@A@?9getlongestvaliddir?$AA@ 00000001400aeda0     oraexectask:prvfex.obj
 0002:00006db4       ??_C@_0M@A@?9getdirsize?$AA@ 00000001400aedb4     oraexectask:prvfex.obj
 0002:00006dc0       ??_C@_0N@A@?9chkfilelink?$AA@ 00000001400aedc0     oraexectask:prvfex.obj
 0002:00006dd0       ??_C@_08A@?9chkfile?$AA@   00000001400aedd0     oraexectask:prvfex.obj
 0002:00006ddc       ??_C@_0L@A@?9getgroups?$AA@ 00000001400aeddc     oraexectask:prvfex.obj
 0002:00006de8       ??_C@_0N@A@?9getusermask?$AA@ 00000001400aede8     oraexectask:prvfex.obj
 0002:00006df8       ??_C@_0BB@A@?9getarchitecture?$AA@ 00000001400aedf8     oraexectask:prvfex.obj
 0002:00006e0c       ??_C@_0P@A@?9chkportnumber?$AA@ 00000001400aee0c     oraexectask:prvfex.obj
 0002:00006e1c       ??_C@_08A@?9chkport?$AA@   00000001400aee1c     oraexectask:prvfex.obj
 0002:00006e28       ??_C@_0O@A@?9getswapspace?$AA@ 00000001400aee28     oraexectask:prvfex.obj
 0002:00006e38       ??_C@_0O@A@?9chkdirstruct?$AA@ 00000001400aee38     oraexectask:prvfex.obj
 0002:00006e48       ??_C@_0M@A@?9chkospatch?$AA@ 00000001400aee48     oraexectask:prvfex.obj
 0002:00006e54       ??_C@_0O@A@?9getosrelease?$AA@ 00000001400aee54     oraexectask:prvfex.obj
 0002:00006e64       ??_C@_09A@?9getosver?$AA@  00000001400aee64     oraexectask:prvfex.obj
 0002:00006e70       ??_C@_0N@A@?9getrunlevel?$AA@ 00000001400aee70     oraexectask:prvfex.obj
 0002:00006e80       ??_C@_0BA@A@?9getavailmemory?$AA@ 00000001400aee80     oraexectask:prvfex.obj
 0002:00006e90       ??_C@_08A@?9forswap?$AA@   00000001400aee90     oraexectask:prvfex.obj
 0002:00006e9c       ??_C@_0L@A@?9getmemory?$AA@ 00000001400aee9c     oraexectask:prvfex.obj
 0002:00006ea8       ??_C@_0L@A@?9getIfInfo?$AA@ 00000001400aeea8     oraexectask:prvfex.obj
 0002:00006eb4       ??_C@_09A@?9getcname?$AA@  00000001400aeeb4     oraexectask:prvfex.obj
 0002:00006ec0       ??_C@_09A@?9chkalive?$AA@  00000001400aeec0     oraexectask:prvfex.obj
 0002:00006ecc       ??_C@_0BB@A@?9checkAFDCapable?$AA@ 00000001400aeecc     oraexectask:prvfex.obj
 0002:00006ee0       ??_C@_0P@A@?9getdiskdetail?$AA@ 00000001400aeee0     oraexectask:prvfex.obj
 0002:00006ef0       ??_C@_0L@A@?9getfstype?$AA@ 00000001400aeef0     oraexectask:prvfex.obj
 0002:00006efc       ??_C@_0M@A@?9getstorage?$AA@ 00000001400aeefc     oraexectask:prvfex.obj
 0002:00006f08       ??_C@_0L@A@?9getsttype?$AA@ 00000001400aef08     oraexectask:prvfex.obj
 0002:00006f14       ??_C@_0P@A@?9checkasmstamp?$AA@ 00000001400aef14     oraexectask:prvfex.obj
 0002:00006f24       ??_C@_0N@A@?9getuniqueID?$AA@ 00000001400aef24     oraexectask:prvfex.obj
 0002:00006f34       ??_C@_09A@?9checkUID?$AA@  00000001400aef34     oraexectask:prvfex.obj
 0002:00006f40       ??_C@_0P@A@?9getLoginShell?$AA@ 00000001400aef40     oraexectask:prvfex.obj
 0002:00006f50       ??_C@_07A@?9getver?$AA@    00000001400aef50     oraexectask:prvfex.obj
 0002:00006f58       ??_C@_09A@?9getctime?$AA@  00000001400aef58     oraexectask:prvfex.obj
 0002:00006f64       ??_C@_0N@A@?9checknetcon?$AA@ 00000001400aef64     oraexectask:prvfex.obj
 0002:00006f74       ??_C@_0P@A@?9checknetreach?$AA@ 00000001400aef74     oraexectask:prvfex.obj
 0002:00006f84       ??_C@_0L@A@?9getstinfo?$AA@ 00000001400aef84     oraexectask:prvfex.obj
 0002:00006f90       ??_C@_0L@A@?9broadcast?$AA@ 00000001400aef90     oraexectask:prvfex.obj
 0002:00006f9c       ??_C@_0L@A@?9multicast?$AA@ 00000001400aef9c     oraexectask:prvfex.obj
 0002:00006fa8       ??_C@_08A@?9chkIpmi?$AA@   00000001400aefa8     oraexectask:prvfex.obj
 0002:00006fb4       ??_C@_0DF@A@prvfexmain?3?5unable?5to?5close?5formatted?5output?$FLRC?3?$CFd?$FN?6?$AA@ 00000001400aefb4     oraexectask:prvfex.obj
 0002:00006fec       ??_C@_0DE@A@prvfexmain?3?5unable?5to?5open?5scratch?5pad?5file?$FLRC?3?$CFd?$FN?6?$AA@ 00000001400aefec     oraexectask:prvfex.obj
 0002:00007020       ??_C@_0CO@A@prvfexmain?3?5unable?5to?5write?5to?5stdout?$FLRC?3?$CFd?$FN?6?$AA@ 00000001400af020     oraexectask:prvfex.obj
 0002:00007050       ??_C@_0CF@A@?6?5prvfexallocm?3?5meta?5context?5is?5null?$AA@ 00000001400af050     oraexectask:prvfex.obj
 0002:00007078       ??_C@_0CH@A@?6?5prvfexallocm?3?5client?5context?5is?5null?$AA@ 00000001400af078     oraexectask:prvfex.obj
 0002:000070a0       ??_C@_0CK@A@?6?5prvfexallocm?3?5Client?8s?5top?5heap?5is?5null?$AA@ 00000001400af0a0     oraexectask:prvfex.obj
 0002:000070cc       ??_C@_0CE@A@?6?5prvfexfreem?3?5meta?5context?5is?5null?$AA@ 00000001400af0cc     oraexectask:prvfex.obj
 0002:000070f0       ??_C@_0CG@A@?6?5prvfexfreem?3?5client?5context?5is?5null?$AA@ 00000001400af0f0     oraexectask:prvfex.obj
 0002:00007118       ??_C@_0CJ@A@?6?5prvfexfreem?3?5Client?8s?5top?5heap?5is?5null?$AA@ 00000001400af118     oraexectask:prvfex.obj
 0002:00007144       ??_C@_0DA@A@prvfexmain?3?5unable?5to?5close?5scratch?5pad?$FLRC?3?$CFd?$FN?6?$AA@ 00000001400af144     oraexectask:prvfex.obj
 0002:00007174       ??_C@_07A@USAGE?3?6?$AA@   00000001400af174     oraexectask:prvfex.obj
 0002:00007180       ??_C@_0FJ@A@?7exectask?5?9broadcast?5?9listen?5?$DMlocal?5IP?5addr?$DO?0?$DMlocal?5IP?5addr?$DO?4?4?4?5?$DMbroadcast?5addr?$DO?5?$DMport?$DO?6?$AA@ 00000001400af180     oraexectask:prvfex.obj
 0002:000071e0       ??_C@_0EI@A@?7exectask?5?9broadcast?5?9groupIps?5?$DMlocal?5IP?5addr?$DO?5?$DMbroadcast?5addr?$DO?5?$DMport?$DO?6?$AA@ 00000001400af1e0     oraexectask:prvfex.obj
 0002:00007240       ??_C@_0CJ@A@?7exectask?5?9checkAFDCapable?5?$DMdisk_path?$DO?5?6?$AA@ 00000001400af240     oraexectask:prvfex.obj
 0002:0000726c       ??_C@_0DF@A@?7exectask?5?9checkNetCon?5?$DMlocal?5IP?$DO?5?$DMdest?5IPAddress?$DO?5?6?$AA@ 00000001400af26c     oraexectask:prvfex.obj
 0002:000072a4       ??_C@_0CH@A@?7exectask?5?9checkNetReach?5?$DMIPAddress?$DO?5?6?$AA@ 00000001400af2a4     oraexectask:prvfex.obj
 0002:000072cc       ??_C@_0BP@A@?7exectask?5?9checkUID?5?$DMuser_id?$DO?6?$AA@ 00000001400af2cc     oraexectask:prvfex.obj
 0002:000072ec       ??_C@_0CE@A@?7exectask?5?9chkalive?5?$DMprocess_name?$DO?6?$AA@ 00000001400af2ec     oraexectask:prvfex.obj
 0002:00007310       ??_C@_0CA@A@?7exectask?5?9chkfile?5?$DMfile_name?$DO?6?$AA@ 00000001400af310     oraexectask:prvfex.obj
 0002:00007330       ??_C@_0DA@A@?7exectask?5?9chkfilelink?5?$DMfile_path?$DO?5?$DMlink_path?$DO?6?$AA@ 00000001400af330     oraexectask:prvfex.obj
 0002:00007360       ??_C@_0CF@A@?7exectask?5?9chkfileinsys?5?$DMfile_name?$DO?6?$AA@ 00000001400af360     oraexectask:prvfex.obj
 0002:00007388       ??_C@_0CC@A@?7exectask?5?9chkgroup?5?$DMgroup_name?$DO?6?$AA@ 00000001400af388     oraexectask:prvfex.obj
 0002:000073ac       ??_C@_0BJ@A@?7exectask?5?9chkhostsfile?6?$AA@ 00000001400af3ac     oraexectask:prvfex.obj
 0002:000073c8       ??_C@_0CG@A@?7exectask?5?9chkpackage?5?$DMpackage_name?$DO?6?$AA@ 00000001400af3c8     oraexectask:prvfex.obj
 0002:000073f0       ??_C@_0DO@A@?7exectask?5?9chkport?5?$DMprotocol?$DO?5?$DMport_number?$DO?5?$FLSubnet?5Address?$FN?6?$AA@ 00000001400af3f0     oraexectask:prvfex.obj
 0002:00007430       ??_C@_0DD@A@?7exectask?5?9chkportnumber?5?$DMprotocol?$DO?5?$DMport_number?$DO?6?$AA@ 00000001400af430     oraexectask:prvfex.obj
 0002:00007464       ??_C@_0DE@A@?7exectask?5?9chkdirstruct?5?$DMOracleBasePath?$DO?5?$DMCRSHome?$DO?6?$AA@ 00000001400af464     oraexectask:prvfex.obj
 0002:000074a0       ??_C@_0IC@A@?7exectask?5?9chkTCPclient?5?$DMserverName?$DO?5?$DMserverIPAddress?$DO?5?$DMserverPortNumber?$DO?6?7?5?5?5?5?5?5?5?5?5?5?5?5?5?5?5?5?5?5?5?5?5?5?5?$DMclientName?$DO?5?$DMclientIPAddress?$DO?6?$AA@ 00000001400af4a0     oraexectask:prvfex.obj
 0002:00007540       ??_C@_0FO@A@?7exectask?5?9chkTCPclientEx?5?$DMlocIPAddress?$DO?5?$DMserverIPAddress?3port?$DO?5?$FL?$DMserverIPAddress?3port?$DO?5?4?4?4?$FN?6?$AA@ 00000001400af540     oraexectask:prvfex.obj
 0002:000075a0       ??_C@_0FF@A@?7exectask?5?9chkICMPPing?5?$DMlfsout?$DO?5?$DMping_output_file?$DO?5?$DMmax_timeout?$DO?5?$DMperform_rds_ping?$DO?6?$AA@ 00000001400af5a0     oraexectask:prvfex.obj
 0002:00007600       ??_C@_0CA@A@?7exectask?5?9chkuser?5?$DMuser_name?$DO?6?$AA@ 00000001400af600     oraexectask:prvfex.obj
 0002:00007620       ??_C@_0CI@A@?7exectask?5?9fnmatch?5?$DMmatchexp?$DO?5?$DMstring?$DO?6?$AA@ 00000001400af620     oraexectask:prvfex.obj
 0002:00007648       ??_C@_0BM@A@?7exectask?5?9getarchitecture?6?$AA@ 00000001400af648     oraexectask:prvfex.obj
 0002:00007664       ??_C@_0BI@A@?7exectask?5?9getusermask?6?$AA@ 00000001400af664     oraexectask:prvfex.obj
 0002:0000767c       ??_C@_0BL@A@?7exectask?5?9getavailmemory?6?$AA@ 00000001400af67c     oraexectask:prvfex.obj
 0002:00007698       ??_C@_0CF@A@?7exectask?5?9getspaceavail?5?$DMdir_path?$DO?6?$AA@ 00000001400af698     oraexectask:prvfex.obj
 0002:000076c0       ??_C@_0CO@A@?7exectask?5?9getcname?5?$DMhostName?5or?5IPAddress?$DO?5?6?$AA@ 00000001400af6c0     oraexectask:prvfex.obj
 0002:000076f0       ??_C@_0CD@A@?7exectask?5?9getdirsize?5?$DMdir_path?$DO?5?6?$AA@ 00000001400af6f0     oraexectask:prvfex.obj
 0002:00007714       ??_C@_0DB@A@?7exectask?5?9getfileinfo?5?$DMconfig_file?$DO?5?$FL?9recurse?$FN?6?$AA@ 00000001400af714     oraexectask:prvfex.obj
 0002:00007748       ??_C@_0CD@A@?7exectask?5?9getfilever?5?$DMfile_name?$DO?6?$AA@ 00000001400af748     oraexectask:prvfex.obj
 0002:0000776c       ??_C@_0BO@A@?7exectask?5?9getfstype?5?$DMpath?$DO?5?6?$AA@ 00000001400af76c     oraexectask:prvfex.obj
 0002:0000778c       ??_C@_0CE@A@?7exectask?5?9getgroups?5?$FL?$DMuser_name?$DO?$FN?6?$AA@ 00000001400af78c     oraexectask:prvfex.obj
 0002:000077b0       ??_C@_0CM@A@?7exectask?5?9getIfInfo?5?$FL?9n?5?$DMinterfaceName?$DO?$FN?5?6?$AA@ 00000001400af7b0     oraexectask:prvfex.obj
 0002:000077dc       ??_C@_0CI@A@?7exectask?5?9getkernelparam?5?$DMparam_name?$DO?6?$AA@ 00000001400af7dc     oraexectask:prvfex.obj
 0002:00007804       ??_C@_0CO@A@?7exectask?5?9getconfigkernelparam?5?$DMparam_name?$DO?6?$AA@ 00000001400af804     oraexectask:prvfex.obj
 0002:00007834       ??_C@_0CC@A@?7exectask?5?9getmemory?5?$FL?9forswap?$FN?5?6?$AA@ 00000001400af834     oraexectask:prvfex.obj
 0002:00007858       ??_C@_0CE@A@?7exectask?5?9chkospatch?5?$DMpatch_name?$DO?6?$AA@ 00000001400af858     oraexectask:prvfex.obj
 0002:0000787c       ??_C@_0BJ@A@?7exectask?5?9getosrelease?6?$AA@ 00000001400af87c     oraexectask:prvfex.obj
 0002:00007898       ??_C@_0BF@A@?7exectask?5?9getosver?6?$AA@ 00000001400af898     oraexectask:prvfex.obj
 0002:000078b0       ??_C@_0BI@A@?7exectask?5?9getrunlevel?6?$AA@ 00000001400af8b0     oraexectask:prvfex.obj
 0002:000078c8       ??_C@_0DD@A@?7exectask?5?9getstinfo?5?$DMoption?51?$DO?5?$FL?4?4?4?5?$DMoption?56?$DO?$FN?5?6?$AA@ 00000001400af8c8     oraexectask:prvfex.obj
 0002:000078fc       ??_C@_0BP@A@?7exectask?5?9getstorage?5?$DMpath?$DO?5?6?$AA@ 00000001400af8fc     oraexectask:prvfex.obj
 0002:0000791c       ??_C@_0BO@A@?7exectask?5?9getsttype?5?$DMpath?$DO?5?6?$AA@ 00000001400af91c     oraexectask:prvfex.obj
 0002:0000793c       ??_C@_0CC@A@?7exectask?5?9getdiskdetail?5?$DMpath?$DO?5?6?$AA@ 00000001400af93c     oraexectask:prvfex.obj
 0002:00007960       ??_C@_0BK@A@?7exectask?5?9getswapspace?5?6?$AA@ 00000001400af960     oraexectask:prvfex.obj
 0002:00007980       ??_C@_0EP@A@?7exectask?5?9getuniqueID?5?$DM?5UID?5?$HM?5GID?5?$DO?5?$DMbegin?5from?5id?$DO?5?$DMnumber?5of?5ids?5required?$DO?6?$AA@ 00000001400af980     oraexectask:prvfex.obj
 0002:000079e0       ??_C@_0CF@A@?7exectask?5?9getsysparam?5?$DMparam_name?$DO?6?$AA@ 00000001400af9e0     oraexectask:prvfex.obj
 0002:00007a08       ??_C@_0DH@A@?7exectask?5?9getudevinfo?5?$DMdevicepath?$DO?$FL?0?$DMdevicepath?$DO?4?4?4?$FN?6?$AA@ 00000001400afa08     oraexectask:prvfex.obj
 0002:00007a40       ??_C@_0BD@A@?7exectask?5?9getver?6?$AA@ 00000001400afa40     oraexectask:prvfex.obj
 0002:00007a54       ??_C@_0BK@A@?7exectask?5?9getLoginShell?6?$AA@ 00000001400afa54     oraexectask:prvfex.obj
 0002:00007a70       ??_C@_0CC@A@?7exectask?5?9killproc?5?$DMprocessPID?$DO?6?$AA@ 00000001400afa70     oraexectask:prvfex.obj
 0002:00007aa0       ??_C@_0FB@A@?7exectask?5?9multicast?5?9listen?5?$DMlocal?5IP?5addr?$DO?5?$DMmulticast?5group?$DO?5?$DMport?$DO?5?$DMif?5name?$DO?6?$AA@ 00000001400afaa0     oraexectask:prvfex.obj
 0002:00007b00       ??_C@_0FD@A@?7exectask?5?9multicast?5?9groupIps?5?$DMlocal?5IP?5addr?$DO?5?$DMmulticast?5group?$DO?5?$DMport?$DO?5?$DMif?5name?$DO?6?$AA@ 00000001400afb00     oraexectask:prvfex.obj
 0002:00007b60       ??_C@_0DM@A@?7exectask?5?9runfixup?5?$DMdatafilepath?$DO?5?$FL?9tracelevel?5?$DMINTEGER?$DO?$FN?6?$AA@ 00000001400afb60     oraexectask:prvfex.obj
 0002:00007b9c       ??_C@_0DI@A@?7exectask?5?9multicast?5?9killMsg?5?$DMmulticast?5group?$DO?5?$DMport?$DO?6?$AA@ 00000001400afb9c     oraexectask:prvfex.obj
 0002:00007bd4       ??_C@_0BL@A@?7exectask?5?9runexe?5?$DMargs?$DO?5?6?$AA@ 00000001400afbd4     oraexectask:prvfex.obj
 0002:00007bf0       ??_C@_0CA@A@?7exectask?5?9runexenoerr?5?$DMargs?$DO?5?6?$AA@ 00000001400afbf0     oraexectask:prvfex.obj
 0002:00007c10       ??_C@_0CA@A@?7exectask?5?9rungencmd?5?$DMcommand?$DO?6?$AA@ 00000001400afc10     oraexectask:prvfex.obj
 0002:00007c30       ??_C@_0DJ@A@?7exectask?5?9getusmdevinfo?5?$DMdevicepath?$DO?$FL?0?$DMdevicepath?$DO?4?4?4?$FN?6?$AA@ 00000001400afc30     oraexectask:prvfex.obj
 0002:00007c6c       ??_C@_0DE@A@?7exectask?5?9runTCPserver?5?$DMhostName?$DO?5?$DMhostIPAddress?$DO?6?$AA@ 00000001400afc6c     oraexectask:prvfex.obj
 0002:00007ca0       ??_C@_0DE@A@?7exectask?5?9runTCPserverEx?5?$DMhostIPAddress?$DO?5?$FL?$DMport?$DO?$FN?6?$AA@ 00000001400afca0     oraexectask:prvfex.obj
 0002:00007cd4       ??_C@_0CD@A@?7exectask?5?9getbugsym?5?$DMoracleHome?$DO?6?$AA@ 00000001400afcd4     oraexectask:prvfex.obj
 0002:00007d00       ??_C@_0EC@A@?7exectask?5?9getrlimit?5?$DMusername?$DO?5?$FLsoft?$HMhard?$FN?5?$FLnofile?$HMnproc?$HMstack?$FN?6?$AA@ 00000001400afd00     oraexectask:prvfex.obj
 0002:00007d60       ??_C@_0DB@A@?7exectask?5?9gettimezone?5?9pre?$HM?9post?5?$FLcfgFilePath?$FN?6?$AA@ 00000001400afd60     oraexectask:prvfex.obj
 0002:00007d94       ??_C@_0BJ@A@?7exectask?5?9gethostname?5?6?$AA@ 00000001400afd94     oraexectask:prvfex.obj
 0002:00007db0       ??_C@_0DE@A@?7exectask?5?9getlongestvaliddir?5?$DMpath?$DO?5?$HM?5?$DM?9w?$DO?5?$DMpath?$DO?6?$AA@ 00000001400afdb0     oraexectask:prvfex.obj
 0002:00007de4       ??_C@_0CC@A@?7exectask?5?9checkasmstamp?5?$DMstamp?$DO?6?$AA@ 00000001400afde4     oraexectask:prvfex.obj
 0002:00007e08       ??_C@_0CI@A@?7exectask?5?9checkservice?5?$DMservice_name?$DO?6?$AA@ 00000001400afe08     oraexectask:prvfex.obj
 0002:00007e30       ??_C@_0BK@A@?7exectask?5?9getallrlimits?6?$AA@ 00000001400afe30     oraexectask:prvfex.obj
 0002:00007e4c       ??_C@_0BL@A@?7exectask?5?9getallsysparam?6?$AA@ 00000001400afe4c     oraexectask:prvfex.obj
 0002:00007e68       ??_C@_0BL@A@?7exectask?5?9getallpackages?6?$AA@ 00000001400afe68     oraexectask:prvfex.obj
 0002:00007e84       ??_C@_0DF@A@?7exectask?5?9checkremotessh?5?$DMssh_cmd?$DO?5?$DMnode?$DO?$FL?0?$DMnode?$DO?$FN?6?$AA@ 00000001400afe84     oraexectask:prvfex.obj
 0002:00007ebc       ??_C@_0CE@A@?7exectask?5?9getallenvvarbypid?5?$DMpid?$DO?6?$AA@ 00000001400afebc     oraexectask:prvfex.obj
 0002:00007ee0       ??_C@_0CF@A@?7exectask?5?9getallrlimitsbypid?5?$DMpid?$DO?6?$AA@ 00000001400afee0     oraexectask:prvfex.obj
 0002:00007f08       ??_C@_01A@?0?$AA@          00000001400aff08     oraexectask:prvfex.obj
 0002:00007f0c       ??_C@_0M@A@?$EANODE_HERE?$EA?$AA@ 00000001400aff0c     oraexectask:prvfex.obj
 0002:00007f18       ??_C@_04A@?5?$DO?$DO?5?$AA@ 00000001400aff18     oraexectask:prvfex.obj
 0002:00007f20       ??_C@_0BA@A@remotessh?$CFd?4out?$AA@ 00000001400aff20     oraexectask:prvfex.obj
 0002:00007f30       ??_C@_01A@?1?$AA@          00000001400aff30     oraexectask:prvfex.obj
 0002:00007f34       ??_C@_0CM@A@checkRemotessh?3?5unable?5to?5wrap?5log?5message?6?$AA@ 00000001400aff34     oraexectask:prvfex.obj
 0002:00007f60       ??_C@_0CM@A@checkRemotessh?3?5unable?5to?5open?5scratch?5file?$AA@ 00000001400aff60     oraexectask:prvfex.obj
 0002:00007f8c       ??_C@_08A@?$DMCV_VAL?$DO?$AA@ 00000001400aff8c     oraexectask:prvfex.obj
 0002:00007f98       ??_C@_0DH@A@checkRemotessh?3?5Failed?5to?5allocate?5?$CFd?5bytes?5of?5memory?6?$AA@ 00000001400aff98     oraexectask:prvfex.obj
 0002:00007fd0       ??_C@_0BL@A@?$CFs?$CFs?$CFs?$CFs?$CFs?$CFs?$CFs?$CFs?$CFs?$CFs?$CFs?$CFs?$CFs?$AA@ 00000001400affd0     oraexectask:prvfex.obj
 0002:00007fec       ??_C@_01A@?$DM?$AA@        00000001400affec     oraexectask:prvfex.obj
 0002:00007ff0       ??_C@_0N@A@CV_USEREQUIV?$AA@ 00000001400afff0     oraexectask:prvfex.obj
 0002:00008000       ??_C@_01A@?$DO?$AA@        00000001400b0000     oraexectask:prvfex.obj
 0002:00008004       ??_C@_07A@CV_NODE?$AA@     00000001400b0004     oraexectask:prvfex.obj
 0002:0000800c       ??_C@_02A@?$DM?1?$AA@      00000001400b000c     oraexectask:prvfex.obj
 0002:00008010       ??_C@_09A@CV_SSHOUT?$AA@   00000001400b0010     oraexectask:prvfex.obj
 0002:0000801c       ??_C@_0DF@A@checkRemotessh?3?5unable?5to?5allocate?5memory?5for?5error?6?$AA@ 00000001400b001c     oraexectask:prvfex.obj
 0002:00008054       ??_C@_0CJ@A@Insufficient?5memory?5for?5the?5error?5buffer?$AA@ 00000001400b0054     oraexectask:prvfex.obj
 0002:00008080       ??_C@_0CD@A@Cmd?5?8?$CFs?8?5failed?5with?5errno?5?$CFd?5?$CI?$CFs?$CJ?$AA@ 00000001400b0080     oraexectask:prvfex.obj
 0002:000080a4       ??_C@_0BG@A@ssh?5to?5node?5?$CFs?5failed?$AA@ 00000001400b00a4     oraexectask:prvfex.obj
 0002:000080bc       ??_C@_0DD@A@checkRemotessh?3?5unable?5to?5open?5output?5file?$FLRC?3?$CFd?$FN?6?$AA@ 00000001400b00bc     oraexectask:prvfex.obj
 0002:000080f0       ??_C@_0CN@A@checkRemotessh?3?5unable?5to?5copy?5file?$FLRC?3?$CFld?$FN?6?$AA@ 00000001400b00f0     oraexectask:prvfex.obj
 0002:00008120       ??_C@_0CN@A@checkRemotessh?3?5unable?5to?5close?5output?5file?6?$AA@ 00000001400b0120     oraexectask:prvfex.obj
 0002:00008150       ??_C@_0BL@A@?$CFs?$CFs?$CFs?$CFs?$CFs?$CFs?$CFd?$CFs?$CFs?$CFs?$CFs?$CFs?$CFs?$AA@ 00000001400b0150     oraexectask:prvfex.obj
 0002:0000816c       ??_C@_0N@A@CV_NODE_VRES?$AA@ 00000001400b016c     oraexectask:prvfex.obj
 0002:0000817c       ??_C@_09A@?$DM?1CV_VAL?$DO?$AA@ 00000001400b017c     oraexectask:prvfex.obj
 0002:00008188       ??_C@_0CF@A@checkRemotessh?3?5unable?5to?5wrap?5vres?6?$AA@ 00000001400b0188     oraexectask:prvfex.obj
 0002:000081b0       ??_C@_0DA@A@checkRemotessh?3?5remote?5ssh?5check?5was?5successful?$AA@ 00000001400b01b0     oraexectask:prvfex.obj
 0002:000081e0       ??_C@_0DF@A@prvfexOpenFileToWrite?3?5unable?5to?5create?5name?5object?6?$AA@ 00000001400b01e0     oraexectask:prvfex.obj
 0002:00008218       ??_C@_09A@execdbg?31?$AA@  00000001400b0218     oraexectask:prvfex.obj
 0002:00008224       ??_C@_0DF@A@prvfexOpenFileToWrite?3?5unable?5to?5create?5file?5object?6?$AA@ 00000001400b0224     oraexectask:prvfex.obj
 0002:0000825c       ??_C@_0DD@A@prvfexOpenFileToWrite?3?5unable?5to?5open?5output?5file?6?$AA@ 00000001400b025c     oraexectask:prvfex.obj
 0002:00008290       ??_C@_0DF@A@prvfexWrapInt?3?5unable?5to?5write?5the?5start?9tag?$FLRC?3?$CFd?$FN?6?$AA@ 00000001400b0290     oraexectask:prvfex.obj
 0002:000082c8       ??_C@_0DH@A@prvfexWrapInt?3?5unable?5to?5convert?5int?5to?5string?$FLRC?3?$CFd?$FN?6?$AA@ 00000001400b02c8     oraexectask:prvfex.obj
 0002:00008300       ??_C@_0DB@A@prvfexWrapInt?3?5unable?5to?5write?5the?5value?$FLRC?3?$CFd?$FN?6?$AA@ 00000001400b0300     oraexectask:prvfex.obj
 0002:00008334       ??_C@_0DD@A@prvfexWrapInt?3?5unable?5to?5write?5the?5end?9tag?$FLRC?3?$CFd?$FN?6?$AA@ 00000001400b0334     oraexectask:prvfex.obj
 0002:00008368       ??_C@_0DG@A@prvfexWrapText?3?5unable?5to?5write?5the?5start?9tag?$FLRC?3?$CFd?$FN?6?$AA@ 00000001400b0368     oraexectask:prvfex.obj
 0002:000083a0       ??_C@_0DF@A@prvfexWrapText?3?5unable?5to?5write?5the?5str?5data?$FLRC?3?$CFd?$FN?6?$AA@ 00000001400b03a0     oraexectask:prvfex.obj
 0002:000083d8       ??_C@_0DE@A@prvfexWrapText?3?5unable?5to?5write?5the?5end?9tag?$FLRC?3?$CFd?$FN?6?$AA@ 00000001400b03d8     oraexectask:prvfex.obj
 0002:0000840c       ??_C@_0M@A@?$DMCV_CMDRES?$DO?$AA@ 00000001400b040c     oraexectask:prvfex.obj
 0002:00008418       ??_C@_08A@?$DMCV_CMD?$DO?$AA@ 00000001400b0418     oraexectask:prvfex.obj
 0002:00008424       ??_C@_09A@?$DM?1CV_CMD?$DO?$AA@ 00000001400b0424     oraexectask:prvfex.obj
 0002:00008430       ??_C@_08A@?$DMCV_RES?$DO?$AA@ 00000001400b0430     oraexectask:prvfex.obj
 0002:0000843c       ??_C@_09A@?$DM?1CV_RES?$DO?$AA@ 00000001400b043c     oraexectask:prvfex.obj
 0002:00008448       ??_C@_0N@A@?$DM?1CV_CMDRES?$DO?$AA@ 00000001400b0448     oraexectask:prvfex.obj
 0002:00008458       ??_C@_08A@?$DMCV_TRC?$DO?$AA@ 00000001400b0458     oraexectask:prvfex.obj
 0002:00008464       ??_C@_09A@?$DM?1CV_TRC?$DO?$AA@ 00000001400b0464     oraexectask:prvfex.obj
 0002:00008470       ??_C@_09A@?$DMCV_PTXT?$DO?$AA@ 00000001400b0470     oraexectask:prvfex.obj
 0002:0000847c       ??_C@_0L@A@?$DM?1CV_PTXT?$DO?$AA@ 00000001400b047c     oraexectask:prvfex.obj
 0002:00008488       ??_C@_0O@A@?9nicBindOrder?$AA@ 00000001400b0488     oraexectask:prvfex.obj
 0002:00008498       ??_C@_09A@?9ipmpinfo?$AA@  00000001400b0498     oraexectask:prvfex.obj
 0002:000084a4       ??_C@_0CD@A@Exectask?3Syntax?5Error?5encountered?4?$AA@ 00000001400b04a4     oraexectask:prvfex.obj
 0002:000084c8       ??_C@_0BL@A@Exectask?3getIfInfo?5success?$AA@ 00000001400b04c8     oraexectask:prvfex.obj
 0002:000084e4       ??_C@_0BK@A@Exectask?3getIfInfo?5failed?$AA@ 00000001400b04e4     oraexectask:prvfex.obj
 0002:00008500       ??_C@_0CN@A@?$DMTCP_PORT?$DO?$CFd?$DM?1TCP_PORT?$DO?$DMTCP_PID?$DO?$CFd?$DM?1TCP_PID?$DO?$AA@ 00000001400b0500     oraexectask:prvfex.obj
 0002:00008530       ??_C@_0BO@A@Exectask?3runTCPServer?5success?$AA@ 00000001400b0530     oraexectask:prvfex.obj
 0002:00008550       ??_C@_0BN@A@Exectask?3runTCPServer?5failed?$AA@ 00000001400b0550     oraexectask:prvfex.obj
 0002:00008570       ??_C@_0M@A@?$CFs?3?$CFd?3?$CFs?3?3?5?$AA@ 00000001400b0570     oraexectask:prvfex.obj
 0002:0000857c       ??_C@_08A@prvfex?4c?$AA@   00000001400b057c     oraexectask:prvfex.obj
 0002:00008588       ??_C@_0BO@A@calling?5sprvt_findFrrePort?4?4?4?$AA@ 00000001400b0588     oraexectask:prvfex.obj
 0002:000085a8       ??_C@_0CI@A@sprvt_findFrrePort?5returned?5?$CFd?4?5port?$DN?$CFd?$AA@ 00000001400b05a8     oraexectask:prvfex.obj
 0002:000085d0       ??_C@_0CK@A@calling?5sprvfexCreateProcess?5with?5port?5?$CFs?$AA@ 00000001400b05d0     oraexectask:prvfex.obj
 0002:000085fc       ??_C@_0CF@A@sprvfexCreateProcess?5returned?5pid?$DN?$CFd?$AA@ 00000001400b05fc     oraexectask:prvfex.obj
 0002:00008624       ??_C@_0P@A@PID?$DN?$CFd?0PORT?$DN?$CFd?$AA@ 00000001400b0624     oraexectask:prvfex.obj
 0002:00008634       ??_C@_0CB@A@Exectask?3runServerOnPort?5success?$AA@ 00000001400b0634     oraexectask:prvfex.obj
 0002:00008658       ??_C@_0CA@A@Exectask?3runServerOnPort?5failed?$AA@ 00000001400b0658     oraexectask:prvfex.obj
 0002:00008678       ??_C@_0CB@A@Exectask?3chkTCPClient?5successful?$AA@ 00000001400b0678     oraexectask:prvfex.obj
 0002:0000869c       ??_C@_0BN@A@Exectask?3chkTCPClient?5failed?$AA@ 00000001400b069c     oraexectask:prvfex.obj
 0002:000086bc       ??_C@_0CO@A@srvIps?$FL?$CFd?$FN?5is?5?$CFs?4?5this?5is?5in?5incorrect?5format?$AA@ 00000001400b06bc     oraexectask:prvfex.obj
 0002:000086ec       ??_C@_06A@passwd?$AA@      00000001400b06ec     oraexectask:prvfex.obj
 0002:000086f4       ??_C@_04A@user?$AA@        00000001400b06f4     oraexectask:prvfex.obj
 0002:000086fc       ??_C@_02A@ip?$AA@          00000001400b06fc     oraexectask:prvfex.obj
 0002:00008700       ??_C@_06A@ping?$DN1?$AA@   00000001400b0700     oraexectask:prvfex.obj
 0002:00008708       ??_C@_0BI@A@IPMI?5ping?5is?5sucessfull?$AA@ 00000001400b0708     oraexectask:prvfex.obj
 0002:00008720       ??_C@_06A@ping?$DN0?$AA@   00000001400b0720     oraexectask:prvfex.obj
 0002:00008728       ??_C@_0BM@A@IPMI?5ping?5is?5not?5sucessfull?$AA@ 00000001400b0728     oraexectask:prvfex.obj
 0002:00008744       ??_C@_0CH@A@Error?5occured?5while?5checking?5IPMI?5ping?$AA@ 00000001400b0744     oraexectask:prvfex.obj
 0002:0000876c       ??_C@_0CI@A@Multicast?5listener?5executed?5sucessfully?$AA@ 00000001400b076c     oraexectask:prvfex.obj
 0002:00008794       ??_C@_0CP@A@Error?5occured?5while?5creating?5mulicast?5listener?$AA@ 00000001400b0794     oraexectask:prvfex.obj
 0002:000087c4       ??_C@_0CI@A@multicast?5listener?5executed?5sucessfully?$AA@ 00000001400b07c4     oraexectask:prvfex.obj
 0002:000087ec       ??_C@_0CH@A@got?5multicast?5ip?5addresses?5sucessfully?$AA@ 00000001400b07ec     oraexectask:prvfex.obj
 0002:00008814       ??_C@_0CM@A@ips?5need?5more?5size?4?5increase?5ips?5array?5size?$AA@ 00000001400b0814     oraexectask:prvfex.obj
 0002:00008840       ??_C@_0DD@A@Error?5occured?5while?5getting?5multicast?5ip?5addresses?$AA@ 00000001400b0840     oraexectask:prvfex.obj
 0002:00008874       ??_C@_0CF@A@multicast?5Listner?5killed?5sucessfully?$AA@ 00000001400b0874     oraexectask:prvfex.obj
 0002:0000889c       ??_C@_0CP@A@Error?5occured?5while?5killing?5multicast?5listener?$AA@ 00000001400b089c     oraexectask:prvfex.obj
 0002:000088cc       ??_C@_08A@?9killMsg?$AA@   00000001400b08cc     oraexectask:prvfex.obj
 0002:000088d8       ??_C@_09A@?9groupIps?$AA@  00000001400b08d8     oraexectask:prvfex.obj
 0002:000088e4       ??_C@_07A@?9listen?$AA@    00000001400b08e4     oraexectask:prvfex.obj
 0002:000088ec       ??_C@_0CI@A@Broadcast?5listener?5executed?5sucessfully?$AA@ 00000001400b08ec     oraexectask:prvfex.obj
 0002:00008914       ??_C@_0CG@A@Error?5occured?5in?5sprvfexCreateProcess?$AA@ 00000001400b0914     oraexectask:prvfex.obj
 0002:0000893c       ??_C@_0DA@A@Error?5occured?5while?5creating?5broadcast?5listener?$AA@ 00000001400b093c     oraexectask:prvfex.obj
 0002:0000896c       ??_C@_0CI@A@broadcast?5listener?5executed?5sucessfully?$AA@ 00000001400b096c     oraexectask:prvfex.obj
 0002:00008994       ??_C@_0CH@A@got?5broadcast?5ip?5addresses?5sucessfully?$AA@ 00000001400b0994     oraexectask:prvfex.obj
 0002:000089bc       ??_C@_0DD@A@Error?5occured?5while?5getting?5broadcast?5ip?5addresses?$AA@ 00000001400b09bc     oraexectask:prvfex.obj
 0002:000089f0       ??_C@_0DD@A@prvnu_checkPort?5for?5protocol?5?$CFs?5and?5port?5number?5?$CFs?$AA@ 00000001400b09f0     oraexectask:prvfex.obj
 0002:00008a24       ??_C@_0BF@A@Port?5?$CFs?5not?5in?5use?4?6?$AA@ 00000001400b0a24     oraexectask:prvfex.obj
 0002:00008a3c       ??_C@_0BB@A@Port?5?$CFs?5in?5use?4?6?$AA@ 00000001400b0a3c     oraexectask:prvfex.obj
 0002:00008a50       ??_C@_0CA@A@Port?5?$CFs?5could?5not?5be?5verified?4?6?$AA@ 00000001400b0a50     oraexectask:prvfex.obj
 0002:00008a70       ??_C@_0CD@A@prvfexRunExe?3?5unable?5to?5write?5val?6?$AA@ 00000001400b0a70     oraexectask:prvfex.obj
 0002:00008a94       ??_C@_0CD@A@prvfexRunExe?3?5unable?5to?5wrap?5vres?6?$AA@ 00000001400b0a94     oraexectask:prvfex.obj
 0002:00008ab8       ??_C@_0CA@A@Exectask?3?5runexe?5was?5successful?$AA@ 00000001400b0ab8     oraexectask:prvfex.obj
 0002:00008ad8       ??_C@_0CI@A@prvfexRunExeNoErr?3?5unable?5to?5write?5val?6?$AA@ 00000001400b0ad8     oraexectask:prvfex.obj
 0002:00008b00       ??_C@_0CI@A@prvfexRunExeNoErr?3?5unable?5to?5wrap?5vres?6?$AA@ 00000001400b0b00     oraexectask:prvfex.obj
 0002:00008b28       ??_C@_0CF@A@Exectask?3?5runexenoerr?5was?5successful?$AA@ 00000001400b0b28     oraexectask:prvfex.obj
 0002:00008b50       ??_C@_0DF@A@prvfex_oputtoval?3?5unable?5to?5write?5start?5tag?$FLRC?3?$CFld?$FN?6?$AA@ 00000001400b0b50     oraexectask:prvfex.obj
 0002:00008b88       ??_C@_0CP@A@prvfex_oputtoval?3?5unable?5to?5copy?5file?$FLRC?3?$CFld?$FN?6?$AA@ 00000001400b0b88     oraexectask:prvfex.obj
 0002:00008bb8       ??_C@_0CL@A@prvfex_oputtoval?3?5unable?5to?5write?5end?5tag?6?$AA@ 00000001400b0bb8     oraexectask:prvfex.obj
 0002:00008be4       ??_C@_0CH@A@prvfexGetSysParam?3?5unable?5to?5wrap?5val?6?$AA@ 00000001400b0be4     oraexectask:prvfex.obj
 0002:00008c0c       ??_C@_0CI@A@prvfexGetSysParam?3?5unable?5to?5wrap?5vres?6?$AA@ 00000001400b0c0c     oraexectask:prvfex.obj
 0002:00008c34       ??_C@_0CP@A@prvfexGetSysParam?3?5unable?5to?5wrap?5log?5message?6?$AA@ 00000001400b0c34     oraexectask:prvfex.obj
 0002:00008c64       ??_C@_0CM@A@Exectask?3?5system?5param?5retrieval?5successful?$AA@ 00000001400b0c64     oraexectask:prvfex.obj
 0002:00008c90       ??_C@_0CN@A@prvfexRunGenCmd?3?5unable?5to?5wrap?5log?5message?6?$AA@ 00000001400b0c90     oraexectask:prvfex.obj
 0002:00008cc0       ??_C@_0CG@A@prvfexRunGenCmd?3?5unable?5to?5write?5val?6?$AA@ 00000001400b0cc0     oraexectask:prvfex.obj
 0002:00008ce8       ??_C@_0CG@A@prvfexRunGenCmd?3?5unable?5to?5wrap?5vres?6?$AA@ 00000001400b0ce8     oraexectask:prvfex.obj
 0002:00008d10       ??_C@_0BH@A@Exectask?3?5RunGenCmd?5?$CFs?$AA@ 00000001400b0d10     oraexectask:prvfex.obj
 0002:00008d28       ??_C@_0DB@A@Exectask?3?5sprvfex_prockill?5process?5?$CFs?5is?5invalid?$AA@ 00000001400b0d28     oraexectask:prvfex.obj
 0002:00008d5c       ??_C@_0DG@A@Exectask?3?5sprvfex_prockill?5of?5process?5?$CI?$CFd?$CJ?5successful?$AA@ 00000001400b0d5c     oraexectask:prvfex.obj
 0002:00008d94       ??_C@_0DE@A@Exectask?3sprvfex_prockill?5process?$CI?$CFd?$CJ?5did?5not?5exist?$AA@ 00000001400b0d94     oraexectask:prvfex.obj
 0002:00008dc8       ??_C@_0DJ@A@Exectask?3sprvfex_prockill?5could?5not?5abort?5process?3?5?$CFd?6?$CFs?$AA@ 00000001400b0dc8     oraexectask:prvfex.obj
 0002:00008e04       ??_C@_0CN@A@prvfex_killproc?3?5unable?5to?5wrap?5log?5message?6?$AA@ 00000001400b0e04     oraexectask:prvfex.obj
 0002:00008e34       ??_C@_0DF@A@prvfex_killproc?3?5unable?5to?5wrap?5verification?5result?6?$AA@ 00000001400b0e34     oraexectask:prvfex.obj
 0002:00008e6c       ??_C@_0CA@A@failed?5to?5retreive?5hostname?5?$CFs?6?$AA@ 00000001400b0e6c     oraexectask:prvfex.obj
 0002:00008e8c       ??_C@_0DC@A@retreived?5hostname?5successfully?5using?5gethostname?$AA@ 00000001400b0e8c     oraexectask:prvfex.obj
 0002:00008ec0       ??_C@_0CJ@A@prvfex_gethostname?3?5unable?5to?5write?5val?6?$AA@ 00000001400b0ec0     oraexectask:prvfex.obj
 0002:00008eec       ??_C@_0DI@A@prvfex_gethostname?3?5unable?5to?5wrap?5verification?5result?6?$AA@ 00000001400b0eec     oraexectask:prvfex.obj
 0002:00008f24       ??_C@_0M@A@?9tracelevel?$AA@ 00000001400b0f24     oraexectask:prvfex.obj
 0002:00008f40       ??_C@_0EA@A@Error?5while?5retrieving?5hostname?5error?5is?5?$FL?$CFs?$FN?0?5cannot?5continue?6?$AA@ 00000001400b0f40     oraexectask:prvfex.obj
 0002:00008f80       ??_C@_0CD@A@Failed?5to?5perform?5fixup?5operations?$AA@ 00000001400b0f80     oraexectask:prvfex.obj
 0002:00008fa4       ??_C@_08A@GENERATE?$AA@    00000001400b0fa4     oraexectask:prvfex.obj
 0002:00008fb0       ??_C@_06A@UPDATE?$AA@      00000001400b0fb0     oraexectask:prvfex.obj
 0002:00008fc0       ??_C@_0GB@A@Incorrect?5syntax?4?5The?5source?5key?5file?5name?5must?5follow?5argument?5?8?9updateKeys?8?0?5cannot?5continue?4?6?$AA@ 00000001400b0fc0     oraexectask:prvfex.obj
 0002:00009040       ??_C@_0O@A@?9generatekeys?$AA@ 00000001400b1040     oraexectask:prvfex.obj
 0002:00009050       ??_C@_0DJ@A@Failed?5to?5perform?5SSH?5user?5equivalence?5set?9up?5operations?$AA@ 00000001400b1050     oraexectask:prvfex.obj
 0002:0000908c       ??_C@_0M@A@ORACLE_HOME?$AA@ 00000001400b108c     oraexectask:prvfex.obj
 0002:00009098       ??_C@_0BM@A@Argument?5to?5?9cv_oh?5missing?6?$AA@ 00000001400b1098     oraexectask:prvfex.obj
 0002:000090b4       ??_C@_06A@?9cv_oh?$AA@     00000001400b10b4     oraexectask:prvfex.obj
 0002:000090bc       ??_C@_0BB@A@?$DMSOURCE_IP_SIZE?$DO?$AA@ 00000001400b10bc     oraexectask:prvfex.obj
 0002:000090d0       ??_C@_0BC@A@?$DM?1SOURCE_IP_SIZE?$DO?$AA@ 00000001400b10d0     oraexectask:prvfex.obj
 0002:000090e4       ??_C@_0N@A@?$DMSOURCE_IP?$DO?6?$AA@ 00000001400b10e4     oraexectask:prvfex.obj
 0002:000090f4       ??_C@_0O@A@?$DM?1SOURCE_IP?$DO?6?$AA@ 00000001400b10f4     oraexectask:prvfex.obj
 0002:00009104       ??_C@_0M@A@?$DMDEST_IPS?$DO?6?$AA@ 00000001400b1104     oraexectask:prvfex.obj
 0002:00009110       ??_C@_0M@A@?$DM?1DEST_IPS?$DO?$AA@ 00000001400b1110     oraexectask:prvfex.obj
 0002:0000911c       ??_C@_0DF@A@parsePingDetailsFile?3?5unable?5to?5open?5ping?5input?5file?$AA@ 00000001400b111c     oraexectask:prvfex.obj
 0002:00009154       ??_C@_01A@?$AA?$AA@        00000001400b1154     oraexectask:prvfex.obj
 0002:00009158       ??_C@_0DG@A@parsePingDetailsFile?3?5unable?5to?5parse?5ping?5input?5file?$AA@ 00000001400b1158     oraexectask:prvfex.obj
 0002:0000ea00       ??_C@_0DE@A@prvcWrapText?3?5unable?5to?5write?5the?5start?9tag?$FLRC?3?$CFd?$FN?6?$AA@ 00000001400b6a00     oraexectask:prvc.obj
 0002:0000ea34       ??_C@_0DD@A@prvcWrapText?3?5unable?5to?5write?5the?5str?5data?$FLRC?3?$CFd?$FN?6?$AA@ 00000001400b6a34     oraexectask:prvc.obj
 0002:0000ea68       ??_C@_0DC@A@prvcWrapText?3?5unable?5to?5write?5the?5end?9tag?$FLRC?3?$CFd?$FN?6?$AA@ 00000001400b6a68     oraexectask:prvc.obj
 0002:0000ea9c       ??_C@_0CD@A@?6?5prvcallocm?3?5meta?5context?5is?5null?$AA@ 00000001400b6a9c     oraexectask:prvc.obj
 0002:0000eac0       ??_C@_0CF@A@?6?5prvcallocm?3?5client?5context?5is?5null?$AA@ 00000001400b6ac0     oraexectask:prvc.obj
 0002:0000eae8       ??_C@_0CI@A@?6?5prvcallocm?3?5Client?8s?5top?5heap?5is?5null?$AA@ 00000001400b6ae8     oraexectask:prvc.obj
 0002:0000eb10       ??_C@_0BO@A@Could?5not?5obtain?5metacontext?6?$AA@ 00000001400b6b10     oraexectask:prvc.obj
 0002:0000eb30       ??_C@_0CJ@A@Failed?5to?5create?5scratch?5area?5under?5?$CFs?5?6?$AA@ 00000001400b6b30     oraexectask:prvc.obj
 0002:0000eb5c       ??_C@_0CA@A@Could?5not?5obtain?5file?5context?5?6?$AA@ 00000001400b6b5c     oraexectask:prvc.obj
 0002:0000eb7c       ??_C@_03A@lsf?$AA@         00000001400b6b7c     oraexectask:prvc.obj
 0002:0000eb80       ??_C@_0BN@A@Could?5not?5load?5lsf?5package?5?6?$AA@ 00000001400b6b80     oraexectask:prvc.obj
 0002:0000eba0       ??_C@_0BP@A@Could?5not?5initialize?5lsf?5ctx?5?6?$AA@ 00000001400b6ba0     oraexectask:prvc.obj
 0002:0000ebc0       ??_C@_0DG@A@prvc_prvcctx_init?3?5unable?5to?5open?5scratch?5pad?$FLRC?3?$CFd?$FN?6?$AA@ 00000001400b6bc0     oraexectask:prvc.obj
 0002:0000ebf8       ??_C@_06A@LC_ALL?$AA@      00000001400b6bf8     oraexectask:prvc.obj
 0002:0000ec00       ??_C@_0M@A@LC_MESSAGES?$AA@ 00000001400b6c00     oraexectask:prvc.obj
 0002:0000ec0c       ??_C@_08A@LANGUAGE?$AA@    00000001400b6c0c     oraexectask:prvc.obj
 0002:0000ec18       ??_C@_0DL@A@prvc_witspad_eres?3?5unable?5to?5convert?5int?5to?5string?$FLRC?3?$CFd?$FN?6?$AA@ 00000001400b6c18     oraexectask:prvc.obj
 0002:0000ec54       ??_C@_09A@?$DMCV_ERES?$DO?$AA@ 00000001400b6c54     oraexectask:prvc.obj
 0002:0000ec60       ??_C@_0L@A@?$DM?1CV_ERES?$DO?$AA@ 00000001400b6c60     oraexectask:prvc.obj
 0002:0000ec6c       ??_C@_0DL@A@prvc_witspad_vres?3?5unable?5to?5convert?5int?5to?5string?$FLRC?3?$CFd?$FN?6?$AA@ 00000001400b6c6c     oraexectask:prvc.obj
 0002:0000eca8       ??_C@_09A@?$DMCV_VRES?$DO?$AA@ 00000001400b6ca8     oraexectask:prvc.obj
 0002:0000ecb4       ??_C@_0L@A@?$DM?1CV_VRES?$DO?$AA@ 00000001400b6cb4     oraexectask:prvc.obj
 0002:0000ecc0       ??_C@_08A@?$DMCV_ERR?$DO?$AA@ 00000001400b6cc0     oraexectask:prvc.obj
 0002:0000eccc       ??_C@_09A@?$DM?1CV_ERR?$DO?$AA@ 00000001400b6ccc     oraexectask:prvc.obj
 0002:0000ecd8       ??_C@_08A@?$DMCV_LOG?$DO?$AA@ 00000001400b6cd8     oraexectask:prvc.obj
 0002:0000ece4       ??_C@_09A@?$DM?1CV_LOG?$DO?$AA@ 00000001400b6ce4     oraexectask:prvc.obj
 0002:0000ecf0       ??_C@_09A@?$DMINITCMD?$DO?$AA@ 00000001400b6cf0     oraexectask:prvc.obj
 0002:0000ecfc       ??_C@_0L@A@?$DM?1INITCMD?$DO?$AA@ 00000001400b6cfc     oraexectask:prvc.obj
 0002:0000ed08       ??_C@_06A@?$DMHOST?$DO?$AA@ 00000001400b6d08     oraexectask:prvc.obj
 0002:0000ed10       ??_C@_07A@?$DM?1HOST?$DO?$AA@ 00000001400b6d10     oraexectask:prvc.obj
 0002:0000ed18       ??_C@_0M@A@?$DMCV_CMDLOG?$DO?$AA@ 00000001400b6d18     oraexectask:prvc.obj
 0002:0000ed24       ??_C@_0DL@A@prvc_wttspad_cmdlog?3?5unable?5to?5write?5the?5start?9tag?$FLRC?3?$CFd?$FN?6?$AA@ 00000001400b6d24     oraexectask:prvc.obj
 0002:0000ed60       ??_C@_06A@?$CFs?$CFs?$CFs?$AA@ 00000001400b6d60     oraexectask:prvc.obj
 0002:0000ed68       ??_C@_0N@A@?$DMCV_INITCMD?$DO?$AA@ 00000001400b6d68     oraexectask:prvc.obj
 0002:0000ed78       ??_C@_0O@A@?$DM?1CV_INITCMD?$DO?$AA@ 00000001400b6d78     oraexectask:prvc.obj
 0002:0000ed88       ??_C@_0DK@A@prvc_wttspad_cmdlog?3?5unable?5to?5write?5the?5cmd?5data?$FLRC?3?$CFd?$FN?6?$AA@ 00000001400b6d88     oraexectask:prvc.obj
 0002:0000edc4       ??_C@_0DE@A@Either?5no?5commands?5executed?5or?5cmd?5list?5corrupted?$CB?6?$AA@ 00000001400b6dc4     oraexectask:prvc.obj
 0002:0000edf8       ??_C@_08A@?$CFs?$CFs?$CFs?$CFs?$AA@ 00000001400b6df8     oraexectask:prvc.obj
 0002:0000ee04       ??_C@_0M@A@?$DMCV_CMDOUT?$DO?$AA@ 00000001400b6e04     oraexectask:prvc.obj
 0002:0000ee10       ??_C@_0DK@A@prvc_wttspad_cmdlog?3?5unable?5to?5write?5the?5str?5data?$FLRC?3?$CFd?$FN?6?$AA@ 00000001400b6e10     oraexectask:prvc.obj
 0002:0000ee4c       ??_C@_08A@?$CFs?$CFs?$CFd?$CFs?$AA@ 00000001400b6e4c     oraexectask:prvc.obj
 0002:0000ee58       ??_C@_0N@A@?$DM?1CV_CMDOUT?$DO?$AA@ 00000001400b6e58     oraexectask:prvc.obj
 0002:0000ee68       ??_C@_0N@A@?$DMCV_CMDSTAT?$DO?$AA@ 00000001400b6e68     oraexectask:prvc.obj
 0002:0000ee78       ??_C@_0O@A@?$DM?1CV_CMDSTAT?$DO?$AA@ 00000001400b6e78     oraexectask:prvc.obj
 0002:0000ee88       ??_C@_0N@A@?$DM?1CV_CMDLOG?$DO?$AA@ 00000001400b6e88     oraexectask:prvc.obj
 0002:0000ee98       ??_C@_0DJ@A@prvc_wttspad_cmdlog?3?5unable?5to?5write?5the?5end?9tag?$FLRC?3?$CFd?$FN?6?$AA@ 00000001400b6e98     oraexectask:prvc.obj
 0002:0000eed4       ??_C@_0DF@A@prvcCopyFile?3?5unable?5to?5write?5to?5destination?$FLRC?3?$CFd?$FN?6?$AA@ 00000001400b6ed4     oraexectask:prvc.obj
 0002:0000ef0c       ??_C@_0DJ@A@prvcCopyFileToStdOut?3?5unable?5to?5read?5source?5file?$FLRC?3?$CFd?$FN?6?$AA@ 00000001400b6f0c     oraexectask:prvc.obj
 0002:0000ef48       ??_C@_0DA@A@prvcFileClose?3?5unable?5to?5close?5the?5file?$FLRC?3?$CFd?$FN?6?$AA@ 00000001400b6f48     oraexectask:prvc.obj
 0002:0000ef78       ??_C@_0DC@A@prvcFileClose?3?5unable?5to?5free?5name?5object?$FLRC?3?$CFd?$FN?6?$AA@ 00000001400b6f78     oraexectask:prvc.obj
 0002:0000efac       ??_C@_0DD@A@prvcOpenFileToWrite?3?5unable?5to?5create?5name?5object?6?$AA@ 00000001400b6fac     oraexectask:prvc.obj
 0002:0000efe0       ??_C@_0DD@A@prvcOpenFileToWrite?3?5unable?5to?5create?5file?5object?6?$AA@ 00000001400b6fe0     oraexectask:prvc.obj
 0002:0000f014       ??_C@_0DB@A@prvcOpenFileToWrite?3?5unable?5to?5open?5output?5file?6?$AA@ 00000001400b7014     oraexectask:prvc.obj
 0002:0000f048       ??_C@_0DC@A@prvcOpenFileToRead?3?5unable?5to?5create?5name?5object?6?$AA@ 00000001400b7048     oraexectask:prvc.obj
 0002:0000f07c       ??_C@_09A@prvfexr?31?$AA@  00000001400b707c     oraexectask:prvc.obj
 0002:0000f088       ??_C@_0DC@A@prvcOpenFileToRead?3?5unable?5to?5create?5file?5object?6?$AA@ 00000001400b7088     oraexectask:prvc.obj
 0002:0000f0bc       ??_C@_0DE@A@prvcOpenFileToRead?3?5unable?5to?5open?5the?5file?$FLRC?3?$CFd?$FN?6?$AA@ 00000001400b70bc     oraexectask:prvc.obj
 0002:0000f0f0       ??_C@_08A@INTERNAL?$AA@    00000001400b70f0     oraexectask:prvc.obj
 0002:0000f0fc       ??_C@_07A@OTHEROS?$AA@     00000001400b70fc     oraexectask:prvc.obj
 0002:0000f120       ??_C@_0EE@A@?$DMSLOS_LOC?$DO?$CFs?$DM?1SLOS_LOC?$DO?$DMSLOS_OP?$DO?$CFs?$DM?1SLOS_OP?$DO?$DMSLOS_CAT?$DO?$CFs?$DM?1SLOS_CAT?$DO?$AA@ 00000001400b7120     oraexectask:prvc.obj
 0002:0000f180       ??_C@_0CE@A@?$DMSLOS_OTHERINFO?$DO?$CFs?$DM?1SLOS_OTHERINFO?$DO?$AA@ 00000001400b7180     oraexectask:prvc.obj
 0002:0000f1a4       ??_C@_0CA@A@?$DMSLOS_DEPINFO?$DO?$CFd?$DM?1SLOS_DEPINFO?$DO?$AA@ 00000001400b71a4     oraexectask:prvc.obj
 0002:0000f1c4       ??_C@_0CG@A@?$DMSLOS_DEPINFOSTR?$DO?$CFs?$DM?1SLOS_DEPINFOSTR?$DO?$AA@ 00000001400b71c4     oraexectask:prvc.obj
 0002:0000f1ec       ??_C@_0CG@A@?$DMSLOS_LOCINFOSTR?$DO?$CFs?$DM?1SLOS_LOCINFOSTR?$DO?$AA@ 00000001400b71ec     oraexectask:prvc.obj
 0002:0000f214       ??_C@_05A@?$CFs?$CFs?6?$AA@ 00000001400b7214     oraexectask:prvc.obj
 0002:0000f21c       ??_C@_08A@CVU00370?$AA@    00000001400b721c     oraexectask:prvc.obj
 0002:0000f228       ??_C@_0BA@A@metactx?5is?5NULL?$AA@ 00000001400b7228     oraexectask:prvc.obj
 0002:0000f238       ??_C@_08A@CVU00371?$AA@    00000001400b7238     oraexectask:prvc.obj
 0002:0000f244       ??_C@_0BN@A@cxp?0?5client?5context?0?5is?5NULL?$AA@ 00000001400b7244     oraexectask:prvc.obj
 0002:0000f264       ??_C@_08A@CVU00372?$AA@    00000001400b7264     oraexectask:prvc.obj
 0002:0000f270       ??_C@_0CA@A@tophp?0?5client?5top?5heap?0?5is?5NULL?$AA@ 00000001400b7270     oraexectask:prvc.obj
 0002:0000f290       ??_C@_09A@lmmcalloc?$AA@   00000001400b7290     oraexectask:prvc.obj
 0002:0000f29c       ??_C@_08A@CVU00373?$AA@    00000001400b729c     oraexectask:prvc.obj
 0002:0000f2a8       ??_C@_0BJ@A@memory?5allocation?5failed?$AA@ 00000001400b72a8     oraexectask:prvc.obj
 0002:0000f2c4       ??_C@_0CK@A@?6?5prvcallocm_cmdlog?3?5meta?5context?5is?5null?$AA@ 00000001400b72c4     oraexectask:prvc.obj
 0002:0000f2f0       ??_C@_0CM@A@?6?5prvcallocm_cmdlog?3?5client?5context?5is?5null?$AA@ 00000001400b72f0     oraexectask:prvc.obj
 0002:0000f31c       ??_C@_0CP@A@?6?5prvcallocm_cmdlog?3?5Client?8s?5top?5heap?5is?5null?$AA@ 00000001400b731c     oraexectask:prvc.obj
 0002:0000f34c       ??_C@_0CM@A@?6?5prvcallocm_cmdlog?3?5Cannot?5allocate?5memory?$AA@ 00000001400b734c     oraexectask:prvc.obj
 0002:0000f378       ??_C@_06A@prvc?4c?$AA@     00000001400b7378     oraexectask:prvc.obj
 0002:0000f380       ??_C@_0DC@A@prvcCheckFileExist?3?5unable?5to?5create?5name?5object?6?$AA@ 00000001400b7380     oraexectask:prvc.obj
 0002:0000f3b4       ??_C@_0CK@A@prvcCheckFileExist?3?5file?5does?5not?5exist?4?6?$AA@ 00000001400b73b4     oraexectask:prvc.obj
 0002:0000f3e0       ??_C@_0DF@A@prvcCheckFileExist?3?5failed?5to?5check?5file?5existence?4?6?$AA@ 00000001400b73e0     oraexectask:prvc.obj
 0002:0000f418       ??_C@_0M@A@?$DMERROR_LOG?$DO?$AA@ 00000001400b7418     oraexectask:prvc.obj
 0002:0000f424       ??_C@_0DL@A@prvc_wttspad_errlog?3?5unable?5to?5write?5the?5start?9tag?$FLRC?3?$CFd?$FN?6?$AA@ 00000001400b7424     oraexectask:prvc.obj
 0002:0000f460       ??_C@_0L@A@?$DMERR_DESC?$DO?$AA@ 00000001400b7460     oraexectask:prvc.obj
 0002:0000f46c       ??_C@_08A@?$DMENTITY?$DO?$AA@ 00000001400b746c     oraexectask:prvc.obj
 0002:0000f478       ??_C@_09A@?$DM?1ENTITY?$DO?$AA@ 00000001400b7478     oraexectask:prvc.obj
 0002:0000f484       ??_C@_0M@A@?$DM?1ERR_DESC?$DO?$AA@ 00000001400b7484     oraexectask:prvc.obj
 0002:0000f490       ??_C@_0DJ@A@prvc_wttspad_errlog?3?5unable?5to?5write?5the?5end?9tag?$FLRC?3?$CFd?$FN?6?$AA@ 00000001400b7490     oraexectask:prvc.obj
 0002:0000f4cc       ??_C@_0N@A@?$DM?1ERROR_LOG?$DO?$AA@ 00000001400b74cc     oraexectask:prvc.obj
 0002:0000f4dc       ??_C@_09A@?$DMERR_CMD?$DO?$AA@ 00000001400b74dc     oraexectask:prvc.obj
 0002:0000f4e8       ??_C@_0DL@A@prvc_wttspad_errcmd?3?5unable?5to?5write?5the?5start?9tag?$FLRC?3?$CFd?$FN?6?$AA@ 00000001400b74e8     oraexectask:prvc.obj
 0002:0000f524       ??_C@_05A@?$DMCMD?$DO?$AA@ 00000001400b7524     oraexectask:prvc.obj
 0002:0000f52c       ??_C@_06A@?$DM?1CMD?$DO?$AA@ 00000001400b752c     oraexectask:prvc.obj
 0002:0000f534       ??_C@_05A@?$DMOUT?$DO?$AA@ 00000001400b7534     oraexectask:prvc.obj
 0002:0000f53c       ??_C@_0DK@A@prvc_wttspad_errcmd?3?5unable?5to?5write?5the?5str?5data?$FLRC?3?$CFd?$FN?6?$AA@ 00000001400b753c     oraexectask:prvc.obj
 0002:0000f578       ??_C@_04A@NULL?$AA@        00000001400b7578     oraexectask:prvc.obj
 0002:0000f580       ??_C@_06A@?$DM?1OUT?$DO?$AA@ 00000001400b7580     oraexectask:prvc.obj
 0002:0000f588       ??_C@_06A@?$CFs?$CFd?$CFs?$AA@ 00000001400b7588     oraexectask:prvc.obj
 0002:0000f590       ??_C@_06A@?$DMSTAT?$DO?$AA@ 00000001400b7590     oraexectask:prvc.obj
 0002:0000f598       ??_C@_07A@?$DM?1STAT?$DO?$AA@ 00000001400b7598     oraexectask:prvc.obj
 0002:0000f5a0       ??_C@_09A@?$DMERR_LOC?$DO?$AA@ 00000001400b75a0     oraexectask:prvc.obj
 0002:0000f5ac       ??_C@_0L@A@?$DM?1ERR_LOC?$DO?$AA@ 00000001400b75ac     oraexectask:prvc.obj
 0002:0000f5b8       ??_C@_0L@A@?$DM?1ERR_CMD?$DO?$AA@ 00000001400b75b8     oraexectask:prvc.obj
 0002:0000f5c4       ??_C@_0DJ@A@prvc_wttspad_errcmd?3?5unable?5to?5write?5the?5end?9tag?$FLRC?3?$CFd?$FN?6?$AA@ 00000001400b75c4     oraexectask:prvc.obj
 0002:0000f600       ??_C@_0L@A@?$DMERR_FILE?$DO?$AA@ 00000001400b7600     oraexectask:prvc.obj
 0002:0000f60c       ??_C@_0DM@A@prvc_wttspad_errfile?3?5unable?5to?5write?5the?5start?9tag?$FLRC?3?$CFd?$FN?6?$AA@ 00000001400b760c     oraexectask:prvc.obj
 0002:0000f648       ??_C@_0L@A@?$DMFACILITY?$DO?$AA@ 00000001400b7648     oraexectask:prvc.obj
 0002:0000f654       ??_C@_0M@A@?$DM?1FACILITY?$DO?$AA@ 00000001400b7654     oraexectask:prvc.obj
 0002:0000f660       ??_C@_0DL@A@prvc_wttspad_errfile?3?5unable?5to?5write?5the?5str?5data?$FLRC?3?$CFd?$FN?6?$AA@ 00000001400b7660     oraexectask:prvc.obj
 0002:0000f69c       ??_C@_04A@?$DMID?$DO?$AA@  00000001400b769c     oraexectask:prvc.obj
 0002:0000f6a4       ??_C@_05A@?$DM?1ID?$DO?$AA@ 00000001400b76a4     oraexectask:prvc.obj
 0002:0000f6ac       ??_C@_06A@?$DMARGS?$DO?$AA@ 00000001400b76ac     oraexectask:prvc.obj
 0002:0000f6b4       ??_C@_05A@?$DMARG?$DO?$AA@ 00000001400b76b4     oraexectask:prvc.obj
 0002:0000f6bc       ??_C@_06A@?$DM?1ARG?$DO?$AA@ 00000001400b76bc     oraexectask:prvc.obj
 0002:0000f6c4       ??_C@_07A@?$DM?1ARGS?$DO?$AA@ 00000001400b76c4     oraexectask:prvc.obj
 0002:0000f6cc       ??_C@_0M@A@?$DM?1ERR_FILE?$DO?$AA@ 00000001400b76cc     oraexectask:prvc.obj
 0002:0000f6d8       ??_C@_0DK@A@prvc_wttspad_errfile?3?5unable?5to?5write?5the?5end?9tag?$FLRC?3?$CFd?$FN?6?$AA@ 00000001400b76d8     oraexectask:prvc.obj
 0002:0000f714       ??_C@_09A@?$DMERR_API?$DO?$AA@ 00000001400b7714     oraexectask:prvc.obj
 0002:0000f720       ??_C@_0DL@A@prvc_wttspad_errapi?3?5unable?5to?5write?5the?5start?9tag?$FLRC?3?$CFd?$FN?6?$AA@ 00000001400b7720     oraexectask:prvc.obj
 0002:0000f75c       ??_C@_0P@A@?$CFs?$CFs?$CFs?$CFs?$CFd?$CFs?$CFs?$AA@ 00000001400b775c     oraexectask:prvc.obj
 0002:0000f76c       ??_C@_05A@?$DMAPI?$DO?$AA@ 00000001400b776c     oraexectask:prvc.obj
 0002:0000f774       ??_C@_06A@?$DM?1API?$DO?$AA@ 00000001400b7774     oraexectask:prvc.obj
 0002:0000f77c       ??_C@_07A@?$DMERRNO?$DO?$AA@ 00000001400b777c     oraexectask:prvc.obj
 0002:0000f784       ??_C@_08A@?$DM?1ERRNO?$DO?$AA@ 00000001400b7784     oraexectask:prvc.obj
 0002:0000f790       ??_C@_07A@?$DMOTHER?$DO?$AA@ 00000001400b7790     oraexectask:prvc.obj
 0002:0000f798       ??_C@_0DK@A@prvc_wttspad_errapi?3?5unable?5to?5write?5the?5str?5data?$FLRC?3?$CFd?$FN?6?$AA@ 00000001400b7798     oraexectask:prvc.obj
 0002:0000f7d4       ??_C@_04A@?$CFs?$CFs?$AA@  00000001400b77d4     oraexectask:prvc.obj
 0002:0000f7dc       ??_C@_08A@?$DM?1OTHER?$DO?$AA@ 00000001400b77dc     oraexectask:prvc.obj
 0002:0000f7e8       ??_C@_09A@?$DMENG_TXT?$DO?$AA@ 00000001400b77e8     oraexectask:prvc.obj
 0002:0000f7f4       ??_C@_0L@A@?$DM?1ENG_TXT?$DO?$AA@ 00000001400b77f4     oraexectask:prvc.obj
 0002:0000f800       ??_C@_09A@?$DMLOC_TXT?$DO?$AA@ 00000001400b7800     oraexectask:prvc.obj
 0002:0000f80c       ??_C@_0L@A@?$DM?1LOC_TXT?$DO?$AA@ 00000001400b780c     oraexectask:prvc.obj
 0002:0000f818       ??_C@_0L@A@?$DM?1ERR_API?$DO?$AA@ 00000001400b7818     oraexectask:prvc.obj
 0002:0000f824       ??_C@_0DJ@A@prvc_wttspad_errapi?3?5unable?5to?5write?5the?5end?9tag?$FLRC?3?$CFd?$FN?6?$AA@ 00000001400b7824     oraexectask:prvc.obj
 0002:0000f860       ??_C@_0L@A@?$DMERR_SLOS?$DO?$AA@ 00000001400b7860     oraexectask:prvc.obj
 0002:0000f86c       ??_C@_0DK@A@prvc_wttspad_errslos?3?5unable?5to?5write?5the?5end?9tag?$FLRC?3?$CFd?$FN?6?$AA@ 00000001400b786c     oraexectask:prvc.obj
 0002:0000f8a8       ??_C@_0DL@A@prvc_wttspad_errslos?3?5unable?5to?5write?5the?5str?5data?$FLRC?3?$CFd?$FN?6?$AA@ 00000001400b78a8     oraexectask:prvc.obj
 0002:0000f8e4       ??_C@_0M@A@?$DM?1ERR_SLOS?$DO?$AA@ 00000001400b78e4     oraexectask:prvc.obj
 0002:0000f8f0       ??_C@_0L@A@?$DMINFO_LOG?$DO?$AA@ 00000001400b78f0     oraexectask:prvc.obj
 0002:0000f8fc       ??_C@_0DM@A@prvc_wttspad_infolog?3?5unable?5to?5write?5the?5start?9tag?$FLRC?3?$CFd?$FN?6?$AA@ 00000001400b78fc     oraexectask:prvc.obj
 0002:0000f938       ??_C@_06A@?$DMEXEC?$DO?$AA@ 00000001400b7938     oraexectask:prvc.obj
 0002:0000f940       ??_C@_07A@?$DM?1EXEC?$DO?$AA@ 00000001400b7940     oraexectask:prvc.obj
 0002:0000f948       ??_C@_0DL@A@prvc_wttspad_infolog?3?5unable?5to?5write?5the?5str?5data?$FLRC?3?$CFd?$FN?6?$AA@ 00000001400b7948     oraexectask:prvc.obj
 0002:0000f984       ??_C@_06A@?$DMINFO?$DO?$AA@ 00000001400b7984     oraexectask:prvc.obj
 0002:0000f98c       ??_C@_07A@?$DM?1INFO?$DO?$AA@ 00000001400b798c     oraexectask:prvc.obj
 0002:0000f994       ??_C@_0M@A@?$DM?1INFO_LOG?$DO?$AA@ 00000001400b7994     oraexectask:prvc.obj
 0002:0000f9a0       ??_C@_0DK@A@prvc_wttspad_infolog?3?5unable?5to?5write?5the?5end?9tag?$FLRC?3?$CFd?$FN?6?$AA@ 00000001400b79a0     oraexectask:prvc.obj
 0002:0000f9dc       ??_C@_08A@CVU00360?$AA@    00000001400b79dc     oraexectask:prvc.obj
 0002:0000f9e8       ??_C@_0CL@A@prvcalloc_infolog?3memory?5allocation?5failed?$AA@ 00000001400b79e8     oraexectask:prvc.obj
 0002:0000fa14       ??_C@_0CM@A@?6?5prvcalloc_errdesc?3?5Cannot?5allocate?5memory?$AA@ 00000001400b7a14     oraexectask:prvc.obj
 0002:0000fa40       ??_C@_0CP@A@?6?5prvcallocandcopystr?3?5Cannot?5allocate?5memory?6?$AA@ 00000001400b7a40     oraexectask:prvc.obj
 0002:0000fa70       ??_C@_0CO@A@?6?5prvcallocandappendstr?3?5meta?5context?5is?5null?$AA@ 00000001400b7a70     oraexectask:prvc.obj
 0002:0000faa0       ??_C@_0DA@A@?6?5prvcallocandappendstr?3?5client?5context?5is?5null?$AA@ 00000001400b7aa0     oraexectask:prvc.obj
 0002:0000fad0       ??_C@_0DD@A@?6?5prvcallocandappendstr?3?5Client?8s?5top?5heap?5is?5null?$AA@ 00000001400b7ad0     oraexectask:prvc.obj
 0002:0000fb04       ??_C@_0DA@A@?6?5prvcallocandappendstr?3?5Cannot?5allocate?5memory?$AA@ 00000001400b7b04     oraexectask:prvc.obj
 0002:0000fb34       ??_C@_0DB@A@?6?5prvcallocandreplacestr?3?5Cannot?5allocate?5memory?$AA@ 00000001400b7b34     oraexectask:prvc.obj
 0002:0000fb68       ??_C@_0CN@A@?6?5prvc_adderrfilearg?3?5Cannot?5allocate?5memory?$AA@ 00000001400b7b68     oraexectask:prvc.obj
 0002:0000fb98       ??_C@_0CN@A@?6?5prvc_addslosstring?3?5Cannot?5allocate?5memory?$AA@ 00000001400b7b98     oraexectask:prvc.obj
 0002:000128a0       ??_C@_0BE@A@ssprvfexCheckMemory?$AA@ 00000001400ba8a0     oraexectask:ssprvfex.obj
 0002:000128b4       ??_C@_0BF@A@GlobalMemoryStatusEx?$AA@ 00000001400ba8b4     oraexectask:ssprvfex.obj
 0002:000128cc       ??_C@_0DB@A@ssprvfexCheckMemory?3?5unable?5to?5wrap?5log?5message?6?$AA@ 00000001400ba8cc     oraexectask:ssprvfex.obj
 0002:00012900       ??_C@_0CJ@A@Exectask?3?5could?5not?5retrieve?5memory?5size?$AA@ 00000001400ba900     oraexectask:ssprvfex.obj
 0002:0001292c       ??_C@_0DB@A@ssprvfexCheckMemory?3?5unable?5to?5wrap?5val?5message?6?$AA@ 00000001400ba92c     oraexectask:ssprvfex.obj
 0002:00012960       ??_C@_0CK@A@ssprvfexCheckMemory?3?5unable?5to?5wrap?5vres?6?$AA@ 00000001400ba960     oraexectask:ssprvfex.obj
 0002:0001298c       ??_C@_0CP@A@Exectask?3?5Memory?5size?5retrieval?5was?5successful?$AA@ 00000001400ba98c     oraexectask:ssprvfex.obj
 0002:000129bc       ??_C@_0BJ@A@ssprvfexCheckAvailMemory?$AA@ 00000001400ba9bc     oraexectask:ssprvfex.obj
 0002:000129d8       ??_C@_0DG@A@ssprvfexCheckAvailMemory?3?5unable?5to?5wrap?5log?5message?6?$AA@ 00000001400ba9d8     oraexectask:ssprvfex.obj
 0002:00012a10       ??_C@_0CO@A@Exectask?3?5could?5not?5retrieve?5available?5memory?$AA@ 00000001400baa10     oraexectask:ssprvfex.obj
 0002:00012a40       ??_C@_0DG@A@ssprvfexCheckAvailMemory?3?5unable?5to?5wrap?5val?5message?6?$AA@ 00000001400baa40     oraexectask:ssprvfex.obj
 0002:00012a78       ??_C@_0CP@A@ssprvfexCheckAvailMemory?3?5unable?5to?5wrap?5vres?6?$AA@ 00000001400baa78     oraexectask:ssprvfex.obj
 0002:00012aa8       ??_C@_0DJ@A@Exectask?3?5Available?5memory?5size?5retrieval?5was?5successful?$AA@ 00000001400baaa8     oraexectask:ssprvfex.obj
 0002:00012ae4       ??_C@_0BK@A@?5?5?5run?9level?5?$CFd?5?5?5?5last?$DNS?$AA@ 00000001400baae4     oraexectask:ssprvfex.obj
 0002:00012b00       ??_C@_0DD@A@ssprvfexCheckRunlevel?3?5unable?5to?5wrap?5val?5message?6?$AA@ 00000001400bab00     oraexectask:ssprvfex.obj
 0002:00012b34       ??_C@_0CM@A@ssprvfexCheckRunlevel?3?5unable?5to?5wrap?5vres?6?$AA@ 00000001400bab34     oraexectask:ssprvfex.obj
 0002:00012b60       ??_C@_0DD@A@ssprvfexCheckRunlevel?3?5unable?5to?5wrap?5log?5message?6?$AA@ 00000001400bab60     oraexectask:ssprvfex.obj
 0002:00012b94       ??_C@_0CN@A@Exectask?3?5Run?5level?5retrieval?5was?5successful?$AA@ 00000001400bab94     oraexectask:ssprvfex.obj
 0002:00012bc4       ??_C@_0BD@A@ssprvfexCheckOsver?$AA@ 00000001400babc4     oraexectask:ssprvfex.obj
 0002:00012bd8       ??_C@_0DA@A@ssprvfexCheckOsver?3?5unable?5to?5wrap?5log?5message?6?$AA@ 00000001400babd8     oraexectask:ssprvfex.obj
 0002:00012c08       ??_C@_0BE@A@Windows?5Server?52012?$AA@ 00000001400bac08     oraexectask:ssprvfex.obj
 0002:00012c1c       ??_C@_0CJ@A@ssprvfexCheckOsver?3?5unable?5to?5wrap?5vres?6?$AA@ 00000001400bac1c     oraexectask:ssprvfex.obj
 0002:00012c48       ??_C@_0DA@A@ssprvfexCheckOsver?3?5unable?5to?5wrap?5val?5message?6?$AA@ 00000001400bac48     oraexectask:ssprvfex.obj
 0002:00012c78       ??_C@_0BD@A@ssprvfexChkospatch?$AA@ 00000001400bac78     oraexectask:ssprvfex.obj
 0002:00012c8c       ??_C@_0DA@A@ssprvfexChkospatch?3?5unable?5to?5wrap?5log?5message?6?$AA@ 00000001400bac8c     oraexectask:ssprvfex.obj
 0002:00012cbc       ??_C@_0O@A@Service?5Pack?5?$AA@ 00000001400bacbc     oraexectask:ssprvfex.obj
 0002:00012ccc       ??_C@_07A@?$CF32767s?$AA@  00000001400baccc     oraexectask:ssprvfex.obj
 0002:00012cd4       ??_C@_0CG@A@Exectask?3?5No?5valid?5pack?5is?5available?6?$AA@ 00000001400bacd4     oraexectask:ssprvfex.obj
 0002:00012cfc       ??_C@_0CJ@A@ssprvfexChkospatch?3?5unable?5to?5wrap?5vres?6?$AA@ 00000001400bacfc     oraexectask:ssprvfex.obj
 0002:00012d28       ??_C@_0DA@A@ssprvfexChkospatch?3?5unable?5to?5wrap?5val?5message?6?$AA@ 00000001400bad28     oraexectask:ssprvfex.obj
 0002:00012d58       ??_C@_0CM@A@Exectask?3?5OS?5Patch?5retrieval?5was?5successful?$AA@ 00000001400bad58     oraexectask:ssprvfex.obj
 0002:00012d84       ??_C@_06A@64?9bit?$AA@     00000001400bad84     oraexectask:ssprvfex.obj
 0002:00012d8c       ??_C@_06A@32?9bit?$AA@     00000001400bad8c     oraexectask:ssprvfex.obj
 0002:00012d94       ??_C@_0DA@A@ssprvfexCheckArchitecture?3?5unable?5to?5wrap?5vres?6?$AA@ 00000001400bad94     oraexectask:ssprvfex.obj
 0002:00012dc4       ??_C@_0DH@A@ssprvfexCheckArchitecture?3?5unable?5to?5wrap?5val?5message?6?$AA@ 00000001400badc4     oraexectask:ssprvfex.obj
 0002:00012dfc       ??_C@_0DH@A@ssprvfexCheckArchitecture?3?5unable?5to?5wrap?5log?5message?6?$AA@ 00000001400badfc     oraexectask:ssprvfex.obj
 0002:00012e34       ??_C@_0DA@A@Exectask?3?5Architecture?5retrieval?5was?5successful?$AA@ 00000001400bae34     oraexectask:ssprvfex.obj
 0002:00012e64       ??_C@_0BC@A@ssprvfexCheckSwap?$AA@ 00000001400bae64     oraexectask:ssprvfex.obj
 0002:00012e78       ??_C@_0CP@A@ssprvfexCheckSwap?3?5unable?5to?5wrap?5log?5message?6?$AA@ 00000001400bae78     oraexectask:ssprvfex.obj
 0002:00012ea8       ??_C@_0CI@A@Exectask?3?5could?5not?5retrieve?5swap?5space?$AA@ 00000001400baea8     oraexectask:ssprvfex.obj
 0002:00012ed0       ??_C@_0CI@A@ssprvfexCheckSwap?3?5unable?5to?5wrap?5vres?6?$AA@ 00000001400baed0     oraexectask:ssprvfex.obj
 0002:00012ef8       ??_C@_0CP@A@ssprvfexCheckSwap?3?5unable?5to?5wrap?5val?5message?6?$AA@ 00000001400baef8     oraexectask:ssprvfex.obj
 0002:00012f28       ??_C@_0CO@A@Exectask?3?5Swap?5space?5retrieval?5was?5successful?$AA@ 00000001400baf28     oraexectask:ssprvfex.obj
 0002:00012f58       ??_C@_05A@?$CFs?5?3?5?$AA@ 00000001400baf58     oraexectask:ssprvfex.obj
 0002:00012f60       ??_C@_03A@?$CFs?0?$AA@     00000001400baf60     oraexectask:ssprvfex.obj
 0002:00012f64       ??_C@_0CP@A@ssprvfexGetUsrGps?3?5unable?5to?5wrap?5val?5message?6?$AA@ 00000001400baf64     oraexectask:ssprvfex.obj
 0002:00012f94       ??_C@_0CI@A@ssprvfexGetUsrGps?3?5unable?5to?5wrap?5vres?6?$AA@ 00000001400baf94     oraexectask:ssprvfex.obj
 0002:00012fbc       ??_C@_0CP@A@ssprvfexGetUsrGps?3?5unable?5to?5wrap?5log?5message?6?$AA@ 00000001400bafbc     oraexectask:ssprvfex.obj
 0002:00012fec       ??_C@_0CD@A@Exectask?3?5getusergroups?5successful?$AA@ 00000001400bafec     oraexectask:ssprvfex.obj
 0002:00013010       ??_C@_0N@A@No?5such?5user?$AA@ 00000001400bb010     oraexectask:ssprvfex.obj
 0002:00013020       ??_C@_0DE@A@ssprvfexGetUsrGps?3?5A?5system?5error?5has?5occurred?3?5?$CFd?6?$AA@ 00000001400bb020     oraexectask:ssprvfex.obj
 0002:00013054       ??_C@_0DH@A@ssprvfexGetUsrGps?3?5unable?5to?5wrap?5verification?5result?6?$AA@ 00000001400bb054     oraexectask:ssprvfex.obj
 0002:0001308c       ??_C@_0BL@A@Exectask?3getfsInfo?5success?$AA@ 00000001400bb08c     oraexectask:ssprvfex.obj
 0002:000130a8       ??_C@_0BK@A@Exectask?3getfsInfo?5failed?$AA@ 00000001400bb0a8     oraexectask:ssprvfex.obj
 0002:000130c4       ??_C@_0L@A@?9getfsinfo?$AA@ 00000001400bb0c4     oraexectask:ssprvfex.obj
 0002:000130d0       ??_C@_0BG@A@GET_DISK_BY_SIGNATURE?$AA@ 00000001400bb0d0     oraexectask:ssprvfex.obj
 0002:000130e8       ??_C@_04A@disk?$AA@        00000001400bb0e8     oraexectask:ssprvfex.obj
 0002:000130f0       ??_C@_0BB@A@?9discoverDevices?$AA@ 00000001400bb0f0     oraexectask:ssprvfex.obj
 0002:00013104       ??_C@_04A@ORCL?$AA@        00000001400bb104     oraexectask:ssprvfex.obj
 0002:0001310c       ??_C@_0CM@A@ssprvfex_checkasmstamp?3?5unable?5to?5wrap?5val?6?$AA@ 00000001400bb10c     oraexectask:ssprvfex.obj
 0002:00013138       ??_C@_0CN@A@ssprvfex_checkasmstamp?3?5unable?5to?5wrap?5vres?6?$AA@ 00000001400bb138     oraexectask:ssprvfex.obj
 0002:00013168       ??_C@_0DE@A@ssprvfex_checkasmstamp?3?5unable?5to?5wrap?5log?5message?6?$AA@ 00000001400bb168     oraexectask:ssprvfex.obj
 0002:0001319c       ??_C@_0DD@A@Exectask?3?5asm?5device?5path?5retrieval?5was?5successful?$AA@ 00000001400bb19c     oraexectask:ssprvfex.obj
 0002:000131d0       ??_C@_0DB@A@Exectask?3?5asm?5device?5path?5retrieval?5unsuccessful?$AA@ 00000001400bb1d0     oraexectask:ssprvfex.obj
 0002:00013204       ??_C@_0BC@A@Stamp?5not?5correct?$AA@ 00000001400bb204     oraexectask:ssprvfex.obj
 0002:00013218       ??_C@_0CE@A@Stamp?5did?5not?5resolve?5to?5any?5device?$AA@ 00000001400bb218     oraexectask:ssprvfex.obj
 0002:0001323c       ??_C@_0CL@A@Exectask?3?5asm?5device?5path?5retrieval?5failed?$AA@ 00000001400bb23c     oraexectask:ssprvfex.obj
 0002:00013268       ??_C@_0BB@A@?2DEVICE?2HARDDISK?$AA@ 00000001400bb268     oraexectask:ssprvfex.obj
 0002:0001327c       ??_C@_0BF@A@GetFullPathName?$CI?$CJ?5?$CFs?$AA@ 00000001400bb27c     oraexectask:ssprvfex.obj
 0002:00013294       ??_C@_0L@A@_stat?$CI?$CJ?5?$CFs?$AA@ 00000001400bb294     oraexectask:ssprvfex.obj
 0002:000132a0       ??_C@_04A@0029?$AA@        00000001400bb2a0     oraexectask:ssprvfex.obj
 0002:000132a8       ??_C@_08A@CVU00464?$AA@    00000001400bb2a8     oraexectask:ssprvfex.obj
 0002:000132b4       ??_C@_0P@A@?2?2?$DP?2GLOBALROOT?$AA@ 00000001400bb2b4     oraexectask:ssprvfex.obj
 0002:000132c4       ??_C@_0CP@A@ERROR?3?5Disk?5path?5was?5null?5or?5an?5empty?5string?4?6?$AA@ 00000001400bb2c4     oraexectask:ssprvfex.obj
 0002:000132f4       ??_C@_08A@CVU00345?$AA@    00000001400bb2f4     oraexectask:ssprvfex.obj
 0002:00013300       ??_C@_08A@CVU00558?$AA@    00000001400bb300     oraexectask:ssprvfex.obj
 0002:0001330c       ??_C@_0BM@A@ssprvfexCheckDiskAFDCapable?$AA@ 00000001400bb30c     oraexectask:ssprvfex.obj
 0002:00013328       ??_C@_0BF@A@GetVolumeInformation?$AA@ 00000001400bb328     oraexectask:ssprvfex.obj
 0002:00013340       ??_C@_0BD@A@?2DEVICE?2HARDDISKDM?$AA@ 00000001400bb340     oraexectask:ssprvfex.obj
 0002:00013354       ??_C@_0DC@A@ssprvfexCheckDiskAFDCapable?3?5unable?5to?5wrap?5vres?6?$AA@ 00000001400bb354     oraexectask:ssprvfex.obj
 0002:00013388       ??_C@_0CE@A@Exectask?3?5Disk?5AFD?5capable?5check?5?$CFs?$AA@ 00000001400bb388     oraexectask:ssprvfex.obj
 0002:000133ac       ??_C@_0DJ@A@ssprvfexCheckDiskAFDCapable?3?5unable?5to?5wrap?5log?5message?6?$AA@ 00000001400bb3ac     oraexectask:ssprvfex.obj
 0002:000133e8       ??_C@_0O@A@PHYSICALDRIVE?$AA@ 00000001400bb3e8     oraexectask:ssprvfex.obj
 0002:000133f8       ??_C@_07A@STORAGE?$AA@     00000001400bb3f8     oraexectask:ssprvfex.obj
 0002:00013400       ??_C@_0BL@A@ssprvfexCheckRawForASMDisk?$AA@ 00000001400bb400     oraexectask:ssprvfex.obj
 0002:0001341c       ??_C@_0P@A@QueryDosDevice?$AA@ 00000001400bb41c     oraexectask:ssprvfex.obj
 0002:0001342c       ??_C@_02A@Sl?$AA@          00000001400bb42c     oraexectask:ssprvfex.obj
 0002:00013430       ??_C@_0CH@A@ssprvfexChkalive?3?5unable?5to?5wrap?5vres?6?$AA@ 00000001400bb430     oraexectask:ssprvfex.obj
 0002:00013458       ??_C@_0CO@A@ssprvfexChkalive?3?5unable?5to?5wrap?5log?5message?6?$AA@ 00000001400bb458     oraexectask:ssprvfex.obj
 0002:00013488       ??_C@_0CN@A@Exectask?3?5daemon?5status?5check?5was?5successful?$AA@ 00000001400bb488     oraexectask:ssprvfex.obj
 0002:000134b8       ??_C@_0BB@A@ssprvfexChkalive?$AA@ 00000001400bb4b8     oraexectask:ssprvfex.obj
 0002:000134cc       ??_C@_0BD@A@QueryServiceStatus?$AA@ 00000001400bb4cc     oraexectask:ssprvfex.obj
 0002:000134e0       ??_C@_0M@A@OpenService?$AA@ 00000001400bb4e0     oraexectask:ssprvfex.obj
 0002:000134ec       ??_C@_0O@A@OpenSCManager?$AA@ 00000001400bb4ec     oraexectask:ssprvfex.obj
 0002:000134fc       ??_C@_0DD@A@Exectask?3?5could?5not?5determine?5the?5status?5of?5daemon?$AA@ 00000001400bb4fc     oraexectask:ssprvfex.obj
 0002:00013530       ??_C@_0BD@A@Standard?5?$CIUTC?$CL?$CFld?$CJ?$AA@ 00000001400bb530     oraexectask:ssprvfex.obj
 0002:00013544       ??_C@_0BD@A@?$CIStandard?5?$CIUTC?$CFld?$CJ?$AA@ 00000001400bb544     oraexectask:ssprvfex.obj
 0002:00013558       ??_C@_0BD@A@Daylight?5?$CIUTC?$CL?$CFld?$CJ?$AA@ 00000001400bb558     oraexectask:ssprvfex.obj
 0002:0001356c       ??_C@_0BC@A@Daylight?5?$CIUTC?$CFld?$CJ?$AA@ 00000001400bb56c     oraexectask:ssprvfex.obj
 0002:00013580       ??_C@_0BF@A@ssprvfex_gettimezone?$AA@ 00000001400bb580     oraexectask:ssprvfex.obj
 0002:00013598       ??_C@_0BH@A@GetTimeZoneInformation?$AA@ 00000001400bb598     oraexectask:ssprvfex.obj
 0002:000135b0       ??_C@_0CL@A@ssprvfex_gettimezone?3?5unable?5to?5write?5val?6?$AA@ 00000001400bb5b0     oraexectask:ssprvfex.obj
 0002:000135dc       ??_C@_0BJ@A@Exectask?3?5gettimezone?5?$CFs?$AA@ 00000001400bb5dc     oraexectask:ssprvfex.obj
 0002:000135f8       ??_C@_0CJ@A@sprvfexCheckMemory?3?5unable?5to?5wrap?5vres?6?$AA@ 00000001400bb5f8     oraexectask:ssprvfex.obj
 0002:00013624       ??_C@_0DC@A@ssprvfex_gettimezone?3?5unable?5to?5wrap?5log?5message?6?$AA@ 00000001400bb624     oraexectask:ssprvfex.obj
 0002:00013658       ??_C@_0BI@A@?$CFs?5failed?5with?5error?5?$CFd?$AA@ 00000001400bb658     oraexectask:ssprvfex.obj
 0002:00013670       ??_C@_0BM@A@?$CFs?5failed?5with?5error?5?$CFd?3?5?$CFs?$AA@ 00000001400bb670     oraexectask:ssprvfex.obj
 0002:0001368c       ??_C@_0BF@A@failed?5with?5error?5?$CFd?$AA@ 00000001400bb68c     oraexectask:ssprvfex.obj
 0002:000136a4       ??_C@_0BJ@A@failed?5with?5error?5?$CFd?3?5?$CFs?$AA@ 00000001400bb6a4     oraexectask:ssprvfex.obj
 0002:000136c0       ??_C@_08A@CVU00289?$AA@    00000001400bb6c0     oraexectask:ssprvfex.obj
 0002:000136cc       ??_C@_08A@CVU00290?$AA@    00000001400bb6cc     oraexectask:ssprvfex.obj
 0002:000136d8       ??_C@_08A@CVU00287?$AA@    00000001400bb6d8     oraexectask:ssprvfex.obj
 0002:000136e4       ??_C@_08A@CVU00288?$AA@    00000001400bb6e4     oraexectask:ssprvfex.obj
 0002:000136f0       ??_C@_04A@prvg?$AA@        00000001400bb6f0     oraexectask:ssprvfex.obj
 0002:000136f8       ??_C@_05A@13339?$AA@       00000001400bb6f8     oraexectask:ssprvfex.obj
 0002:00013700       ??_C@_08A@CVU00235?$AA@    00000001400bb700     oraexectask:ssprvfex.obj
 0002:0001370c       ??_C@_05A@_stat?$AA@       00000001400bb70c     oraexectask:ssprvfex.obj
 0002:00013714       ??_C@_08A@CVU00283?$AA@    00000001400bb714     oraexectask:ssprvfex.obj
 0002:00013720       ??_C@_08A@CVU00422?$AA@    00000001400bb720     oraexectask:ssprvfex.obj
 0002:0001372c       ??_C@_08A@CVU00285?$AA@    00000001400bb72c     oraexectask:ssprvfex.obj
 0002:00013738       ??_C@_03A@?$CFlu?$AA@      00000001400bb738     oraexectask:ssprvfex.obj
 0002:0001373c       ??_C@_0BN@A@Exectask?3getstorage?5success?4?$AA@ 00000001400bb73c     oraexectask:ssprvfex.obj
 0002:0001375c       ??_C@_0BM@A@Exectask?3getstorage?5failed?4?$AA@ 00000001400bb75c     oraexectask:ssprvfex.obj
 0002:00013780       ??_C@_05A@?$CFI64u?$AA@    00000001400bb780     oraexectask:sprvsgt.obj
 0002:00013788       ??_C@_05A@13336?$AA@       00000001400bb788     oraexectask:sprvsgt.obj
 0002:00013790       ??_C@_08A@CVU00425?$AA@    00000001400bb790     oraexectask:sprvsgt.obj
 0002:0001379c       ??_C@_08A@CVU00366?$AA@    00000001400bb79c     oraexectask:sprvsgt.obj
 0002:000137a8       ??_C@_0L@A@GetVolName?$AA@ 00000001400bb7a8     oraexectask:sprvsgt.obj
 0002:000137b4       ??_C@_08A@CVU00363?$AA@    00000001400bb7b4     oraexectask:sprvsgt.obj
 0002:000137c0       ??_C@_0O@A@GetMountPoint?$AA@ 00000001400bb7c0     oraexectask:sprvsgt.obj
 0002:000137d0       ??_C@_08A@CVU00368?$AA@    00000001400bb7d0     oraexectask:sprvsgt.obj
 0002:000137dc       ??_C@_0L@A@GetVolInfo?$AA@ 00000001400bb7dc     oraexectask:sprvsgt.obj
 0002:000137e8       ??_C@_08A@CVU00369?$AA@    00000001400bb7e8     oraexectask:sprvsgt.obj
 0002:000137f4       ??_C@_03A@RAW?$AA@         00000001400bb7f4     oraexectask:sprvsgt.obj
 0002:000137f8       ??_C@_04A@ACFS?$AA@        00000001400bb7f8     oraexectask:sprvsgt.obj
 0002:00013800       ??_C@_06A@ORACFS?$AA@      00000001400bb800     oraexectask:sprvsgt.obj
 0002:00013808       ??_C@_06A@?2?2?4?2A?3?$AA@ 00000001400bb808     oraexectask:sprvsgt.obj
 0002:00013810       ??_C@_0N@A@?2PARTITION?$CFd?$AA@ 00000001400bb810     oraexectask:sprvsgt.obj
 0002:00013820       ??_C@_0BH@A@?2DEVICE?2HARDDISK?$CFd?$CF99s?$AA@ 00000001400bb820     oraexectask:sprvsgt.obj
 0002:00013838       ??_C@_0BI@A@GetLogicalDrives?$CI?$CJ?5?$FL?$CFs?$FN?$AA@ 00000001400bb838     oraexectask:sprvsgt.obj
 0002:00013850       ??_C@_04A@4060?$AA@        00000001400bb850     oraexectask:sprvsgt.obj
 0002:00013858       ??_C@_08A@CVU00429?$AA@    00000001400bb858     oraexectask:sprvsgt.obj
 0002:00013864       ??_C@_0BF@A@GetAllPhysicalDrives?$AA@ 00000001400bb864     oraexectask:sprvsgt.obj
 0002:0001387c       ??_C@_0CG@A@Failed?5to?5list?5all?5the?5physical?5disks?$AA@ 00000001400bb87c     oraexectask:sprvsgt.obj
 0002:000138a4       ??_C@_08A@CVU00337?$AA@    00000001400bb8a4     oraexectask:sprvsgt.obj
 0002:000138b0       ??_C@_0CN@A@?2?2?$DP?2GLOBALROOT?2DEVICE?2HARDDISK?$CFd?2PARTITION?$CFd?$AA@ 00000001400bb8b0     oraexectask:sprvsgt.obj
 0002:000138e0       ??_C@_0L@A@CreateFile?$AA@ 00000001400bb8e0     oraexectask:sprvsgt.obj
 0002:000138ec       ??_C@_08A@CVU00398?$AA@    00000001400bb8ec     oraexectask:sprvsgt.obj
 0002:000138f8       ??_C@_08A@CVU00396?$AA@    00000001400bb8f8     oraexectask:sprvsgt.obj
 0002:00013904       ??_C@_08A@ReadFile?$AA@    00000001400bb904     oraexectask:sprvsgt.obj
 0002:00013910       ??_C@_08A@CVU00397?$AA@    00000001400bb910     oraexectask:sprvsgt.obj
 0002:0001391c       ??_C@_08A@CVU00399?$AA@    00000001400bb91c     oraexectask:sprvsgt.obj
 0002:00013928       ??_C@_0BC@A@GetVolumePathName?$AA@ 00000001400bb928     oraexectask:sprvsgt.obj
 0002:0001393c       ??_C@_0BO@A@Could?5not?5get?5the?5volume?5name?$AA@ 00000001400bb93c     oraexectask:sprvsgt.obj
 0002:0001395c       ??_C@_08A@CVU00427?$AA@    00000001400bb95c     oraexectask:sprvsgt.obj
 0002:00013968       ??_C@_0CB@A@GetVolumeNameForVolumeMountPoint?$AA@ 00000001400bb968     oraexectask:sprvsgt.obj
 0002:0001398c       ??_C@_08A@CVU00428?$AA@    00000001400bb98c     oraexectask:sprvsgt.obj
 0002:00013998       ??_C@_0BL@A@sprvsgt_getDiskInfoForPath?$AA@ 00000001400bb998     oraexectask:sprvsgt.obj
 0002:000139b4       ??_C@_0N@A@No?5such?5disk?$AA@ 00000001400bb9b4     oraexectask:sprvsgt.obj
 0002:000139c4       ??_C@_04A@stat?$AA@        00000001400bb9c4     oraexectask:sprvsgt.obj
 0002:000139cc       ??_C@_08A@CVU00401?$AA@    00000001400bb9cc     oraexectask:sprvsgt.obj
 0002:000139d8       ??_C@_08A@CVU00426?$AA@    00000001400bb9d8     oraexectask:sprvsgt.obj
 0002:000139e4       ??_C@_02A@FS?$AA@          00000001400bb9e4     oraexectask:sprvsgt.obj
 0002:000139e8       ??_C@_04A@OCFS?$AA@        00000001400bb9e8     oraexectask:sprvsgt.obj
 0002:000139f0       ??_C@_0CC@A@?$DM?$CFs?$DO?$DM?$CFs?0?$CFs?$DO?$DM?$CFs?$DO?$CFd?$DM?1?$CFs?$DO?$DM?$CFs?0?$CFs?$DO?$DM?$CFs?$DO?$AA@ 00000001400bb9f0     oraexectask:sprvsgt.obj
 0002:00013a14       ??_C@_0M@A@BEGINSTTYPE?$AA@ 00000001400bba14     oraexectask:sprvsgt.obj
 0002:00013a20       ??_C@_06A@STTYPE?$AA@      00000001400bba20     oraexectask:sprvsgt.obj
 0002:00013a28       ??_C@_06A@FSTYPE?$AA@      00000001400bba28     oraexectask:sprvsgt.obj
 0002:00013a30       ??_C@_08A@REALPATH?$AA@    00000001400bba30     oraexectask:sprvsgt.obj
 0002:00013a3c       ??_C@_09A@ENDSTTYPE?$AA@   00000001400bba3c     oraexectask:sprvsgt.obj
 0002:00013a48       ??_C@_0DD@A@?$DM?$CFs?$DO?$DM?$CFs?0?$CFs?$DO?$DM?$CFs?0?$CFs?$DO?$DM?$CFs?0?$CFs?$DO?$DM?$CFs?0?$CFd?$DO?$DM?$CFs?0?$CFd?$DO?$DM?$CFs?0?$CFu?$DO?$DM?$CFs?$DO?$AA@ 00000001400bba48     oraexectask:sprvsgt.obj
 0002:00013a7c       ??_C@_0L@A@DISKNUMBER?$AA@ 00000001400bba7c     oraexectask:sprvsgt.obj
 0002:00013a88       ??_C@_0BA@A@PARTITIONNUMBER?$AA@ 00000001400bba88     oraexectask:sprvsgt.obj
 0002:00013a98       ??_C@_0P@A@DRIVESIGNATURE?$AA@ 00000001400bba98     oraexectask:sprvsgt.obj
 0002:00013aa8       ??_C@_0CF@A@?$DM?$CFs?$DO?$DM?$CFs?0?$CFs?$DO?$DM?$CFs?0?$CFd?$DO?$DM?$CFs?0?$CFu?$DO?$DM?$CFs?0?$CFs?$DO?$DM?$CFs?$DO?$AA@ 00000001400bbaa8     oraexectask:sprvsgt.obj
 0002:00013ad0       ??_C@_04A@DISK?$AA@        00000001400bbad0     oraexectask:sprvsgt.obj
 0002:00013ad8       ??_C@_0BA@A@?$DM?$CFs?$DO?$DM?$CFs?0?$CFs?$DO?$DM?$CFs?$DO?$AA@ 00000001400bbad8     oraexectask:sprvsgt.obj
 0002:00013ae8       ??_C@_03A@ASM?$AA@         00000001400bbae8     oraexectask:sprvsgt.obj
 0002:00013aec       ??_C@_0BF@A@?$DM?$CFs?$DO?$DM?$CFs?0UNKNOWN?$DO?$DM?$CFs?$DO?$AA@ 00000001400bbaec     oraexectask:sprvsgt.obj
 0002:00013b04       ??_C@_0BA@A@DeviceIoControl?$AA@ 00000001400bbb04     oraexectask:sprvsgt.obj
 0002:00013b14       ??_C@_08A@CVU00400?$AA@    00000001400bbb14     oraexectask:sprvsgt.obj
 0002:00013b20       ??_C@_08A@CVU00506?$AA@    00000001400bbb20     oraexectask:sprvncon.obj
 0002:00013b2c       ??_C@_0BK@A@sprvnc_ICMPPingDecodeResp?$AA@ 00000001400bbb2c     oraexectask:sprvncon.obj
 0002:00013b48       ??_C@_0O@A@Too?5Few?5Bytes?$AA@ 00000001400bbb48     oraexectask:sprvncon.obj
 0002:00013b58       ??_C@_08A@CVU00507?$AA@    00000001400bbb58     oraexectask:sprvncon.obj
 0002:00013b64       ??_C@_0P@A@None?5echo?5type?$AA@ 00000001400bbb64     oraexectask:sprvncon.obj
 0002:00013b74       ??_C@_08A@CVU00508?$AA@    00000001400bbb74     oraexectask:sprvncon.obj
 0002:00013b80       ??_C@_0BA@A@packet?5Not?5ours?$AA@ 00000001400bbb80     oraexectask:sprvncon.obj
 0002:00013b90       ??_C@_08A@CVU00509?$AA@    00000001400bbb90     oraexectask:sprvncon.obj
 0002:00013b9c       ??_C@_0BA@A@sprvnc_ICMPPing?$AA@ 00000001400bbb9c     oraexectask:sprvncon.obj
 0002:00013bac       ??_C@_0N@A@bad?5ip?5param?$AA@ 00000001400bbbac     oraexectask:sprvncon.obj
 0002:00013bbc       ??_C@_0L@A@WSAStartup?$AA@ 00000001400bbbbc     oraexectask:sprvncon.obj
 0002:00013bc8       ??_C@_08A@CVU00510?$AA@    00000001400bbbc8     oraexectask:sprvncon.obj
 0002:00013bd4       ??_C@_09A@WSASocket?$AA@   00000001400bbbd4     oraexectask:sprvncon.obj
 0002:00013be0       ??_C@_0M@A@ioctlsocket?$AA@ 00000001400bbbe0     oraexectask:sprvncon.obj
 0002:00013bec       ??_C@_04A@bind?$AA@        00000001400bbbec     oraexectask:sprvncon.obj
 0002:00013bf4       ??_C@_0L@A@setsockopt?$AA@ 00000001400bbbf4     oraexectask:sprvncon.obj
 0002:00013c00       ??_C@_07A@_alloca?$AA@     00000001400bbc00     oraexectask:sprvncon.obj
 0002:00013c08       ??_C@_06A@sendto?$AA@      00000001400bbc08     oraexectask:sprvncon.obj
 0002:00013c10       ??_C@_07A@recvfom?$AA@     00000001400bbc10     oraexectask:sprvncon.obj
 0002:00013c18       ??_C@_0BB@A@sprvnc_ICMP6Ping?$AA@ 00000001400bbc18     oraexectask:sprvncon.obj
 0002:00013c2c       ??_C@_0L@A@sprvncon?4c?$AA@ 00000001400bbc2c     oraexectask:sprvncon.obj
 0002:00013c38       ??_C@_0BP@A@ioctlsocket?5is?5falied?5errno?5?$CFd?$AA@ 00000001400bbc38     oraexectask:sprvncon.obj
 0002:00013c58       ??_C@_0BK@A@bind?5failed?5with?5error?5?$CFd?$AA@ 00000001400bbc58     oraexectask:sprvncon.obj
 0002:00013c74       ??_C@_0CB@A@setsockopt?5?5failed?5with?5error?5?$CFd?$AA@ 00000001400bbc74     oraexectask:sprvncon.obj
 0002:00013c98       ??_C@_0BA@A@sprvncICMP6Ping?$AA@ 00000001400bbc98     oraexectask:sprvncon.obj
 0002:00013ca8       ??_C@_0BD@A@sprvnc_ICMPPingAll?$AA@ 00000001400bbca8     oraexectask:sprvncon.obj
 0002:00013cbc       ??_C@_0DB@A@sclsinodequery?5failed?5to?5return?5sclsiretMOREDATA?$AA@ 00000001400bbcbc     oraexectask:sprvncon.obj
 0002:00013cf0       ??_C@_0DO@A@calloc?5failed?5to?5allocate?5?$CFd?5elemnts?5of?5sclsinodeinfo?5objects?$AA@ 00000001400bbcf0     oraexectask:sprvncon.obj
 0002:00013d30       ??_C@_0BD@A@sprvncICMP6PingAll?$AA@ 00000001400bbd30     oraexectask:sprvncon.obj
 0002:00013d44       ??_C@_0BL@A@sclsinodequery?5returned?5?$CFd?$AA@ 00000001400bbd44     oraexectask:sprvncon.obj
 0002:00013d60       ??_C@_0P@A@sclsinodequery?$AA@ 00000001400bbd60     oraexectask:sprvncon.obj
 0002:00013d70       ??_C@_0CB@A@nodeInfo?$FL?$CFd?$FN?5is?5not?5ipv6?5address?$AA@ 00000001400bbd70     oraexectask:sprvncon.obj
 0002:00013d94       ??_C@_0BK@A@trying?5to?5ping?5from?5ip?5?$CFs?$AA@ 00000001400bbd94     oraexectask:sprvncon.obj
 0002:00013db0       ??_C@_0M@A@sprvnc_Ping?$AA@ 00000001400bbdb0     oraexectask:sprvncon.obj
 0002:00013dbc       ??_C@_0M@A@getaddrinfo?$AA@ 00000001400bbdbc     oraexectask:sprvncon.obj
 0002:00013dc8       ??_C@_0CK@A@src?5IP?5?$CFs?5can?5not?5be?5resolved?4?5errMsg?3?5?$CFs?$AA@ 00000001400bbdc8     oraexectask:sprvncon.obj
 0002:00013df4       ??_C@_0CA@A@getaddrinfo?5of?5src?5?$CFs?5is?5succes?$AA@ 00000001400bbdf4     oraexectask:sprvncon.obj
 0002:00013e14       ??_C@_0CL@A@dest?5IP?5?$CFs?5can?5not?5be?5resolved?4?5errMsg?3?5?$CFs?$AA@ 00000001400bbe14     oraexectask:sprvncon.obj
 0002:00013e40       ??_C@_0CB@A@getaddrinfo?5of?5dest?5?$CFs?5is?5succes?$AA@ 00000001400bbe40     oraexectask:sprvncon.obj
 0002:00013e64       ??_C@_0P@A@sprvnc_pingAll?$AA@ 00000001400bbe64     oraexectask:sprvncon.obj
 0002:00013e74       ??_C@_0CI@A@host?5?$CFs?5can?5not?5be?5resolved?4?5errMsg?3?5?$CFs?$AA@ 00000001400bbe74     oraexectask:sprvncon.obj
 0002:00013e9c       ??_C@_0BG@A@getaddrinfo?5is?5succes?$AA@ 00000001400bbe9c     oraexectask:sprvncon.obj
 0002:00013eb4       ??_C@_0BC@A@the?5ip?5addr?5is?5?$CFs?$AA@ 00000001400bbeb4     oraexectask:sprvncon.obj
 0002:00013ec8       ??_C@_0BP@A@the?5ip?5addr?5?$CFs?5is?5ipv6?5address?$AA@ 00000001400bbec8     oraexectask:sprvncon.obj
 0002:00013ee8       ??_C@_0BL@A@the?5ip?5is?5not?5ipv6?5or?5ipv4?$AA@ 00000001400bbee8     oraexectask:sprvncon.obj
 0002:00013f04       ??_C@_0BC@A@bConnectes?5is?5?$CFd?6?$AA@ 00000001400bbf04     oraexectask:sprvncon.obj
 0002:00013f18       ??_C@_02A@?4?2?$AA@        00000001400bbf18     oraexectask:sprvc.obj
 0002:00013f1c       ??_C@_0M@A@exout?$CFd?4out?$AA@ 00000001400bbf1c     oraexectask:sprvc.obj
 0002:00013f28       ??_C@_0DA@A@ERROR?$FLsprvfex_get_exoutname?$FN?3?5buffer?5too?5small?6?$AA@ 00000001400bbf28     oraexectask:sprvc.obj
 0002:00013f58       ??_C@_0N@A@exspad?$CFd?4out?$AA@ 00000001400bbf58     oraexectask:sprvc.obj
 0002:00013f68       ??_C@_0CP@A@ERROR?$FLsprvfex_get_spadname?$FN?3?5buffer?5too?5small?6?$AA@ 00000001400bbf68     oraexectask:sprvc.obj
 0002:00013f98       ??_C@_0L@A@sprvc_kill?$AA@ 00000001400bbf98     oraexectask:sprvc.obj
 0002:00013fa4       ??_C@_0O@A@Invalid?5param?$AA@ 00000001400bbfa4     oraexectask:sprvc.obj
 0002:00013fb4       ??_C@_0M@A@OpenProcess?$AA@ 00000001400bbfb4     oraexectask:sprvc.obj
 0002:00013fc0       ??_C@_0BB@A@TerminateProcess?$AA@ 00000001400bbfc0     oraexectask:sprvc.obj
 0002:00013fd4       ??_C@_0BB@A@sprvcGethostname?$AA@ 00000001400bbfd4     oraexectask:sprvc.obj
 0002:00013fe8       ??_C@_0M@A@gethostname?$AA@ 00000001400bbfe8     oraexectask:sprvc.obj
 0002:00013ff4       ??_C@_0DG@A@ERROR?3?5sprvcGetDebugFp?5?9?5Error?5opening?5trace?5file?5?$CFs?6?$AA@ 00000001400bbff4     oraexectask:sprvc.obj
 0002:0001402c       ??_C@_0BA@A@?$CFs?1exectask?4trc?$AA@ 00000001400bc02c     oraexectask:sprvc.obj
 0002:0001403c       ??_C@_0CE@A@?$CF?45d?3?$CF?42d?1?$CF?42d?1?$CF2?42d?5?$CF?42d?3?$CF?42d?3?$CF?42d?$AA@ 00000001400bc03c     oraexectask:sprvc.obj
 0002:00014074       ??_C@_0BA@A@255?4255?4255?4255?$AA@ 00000001400bc074     oraexectask:prvng.obj
 0002:00014084       ??_C@_05A@10040?$AA@       00000001400bc084     oraexectask:prvng.obj
 0002:0001408c       ??_C@_08A@CVU00451?$AA@    00000001400bc08c     oraexectask:prvng.obj
 0002:00014098       ??_C@_09A@?$DMADAPTER?$DO?$AA@ 00000001400bc098     oraexectask:prvng.obj
 0002:000140a4       ??_C@_07A@?$DMIP?0?$CFs?$DO?$AA@ 00000001400bc0a4     oraexectask:prvng.obj
 0002:000140ac       ??_C@_09A@?$DMMASK?0?$CFs?$DO?$AA@ 00000001400bc0ac     oraexectask:prvng.obj
 0002:000140b8       ??_C@_0M@A@?$DMSUBNET?0?$CFs?$DO?$AA@ 00000001400bc0b8     oraexectask:prvng.obj
 0002:000140c4       ??_C@_0BF@A@?$DMDEFAULT?5GATEWAY?0?$CFs?$DO?$AA@ 00000001400bc0c4     oraexectask:prvng.obj
 0002:000140dc       ??_C@_0BE@A@?$DMSUBNET?5GATEWAY?0?$CFs?$DO?$AA@ 00000001400bc0dc     oraexectask:prvng.obj
 0002:000140f0       ??_C@_0BD@A@?$DMHARDWARE?5ADDR?0?$CFs?$DO?$AA@ 00000001400bc0f0     oraexectask:prvng.obj
 0002:00014104       ??_C@_0M@A@?$DMTYPE?0IPV4?$DO?$AA@ 00000001400bc104     oraexectask:prvng.obj
 0002:00014110       ??_C@_0M@A@?$DMTYPE?0IPV6?$DO?$AA@ 00000001400bc110     oraexectask:prvng.obj
 0002:0001411c       ??_C@_07A@PRIVATE?$AA@     00000001400bc11c     oraexectask:prvng.obj
 0002:00014124       ??_C@_06A@PUBLIC?$AA@      00000001400bc124     oraexectask:prvng.obj
 0002:0001412c       ??_C@_05A@LOCAL?$AA@       00000001400bc12c     oraexectask:prvng.obj
 0002:00014134       ??_C@_0N@A@?$DMNETTYPE?0?$CFs?$DO?$AA@ 00000001400bc134     oraexectask:prvng.obj
 0002:00014144       ??_C@_02A@UP?$AA@          00000001400bc144     oraexectask:prvng.obj
 0002:00014148       ??_C@_04A@DOWN?$AA@        00000001400bc148     oraexectask:prvng.obj
 0002:00014150       ??_C@_0O@A@?$DMUPSTATUS?0?$CFs?$DO?$AA@ 00000001400bc150     oraexectask:prvng.obj
 0002:00014160       ??_C@_08A@?$DMMTU?0?$CFs?$DO?$AA@ 00000001400bc160     oraexectask:prvng.obj
 0002:0001416c       ??_C@_0BD@A@?$DMHARDWARE_TYPE?0?$CFs?$DO?$AA@ 00000001400bc16c     oraexectask:prvng.obj
 0002:00014180       ??_C@_0L@A@?$DM?1ADAPTER?$DO?$AA@ 00000001400bc180     oraexectask:prvng.obj
 0002:0001418c       ??_C@_07A@prvnt?4c?$AA@    00000001400bc18c     oraexectask:prvnt.obj
 0002:00014194       ??_C@_0CP@A@signal?$DN?$CFd?5is?5received?4?5terminating?5the?5process?$AA@ 00000001400bc194     oraexectask:prvnt.obj
 0002:000141c4       ??_C@_0CB@A@bind?5?$CFs?5to?5any?5an?5ephemeral?5port?$AA@ 00000001400bc1c4     oraexectask:prvnt.obj
 0002:000141e8       ??_C@_0BA@A@err?5details?3?5?$CFs?$AA@ 00000001400bc1e8     oraexectask:prvnt.obj
 0002:000141f8       ??_C@_0BH@A@trying?5to?5get?5sockname?$AA@ 00000001400bc1f8     oraexectask:prvnt.obj
 0002:00014210       ??_C@_0BB@A@got?5free?5port?5?$CFd?$AA@ 00000001400bc210     oraexectask:prvnt.obj
 0002:00014240       ??_C@_0EE@A@SPRVN_RET_GETADDR_RETRY?5retuned?5from?5sprvn_getaddrinfo?4?5retrying?4?4?4?$AA@ 00000001400bc240     oraexectask:prvnt.obj
 0002:000142a0       ??_C@_0BI@A@trying?5to?5get?5free?5port?$AA@ 00000001400bc2a0     oraexectask:prvnt.obj
 0002:000142b8       ??_C@_0CG@A@error?5occured?5while?5finding?5free?5port?$AA@ 00000001400bc2b8     oraexectask:prvnt.obj
 0002:000142e0       ??_C@_0BD@A@found?5free?5port?$DN?$CFd?$AA@ 00000001400bc2e0     oraexectask:prvnt.obj
 0002:000142f4       ??_C@_0BP@A@trying?5to?5bind?5with?5addr?$DN?$CFs?3?$CFd?$AA@ 00000001400bc2f4     oraexectask:prvnt.obj
 0002:00014314       ??_C@_0CM@A@error?5while?5binding?5with?5addr?$DN?$CFs?3?$CFd?4?5err?$DN?$CFs?$AA@ 00000001400bc314     oraexectask:prvnt.obj
 0002:00014340       ??_C@_0CH@A@error?5while?5creating?5socket?4?5msgBuf?$DN?$CFs?$AA@ 00000001400bc340     oraexectask:prvnt.obj
 0002:00014368       ??_C@_0BD@A@calling?5sprvn_fork?$AA@ 00000001400bc368     oraexectask:prvnt.obj
 0002:0001437c       ??_C@_0BN@A@sprvn_fork?5failed?4?5msgBuf?$DN?$CFs?$AA@ 00000001400bc37c     oraexectask:prvnt.obj
 0002:0001439c       ??_C@_0BG@A@child?5process?5id?5?3?5?$CFd?$AA@ 00000001400bc39c     oraexectask:prvnt.obj
 0002:000143b4       ??_C@_0CK@A@continuing?5from?5here?5with?5child?5process?4?4?$AA@ 00000001400bc3b4     oraexectask:prvnt.obj
 0002:000143e0       ??_C@_0O@A@setting?5alarm?$AA@ 00000001400bc3e0     oraexectask:prvnt.obj
 0002:000143f0       ??_C@_0CB@A@sprvn_setalarm?5failed?4?5msgBuf?$DN?$CFs?$AA@ 00000001400bc3f0     oraexectask:prvnt.obj
 0002:00014414       ??_C@_0BL@A@Waiting?5for?5connection?4?4?4?4?$AA@ 00000001400bc414     oraexectask:prvnt.obj
 0002:00014430       ??_C@_0BP@A@sprvn_accept?5failed?4?5msgBuf?$DN?$CFs?$AA@ 00000001400bc430     oraexectask:prvnt.obj
 0002:00014450       ??_C@_0M@A@continue?4?4?4?$AA@ 00000001400bc450     oraexectask:prvnt.obj
 0002:0001445c       ??_C@_0BP@A@got?5connection?5from?5addr?$DN?$CFs?3?$CFd?$AA@ 00000001400bc45c     oraexectask:prvnt.obj
 0002:0001447c       ??_C@_0BN@A@sprvn_recv?5failed?4?5msgBuf?$DN?$CFs?$AA@ 00000001400bc47c     oraexectask:prvnt.obj
 0002:0001449c       ??_C@_0L@A@sending?5?$CFs?$AA@ 00000001400bc49c     oraexectask:prvnt.obj
 0002:000144a8       ??_C@_0BN@A@sprvn_send?5failed?4?5msgBuf?$DN?$CFs?$AA@ 00000001400bc4a8     oraexectask:prvnt.obj
 0002:000144c8       ??_C@_0BG@A@closing?5client?5socket?$AA@ 00000001400bc4c8     oraexectask:prvnt.obj
 0002:000144e0       ??_C@_0BO@A@sprvn_close?5failed?4?5msgBuf?$DN?$CFs?$AA@ 00000001400bc4e0     oraexectask:prvnt.obj
 0002:00014500       ??_C@_0BK@A@locIp?$DN?$CFs?0srvIp?$DN?$CFs?0port?$DN?$CFs?$AA@ 00000001400bc500     oraexectask:prvnt.obj
 0002:0001451c       ??_C@_0CG@A@tring?5to?5get?5local?5addrinfo?5for?5ip?$DN?$CFs?$AA@ 00000001400bc51c     oraexectask:prvnt.obj
 0002:00014560       ??_C@_0FB@A@SPRVN_RET_GETADDR_RETRY?5retuned?5from?5sprvn_getaddrinfo?5for?5locIp?$DN?$CFs?4?5retrying?4?4?4?$AA@ 00000001400bc560     oraexectask:prvnt.obj
 0002:000145c0       ??_C@_0DC@A@IP?$DN?$CFs?0CS?$DNNO?0ERR?$DNTRUE?0ERRNO?$DN?$CFd?0SYSCAL?$DN?$CFs?0ERRMSG?$DN?$CFs?$AA@ 00000001400bc5c0     oraexectask:prvnt.obj
 0002:000145f4       ??_C@_0DH@A@sprvn_getaddrinfo?5for?5locIp?$DN?$CFs?5failed?4?5err?5details?3?5?$CFs?$AA@ 00000001400bc5f4     oraexectask:prvnt.obj
 0002:0001462c       ??_C@_0CH@A@tring?5to?5get?5remote?5addrinfo?5for?5ip?$DN?$CFs?$AA@ 00000001400bc62c     oraexectask:prvnt.obj
 0002:00014660       ??_C@_0FB@A@SPRVN_RET_GETADDR_RETRY?5retuned?5from?5sprvn_getaddrinfo?5for?5srvIp?$DN?$CFs?4?5retrying?4?4?4?$AA@ 00000001400bc660     oraexectask:prvnt.obj
 0002:000146c0       ??_C@_0DH@A@sprvn_getaddrinfo?5for?5srvIp?$DN?$CFs?5failed?4?5err?5details?3?5?$CFs?$AA@ 00000001400bc6c0     oraexectask:prvnt.obj
 0002:000146f8       ??_C@_0BL@A@create?5socket?5for?5locIp?$DN?$CFs?$AA@ 00000001400bc6f8     oraexectask:prvnt.obj
 0002:00014714       ??_C@_0CP@A@trying?5to?5bind?5locIP?$DN?$CFs?5with?5an?5ephemeral?5port?$AA@ 00000001400bc714     oraexectask:prvnt.obj
 0002:00014744       ??_C@_0CJ@A@error?5while?5binding?5with?5addr?$DN?$CFs?4?5err?$DN?$CFs?$AA@ 00000001400bc744     oraexectask:prvnt.obj
 0002:00014770       ??_C@_0CD@A@trying?5to?5connect?5to?5?$CFs?3?$CFd?5from?5?$CFs?$AA@ 00000001400bc770     oraexectask:prvnt.obj
 0002:00014794       ??_C@_0DC@A@error?5while?5connecting?5to?5server?5?$CFs?3?$CFd?4?5msgBuf?$DN?$CFs?$AA@ 00000001400bc794     oraexectask:prvnt.obj
 0002:000147c8       ??_C@_0BL@A@error?5from?5getsockname?3?5?$CFs?$AA@ 00000001400bc7c8     oraexectask:prvnt.obj
 0002:000147e4       ??_C@_07A@connect?$AA@     00000001400bc7e4     oraexectask:prvnt.obj
 0002:000147ec       ??_C@_0L@A@Hi?5from?5?$CFs?$AA@ 00000001400bc7ec     oraexectask:prvnt.obj
 0002:000147f8       ??_C@_0BO@A@sending?5message?5?$CC?$CFs?$CC?5to?5?$CFs?3?$CFd?$AA@ 00000001400bc7f8     oraexectask:prvnt.obj
 0002:00014818       ??_C@_0DB@A@error?5sending?5message?5to?5server?5?$CFs?3?$CFd?4?5msgBuf?$DN?$CFs?$AA@ 00000001400bc818     oraexectask:prvnt.obj
 0002:0001484c       ??_C@_0BM@A@Waiting?5for?5input?5stream?4?4?4?$AA@ 00000001400bc84c     oraexectask:prvnt.obj
 0002:00014868       ??_C@_0BP@A@sprvn_select?5failed?4?5msgBuf?$DN?$CFs?$AA@ 00000001400bc868     oraexectask:prvnt.obj
 0002:00014888       ??_C@_0BA@A@timeout?5occured?$AA@ 00000001400bc888     oraexectask:prvnt.obj
 0002:00014898       ??_C@_0CL@A@TCP?5connetivity?5from?5?$CFs?5to?5?$CFs?3?$CFd?5is?5failed?$AA@ 00000001400bc898     oraexectask:prvnt.obj
 0002:000148c4       ??_C@_0BG@A@error?5from?5select?3?5?$CFs?$AA@ 00000001400bc8c4     oraexectask:prvnt.obj
 0002:000148dc       ??_C@_06A@select?$AA@      00000001400bc8dc     oraexectask:prvnt.obj
 0002:000148e4       ??_C@_0CJ@A@socket?5is?5ready?5to?5read?4?5reading?5data?4?4?4?$AA@ 00000001400bc8e4     oraexectask:prvnt.obj
 0002:00014910       ??_C@_0DL@A@error?5while?5receiving?5message?5from?5server?5?$CFs?3?$CFd?4?5msgBuf?$DN?$CFs?$AA@ 00000001400bc910     oraexectask:prvnt.obj
 0002:0001494c       ??_C@_0CG@A@received?5mesg?5?$CC?$CFs?$CC?5from?5server?5?$CFs?3?$CFd?4?$AA@ 00000001400bc94c     oraexectask:prvnt.obj
 0002:00014974       ??_C@_0CE@A@got?5reply?5for?5message?5that?5was?5sent?$AA@ 00000001400bc974     oraexectask:prvnt.obj
 0002:00014998       ??_C@_0CO@A@TCP?5connectivity?5from?5?$CFs?5to?5?$CFs?5is?5successfull?$AA@ 00000001400bc998     oraexectask:prvnt.obj
 0002:000149c8       ??_C@_0BI@A@IP?$DN?$CFs?0CS?$DNTRUE?0ERR?$DNFALSE?$AA@ 00000001400bc9c8     oraexectask:prvnt.obj
 0002:000149e0       ??_C@_0CI@A@Message?5mismatch?4?5sendBuf?$DN?$CFs?0recvBuf?$DN?$CFs?$AA@ 00000001400bc9e0     oraexectask:prvnt.obj
 0002:00014a08       ??_C@_0DD@A@sent?5message?5and?5received?5message?5are?5not?5matching?$AA@ 00000001400bca08     oraexectask:prvnt.obj
 0002:00014a3c       ??_C@_04A@recv?$AA@        00000001400bca3c     oraexectask:prvnt.obj
 0002:00014a44       ??_C@_07A@prvnm?4c?$AA@    00000001400bca44     oraexectask:prvnm.obj
 0002:00014a4c       ??_C@_05A@entry?$AA@       00000001400bca4c     oraexectask:prvnm.obj
 0002:00014a54       ??_C@_0CM@A@sprvn_setsockopt?5failed?5to?5set?5SO_BROADCAST?$AA@ 00000001400bca54     oraexectask:prvnm.obj
 0002:00014a80       ??_C@_0BI@A@sprvn_setsockopt?5failed?$AA@ 00000001400bca80     oraexectask:prvnm.obj
 0002:00014a98       ??_C@_0CP@A@sprvn_setsockopt?5to?5set?5IP_MULTICAST_IF?5failed?$AA@ 00000001400bca98     oraexectask:prvnm.obj
 0002:00014ac8       ??_C@_0DB@A@sprvn_setsockopt?5to?5set?5IPV6_MULTICAST_IF?5failed?$AA@ 00000001400bcac8     oraexectask:prvnm.obj
 0002:00014afc       ??_C@_0BC@A@sprvn_fork?5failed?$AA@ 00000001400bcafc     oraexectask:prvnm.obj
 0002:00014b10       ??_C@_04A@fork?$AA@        00000001400bcb10     oraexectask:prvnm.obj
 0002:00014b18       ??_C@_08A@CVU00497?$AA@    00000001400bcb18     oraexectask:prvnm.obj
 0002:00014b24       ??_C@_0BH@A@calling?5sprvn_recvfrom?$AA@ 00000001400bcb24     oraexectask:prvnm.obj
 0002:00014b3c       ??_C@_0CJ@A@sprvn_recvfrom?5failed?4?5error?5details?3?5?$CFs?$AA@ 00000001400bcb3c     oraexectask:prvnm.obj
 0002:00014b68       ??_C@_0BJ@A@received?5message?5from?5?$CFs?$AA@ 00000001400bcb68     oraexectask:prvnm.obj
 0002:00014b84       ??_C@_0BE@A@sprvn_sendto?5failed?$AA@ 00000001400bcb84     oraexectask:prvnm.obj
 0002:00014b98       ??_C@_04A@quit?$AA@        00000001400bcb98     oraexectask:prvnm.obj
 0002:00014ba0       ??_C@_0BO@A@prvnm_multicast_get_group_ips?$AA@ 00000001400bcba0     oraexectask:prvnm.obj
 0002:00014bc0       ??_C@_0CA@A@Too?5many?5peers?0?5buffer?5overflow?$AA@ 00000001400bcbc0     oraexectask:prvnm.obj
 0002:00014be0       ??_C@_0BG@A@new?5peer?5found?4?5ip?$DN?$CFs?$AA@ 00000001400bcbe0     oraexectask:prvnm.obj
 0002:00014bf8       ??_C@_0P@A@ip?$DN?$CFs?0nmsgs?$DN?$CFd?$AA@ 00000001400bcbf8     oraexectask:prvnm.obj
 0002:00014c08       ??_C@_08A@CVU00489?$AA@    00000001400bcc08     oraexectask:prvnm.obj
 0002:00014c14       ??_C@_0BG@A@sprvn_recvfrom?5failed?$AA@ 00000001400bcc14     oraexectask:prvnm.obj
 0002:00014c2c       ??_C@_0CC@A@sending?5message?5from?5interface?5?$CFs?$AA@ 00000001400bcc2c     oraexectask:prvnm.obj
 0002:00014c50       ??_C@_0CJ@A@sending?5message?5from?5interface?5?$CFs?5failed?$AA@ 00000001400bcc50     oraexectask:prvnm.obj
 0002:00014c7c       ??_C@_0O@A@bcastGroupIps?$AA@ 00000001400bcc7c     oraexectask:prvnm.obj
 0002:00014c8c       ??_C@_08A@CVU00452?$AA@    00000001400bcc8c     oraexectask:prvnm.obj
 0002:00014c98       ??_C@_0DD@A@timeout?5occured?4?5terminating?5multicast?5listener?4?4?4?$AA@ 00000001400bcc98     oraexectask:prvnm.obj
 0002:00014ccc       ??_C@_07A@prvnu?4c?$AA@    00000001400bcccc     oraexectask:prvnu.obj
 0002:00014cd4       ??_C@_0BG@A@Create?5socket?5failed?4?$AA@ 00000001400bccd4     oraexectask:prvnu.obj
 0002:00014cec       ??_C@_0BL@A@Binding?5to?5port?5?$CFd?5failed?4?$AA@ 00000001400bccec     oraexectask:prvnu.obj
 0002:00014d08       ??_C@_0CJ@A@Binding?5to?5port?5failed?0?5Port?5?$CFd?5is?5busy?4?$AA@ 00000001400bcd08     oraexectask:prvnu.obj
 0002:00014d34       ??_C@_0BA@A@sprvng_getdefgw?$AA@ 00000001400bcd34     oraexectask:sprvngcname.obj
 0002:00014d44       ??_C@_0BK@A@gateway?5buffer?5too?5small?4?$AA@ 00000001400bcd44     oraexectask:sprvngcname.obj
 0002:00014d60       ??_C@_06A@_popen?$AA@      00000001400bcd60     oraexectask:sprvngcname.obj
 0002:00014d68       ??_C@_0BB@A@Default?5Gateway?3?$AA@ 00000001400bcd68     oraexectask:sprvngcname.obj
 0002:00014d7c       ??_C@_07A@_pclose?$AA@     00000001400bcd7c     oraexectask:sprvngcname.obj
 0002:00014d84       ??_C@_05A@10430?$AA@       00000001400bcd84     oraexectask:sprvngcname.obj
 0002:00015140       ??_C@_0BA@A@string?5too?5long?$AA@ 00000001400bd140     oraexectask:prvFixupMain.obj
 0002:00015150       ??_C@_0BI@A@invalid?5string?5position?$AA@ 00000001400bd150     oraexectask:prvFixupMain.obj
 0002:00015168       ??_C@_07A@generic?$AA@     00000001400bd168     oraexectask:prvFixupMain.obj
 0002:00015170       ??_C@_0O@A@unknown?5error?$AA@ 00000001400bd170     oraexectask:prvFixupMain.obj
 0002:00015180       ??_C@_08A@iostream?$AA@    00000001400bd180     oraexectask:prvFixupMain.obj
 0002:0001518c       ??_C@_0BG@A@iostream?5stream?5error?$AA@ 00000001400bd18c     oraexectask:prvFixupMain.obj
 0002:000151a4       ??_C@_06A@system?$AA@      00000001400bd1a4     oraexectask:prvFixupMain.obj
 0002:000151ac       ??_C@_0BC@A@Main?3?3prvRunFixup?$AA@ 00000001400bd1ac     oraexectask:prvFixupMain.obj
 0002:000151c0       ??_C@_0EP@A@BEGIN?5?9?5Performing?5fix?9up?5operations?5with?5following?5input?5information?5?6?5node?5?3?$AA@ 00000001400bd1c0     oraexectask:prvFixupMain.obj
 0002:00015220       ??_C@_0BE@A@?5?6?5Work?5Directory?5?3?$AA@ 00000001400bd220     oraexectask:prvFixupMain.obj
 0002:00015234       ??_C@_0BJ@A@?6?5input?5data?5file?5path?5?3?$AA@ 00000001400bd234     oraexectask:prvFixupMain.obj
 0002:00015250       ??_C@_0BB@A@?5?6?5TRACE_LEVEL?5?3?$AA@ 00000001400bd250     oraexectask:prvFixupMain.obj
 0002:00015264       ??_C@_0BM@A@Fix?9up?5outputFile?5path?5is?5?3?$AA@ 00000001400bd264     oraexectask:prvFixupMain.obj
 0002:00015280       ??_C@_0CK@A@Fix?9up?5output?5file?5path?5is?5not?5available?4?$AA@ 00000001400bd280     oraexectask:prvFixupMain.obj
 0002:000152ac       ??_C@_0CF@A@caught?5XmlParserException?5error?5is?5?$HL?$AA@ 00000001400bd2ac     oraexectask:prvFixupMain.obj
 0002:000152d4       ??_C@_01A@?$HN?$AA@        00000001400bd2d4     oraexectask:prvFixupMain.obj
 0002:000152d8       ??_C@_0CB@A@caught?5FixupException?5error?5is?5?$HL?$AA@ 00000001400bd2d8     oraexectask:prvFixupMain.obj
 0002:000152fc       ??_C@_0CN@A@caught?5an?5Exception?5fixup?5operations?5failed?4?$AA@ 00000001400bd2fc     oraexectask:prvFixupMain.obj
 0002:0001532c       ??_C@_0P@A@cvufixupoutput?$AA@ 00000001400bd32c     oraexectask:prvFixupMain.obj
 0002:0001533c       ??_C@_04A@?4xml?$AA@       00000001400bd33c     oraexectask:prvFixupMain.obj
 0002:00015344       ??_C@_0BA@A@cvu_fixup_trace?$AA@ 00000001400bd344     oraexectask:prvFixupMain.obj
 0002:00015354       ??_C@_0N@A@?4fix_scratch?$AA@ 00000001400bd354     oraexectask:prvFixupMain.obj
 0002:00015364       ??_C@_0O@A@fixup_scratch?$AA@ 00000001400bd364     oraexectask:prvFixupMain.obj
 0002:00015374       ??_C@_0N@A@fixup_errpad?$AA@ 00000001400bd374     oraexectask:prvFixupMain.obj
 0002:00015384       ??_C@_08A@exec_log?$AA@    00000001400bd384     oraexectask:prvFixupMain.obj
 0002:00015390       ??_C@_05A@fixup?$AA@       00000001400bd390     oraexectask:prvFixupMain.obj
 0002:00015398       ??_C@_04A@Prvf?$AA@        00000001400bd398     oraexectask:prvFixupMain.obj
 0002:000153a0       ??_C@_04A@Prvg?$AA@        00000001400bd3a0     oraexectask:prvFixupMain.obj
 0002:000153a8       ??_C@_04A@Prve?$AA@        00000001400bd3a8     oraexectask:prvFixupMain.obj
 0002:000153b0       ??_C@_0CL@A@?$DM?$DPxml?5version?5?$DN?5?81?40?8?5encoding?5?$DN?5?8UTF?98?8?$DP?$DO?$AA@ 00000001400bd3b0     oraexectask:prvFixupMain.obj
 0002:000153dc       ??_C@_02A@?1?$DO?$AA@      00000001400bd3dc     oraexectask:prvFixupMain.obj
 0002:000153e0       ??_C@_0BA@A@FIXUP_TREE_ROOT?$AA@ 00000001400bd3e0     oraexectask:prvFixupMain.obj
 0002:000153f0       ??_C@_0P@A@CVU_FIXUP_ROOT?$AA@ 00000001400bd3f0     oraexectask:prvFixupMain.obj
 0002:00015400       ??_C@_09A@TASK_LIST?$AA@   00000001400bd400     oraexectask:prvFixupMain.obj
 0002:0001540c       ??_C@_04A@TASK?$AA@        00000001400bd40c     oraexectask:prvFixupMain.obj
 0002:00015414       ??_C@_0P@A@OVERALL_STATUS?$AA@ 00000001400bd414     oraexectask:prvFixupMain.obj
 0002:00015424       ??_C@_04A@NODE?$AA@        00000001400bd424     oraexectask:prvFixupMain.obj
 0002:0001542c       ??_C@_09A@NODE_LIST?$AA@   00000001400bd42c     oraexectask:prvFixupMain.obj
 0002:00015438       ??_C@_0BA@A@FIXUP_DATA_LIST?$AA@ 00000001400bd438     oraexectask:prvFixupMain.obj
 0002:00015448       ??_C@_0L@A@FIXUP_DATA?$AA@ 00000001400bd448     oraexectask:prvFixupMain.obj
 0002:00015454       ??_C@_09A@DATA_LIST?$AA@   00000001400bd454     oraexectask:prvFixupMain.obj
 0002:00015460       ??_C@_04A@DATA?$AA@        00000001400bd460     oraexectask:prvFixupMain.obj
 0002:00015468       ??_C@_0O@A@FIXUP_SCRIPTS?$AA@ 00000001400bd468     oraexectask:prvFixupMain.obj
 0002:00015478       ??_C@_06A@SCRIPT?$AA@      00000001400bd478     oraexectask:prvFixupMain.obj
 0002:00015480       ??_C@_08A@ARG_LIST?$AA@    00000001400bd480     oraexectask:prvFixupMain.obj
 0002:0001548c       ??_C@_03A@ARG?$AA@         00000001400bd48c     oraexectask:prvFixupMain.obj
 0002:00015490       ??_C@_0BC@A@FIXUP_OUTPUT_DATA?$AA@ 00000001400bd490     oraexectask:prvFixupMain.obj
 0002:000154a4       ??_C@_06A@STATUS?$AA@      00000001400bd4a4     oraexectask:prvFixupMain.obj
 0002:000154ac       ??_C@_0O@A@ERROR_DETAILS?$AA@ 00000001400bd4ac     oraexectask:prvFixupMain.obj
 0002:000154bc       ??_C@_0O@A@NATIVE_ERRORS?$AA@ 00000001400bd4bc     oraexectask:prvFixupMain.obj
 0002:000154cc       ??_C@_05A@ERROR?$AA@       00000001400bd4cc     oraexectask:prvFixupMain.obj
 0002:000154d4       ??_C@_07A@MESSAGE?$AA@     00000001400bd4d4     oraexectask:prvFixupMain.obj
 0002:000154dc       ??_C@_0L@A@NLS_ERRORS?$AA@ 00000001400bd4dc     oraexectask:prvFixupMain.obj
 0002:000154e8       ??_C@_07A@NLS_MSG?$AA@     00000001400bd4e8     oraexectask:prvFixupMain.obj
 0002:000154f0       ??_C@_0N@A@MSG_ARG_LIST?$AA@ 00000001400bd4f0     oraexectask:prvFixupMain.obj
 0002:00015500       ??_C@_07A@MSG_ARG?$AA@     00000001400bd500     oraexectask:prvFixupMain.obj
 0002:00015508       ??_C@_04A@NAME?$AA@        00000001400bd508     oraexectask:prvFixupMain.obj
 0002:00015510       ??_C@_04A@TYPE?$AA@        00000001400bd510     oraexectask:prvFixupMain.obj
 0002:00015518       ??_C@_02A@ID?$AA@          00000001400bd518     oraexectask:prvFixupMain.obj
 0002:0001551c       ??_C@_03A@VAL?$AA@         00000001400bd51c     oraexectask:prvFixupMain.obj
 0002:00015520       ??_C@_04A@PATH?$AA@        00000001400bd520     oraexectask:prvFixupMain.obj
 0002:00015528       ??_C@_03A@LOC?$AA@         00000001400bd528     oraexectask:prvFixupMain.obj
 0002:0001552c       ??_C@_04A@MODE?$AA@        00000001400bd52c     oraexectask:prvFixupMain.obj
 0002:00015534       ??_C@_03A@USR?$AA@         00000001400bd534     oraexectask:prvFixupMain.obj
 0002:00015538       ??_C@_05A@GROUP?$AA@       00000001400bd538     oraexectask:prvFixupMain.obj
 0002:00015540       ??_C@_08A@FACILITY?$AA@    00000001400bd540     oraexectask:prvFixupMain.obj
 0002:0001554c       ??_C@_0L@A@DISPLAY_ID?$AA@ 00000001400bd54c     oraexectask:prvFixupMain.obj
 0002:00015558       ??_C@_07A@ACT_VAL?$AA@     00000001400bd558     oraexectask:prvFixupMain.obj
 0002:00015560       ??_C@_07A@EXP_VAL?$AA@     00000001400bd560     oraexectask:prvFixupMain.obj
 0002:00015568       ??_C@_0L@A@SUCCESSFUL?$AA@ 00000001400bd568     oraexectask:prvFixupMain.obj
 0002:00015574       ??_C@_07A@WARNING?$AA@     00000001400bd574     oraexectask:prvFixupMain.obj
 0002:0001557c       ??_C@_06A@FAILED?$AA@      00000001400bd57c     oraexectask:prvFixupMain.obj
 0002:00015584       ??_C@_0N@A@Actual?5value?$AA@ 00000001400bd584     oraexectask:prvFixupMain.obj
 0002:00015594       ??_C@_0P@A@Expected?5value?$AA@ 00000001400bd594     oraexectask:prvFixupMain.obj
 0002:000155bc       ??_C@_0BE@A@?2?2?4?2PhysicalDrive?$CFd?$AA@ 00000001400bd5bc     oraexectask:sprvsgsi.obj
 0002:000155d0       ??_C@_08A@CVU00402?$AA@    00000001400bd5d0     oraexectask:sprvsgsi.obj
 0002:000155dc       ??_C@_0N@A@VirtualAlloc?$AA@ 00000001400bd5dc     oraexectask:sprvsgsi.obj
 0002:000155ec       ??_C@_08A@CVU00403?$AA@    00000001400bd5ec     oraexectask:sprvsgsi.obj
 0002:000155f8       ??_C@_08A@CVU00404?$AA@    00000001400bd5f8     oraexectask:sprvsgsi.obj
 0002:00015604       ??_C@_08A@CVU00405?$AA@    00000001400bd604     oraexectask:sprvsgsi.obj
 0002:00015610       ??_C@_08A@CVU00406?$AA@    00000001400bd610     oraexectask:sprvsgsi.obj
 0002:0001561c       ??_C@_08A@CVU00407?$AA@    00000001400bd61c     oraexectask:sprvsgsi.obj
 0002:00015628       ??_C@_08A@CVU00423?$AA@    00000001400bd628     oraexectask:sprvsgsi.obj
 0002:00015634       ??_C@_08A@CVU00408?$AA@    00000001400bd634     oraexectask:sprvsgsi.obj
 0002:00015640       ??_C@_08A@CVU00409?$AA@    00000001400bd640     oraexectask:sprvsgsi.obj
 0002:0001564c       ??_C@_08A@CVU00410?$AA@    00000001400bd64c     oraexectask:sprvsgsi.obj
 0002:00015658       ??_C@_07A@?$DM?$CFs?0?$CFd?$DO?$AA@ 00000001400bd658     oraexectask:sprvsgsi.obj
 0002:00015660       ??_C@_08A@NUMDISKS?$AA@    00000001400bd660     oraexectask:sprvsgsi.obj
 0002:0001566c       ??_C@_04A@?$DM?$CFs?$DO?$AA@ 00000001400bd66c     oraexectask:sprvsgsi.obj
 0002:00015674       ??_C@_0N@A@DISKNOTFOUND?$AA@ 00000001400bd674     oraexectask:sprvsgsi.obj
 0002:00015684       ??_C@_09A@DISKBEGIN?$AA@   00000001400bd684     oraexectask:sprvsgsi.obj
 0002:00015690       ??_C@_07A@?$DM?$CFs?0?$CFu?$DO?$AA@ 00000001400bd690     oraexectask:sprvsgsi.obj
 0002:00015698       ??_C@_0L@A@?$DM?$CFs?0?$CFI64d?$DO?$AA@ 00000001400bd698     oraexectask:sprvsgsi.obj
 0002:000156a4       ??_C@_08A@DISKSIZE?$AA@    00000001400bd6a4     oraexectask:sprvsgsi.obj
 0002:000156b0       ??_C@_08A@NUMPARTS?$AA@    00000001400bd6b0     oraexectask:sprvsgsi.obj
 0002:000156bc       ??_C@_0M@A@VOLUMEBEGIN?$AA@ 00000001400bd6bc     oraexectask:sprvsgsi.obj
 0002:000156c8       ??_C@_07A@?$DM?$CFs?0?$CFs?$DO?$AA@ 00000001400bd6c8     oraexectask:sprvsgsi.obj
 0002:000156d0       ??_C@_0L@A@FILESYSTEM?$AA@ 00000001400bd6d0     oraexectask:sprvsgsi.obj
 0002:000156dc       ??_C@_06A@NUMVLR?$AA@      00000001400bd6dc     oraexectask:sprvsgsi.obj
 0002:000156e4       ??_C@_08A@VLRBEGIN?$AA@    00000001400bd6e4     oraexectask:sprvsgsi.obj
 0002:000156f0       ??_C@_03A@VLR?$AA@         00000001400bd6f0     oraexectask:sprvsgsi.obj
 0002:000156f4       ??_C@_06A@VLREND?$AA@      00000001400bd6f4     oraexectask:sprvsgsi.obj
 0002:000156fc       ??_C@_09A@VOLUMEEND?$AA@   00000001400bd6fc     oraexectask:sprvsgsi.obj
 0002:00015708       ??_C@_0L@A@DISK_STATE?$AA@ 00000001400bd708     oraexectask:sprvsgsi.obj
 0002:00015714       ??_C@_0M@A@DISK_ONLINE?$AA@ 00000001400bd714     oraexectask:sprvsgsi.obj
 0002:00015720       ??_C@_0N@A@DISK_OFFLINE?$AA@ 00000001400bd720     oraexectask:sprvsgsi.obj
 0002:00015730       ??_C@_07A@DISKEND?$AA@     00000001400bd730     oraexectask:sprvsgsi.obj
 0002:00015738       ??_C@_02A@?$CFu?$AA@       00000001400bd738     oraexectask:sprvsgsi.obj
 0002:0001573c       ??_C@_0BA@A@PhysicalDrive?$CFd?$AA@ 00000001400bd73c     oraexectask:sprvsgsi.obj
 0002:0001574c       ??_C@_04A@9406?$AA@        00000001400bd74c     oraexectask:sprvsgsi.obj
 0002:00015754       ??_C@_08A@CVU00362?$AA@    00000001400bd754     oraexectask:sprvsgsi.obj
 0002:00015760       ??_C@_08A@CVU00367?$AA@    00000001400bd760     oraexectask:sprvsgsi.obj
 0002:0001576c       ??_C@_08A@CVU00424?$AA@    00000001400bd76c     oraexectask:sprvsgsi.obj
 0002:00015778       ??_C@_06A@FSNAME?$AA@      00000001400bd778     oraexectask:sprvsgsi.obj
 0002:00015780       ??_C@_05A@?$DM?1?$CFs?$DO?$AA@ 00000001400bd780     oraexectask:sprvsgsi.obj
 0002:00015788       ??_C@_07A@FSBFREE?$AA@     00000001400bd788     oraexectask:sprvsgsi.obj
 0002:00015790       ??_C@_08A@FSBAVAIL?$AA@    00000001400bd790     oraexectask:sprvsgsi.obj
 0002:0001579c       ??_C@_06A@socket?$AA@      00000001400bd79c     oraexectask:sprvn.obj
 0002:000157a4       ??_C@_08A@CVU00365?$AA@    00000001400bd7a4     oraexectask:sprvn.obj
 0002:000157b0       ??_C@_08A@CVU00324?$AA@    00000001400bd7b0     oraexectask:sprvn.obj
 0002:000157bc       ??_C@_07A@sprvn?4c?$AA@    00000001400bd7bc     oraexectask:sprvn.obj
 0002:000157c4       ??_C@_0BM@A@error?5from?5closesocket?5?3?5?$CFs?$AA@ 00000001400bd7c4     oraexectask:sprvn.obj
 0002:000157e0       ??_C@_0M@A@closesocket?$AA@ 00000001400bd7e0     oraexectask:sprvn.obj
 0002:000157ec       ??_C@_08A@CVU00315?$AA@    00000001400bd7ec     oraexectask:sprvn.obj
 0002:000157f8       ??_C@_0BB@A@sprvnBindAddress?$AA@ 00000001400bd7f8     oraexectask:sprvn.obj
 0002:0001580c       ??_C@_0O@A@sprvnRecvfrom?$AA@ 00000001400bd80c     oraexectask:sprvn.obj
 0002:0001581c       ??_C@_08A@recvfrom?$AA@    00000001400bd81c     oraexectask:sprvn.obj
 0002:00015828       ??_C@_0M@A@sprvnSendto?$AA@ 00000001400bd828     oraexectask:sprvn.obj
 0002:00015834       ??_C@_0BA@A@sprvnSetsockopt?$AA@ 00000001400bd834     oraexectask:sprvn.obj
 0002:00015844       ??_C@_0M@A@sprvnSelect?$AA@ 00000001400bd844     oraexectask:sprvn.obj
 0002:00015850       ??_C@_08A@CVU00325?$AA@    00000001400bd850     oraexectask:sprvn.obj
 0002:0001585c       ??_C@_0N@A@CreateThread?$AA@ 00000001400bd85c     oraexectask:sprvn.obj
 0002:0001586c       ??_C@_0CK@A@CreateThread?5returned?5errno?$DN?$CFd?0?5errMsg?$DN?$CFs?$AA@ 00000001400bd86c     oraexectask:sprvn.obj
 0002:00015898       ??_C@_0N@A@sprvnSendmsg?$AA@ 00000001400bd898     oraexectask:sprvn.obj
 0002:000158a8       ??_C@_0DA@A@getaddrinfo?5failed?5with?5errCode?$DN?$CFd?4?5and?5mesg?$DN?$CFs?$AA@ 00000001400bd8a8     oraexectask:sprvn.obj
 0002:000158d8       ??_C@_08A@CVU00317?$AA@    00000001400bd8d8     oraexectask:sprvn.obj
 0002:000158e4       ??_C@_0M@A@getsockname?$AA@ 00000001400bd8e4     oraexectask:sprvn.obj
 0002:000158f0       ??_C@_08A@CVU00318?$AA@    00000001400bd8f0     oraexectask:sprvn.obj
 0002:000158fc       ??_C@_0P@A@sa_family?5?$DN?5?$CFd?$AA@ 00000001400bd8fc     oraexectask:sprvn.obj
 0002:0001590c       ??_C@_0CD@A@error?5from?5WSAAddressToString?5?3?5?$CFs?$AA@ 00000001400bd90c     oraexectask:sprvn.obj
 0002:00015930       ??_C@_08A@CVU00319?$AA@    00000001400bd930     oraexectask:sprvn.obj
 0002:0001593c       ??_C@_0BG@A@error?5from?5listen?3?5?$CFs?$AA@ 00000001400bd93c     oraexectask:sprvn.obj
 0002:00015954       ??_C@_06A@listen?$AA@      00000001400bd954     oraexectask:sprvn.obj
 0002:0001595c       ??_C@_08A@CVU00320?$AA@    00000001400bd95c     oraexectask:sprvn.obj
 0002:00015968       ??_C@_0BG@A@error?5from?5accept?3?5?$CFs?$AA@ 00000001400bd968     oraexectask:sprvn.obj
 0002:00015980       ??_C@_06A@accept?$AA@      00000001400bd980     oraexectask:sprvn.obj
 0002:00015988       ??_C@_08A@CVU00321?$AA@    00000001400bd988     oraexectask:sprvn.obj
 0002:00015994       ??_C@_0BH@A@error?5from?5connect?3?5?$CFs?$AA@ 00000001400bd994     oraexectask:sprvn.obj
 0002:000159ac       ??_C@_08A@CVU00322?$AA@    00000001400bd9ac     oraexectask:sprvn.obj
 0002:000159b8       ??_C@_0BE@A@error?5from?5recv?3?5?$CFs?$AA@ 00000001400bd9b8     oraexectask:sprvn.obj
 0002:000159cc       ??_C@_08A@CVU00323?$AA@    00000001400bd9cc     oraexectask:sprvn.obj
 0002:000159d8       ??_C@_0BE@A@error?5from?5send?3?5?$CFs?$AA@ 00000001400bd9d8     oraexectask:sprvn.obj
 0002:000159ec       ??_C@_04A@send?$AA@        00000001400bd9ec     oraexectask:sprvn.obj
 0002:00015d60       ??_C@_0CD@A@exectask?5?9getIfInfo?5?9nicBindOrder?5?$AA@ 00000001400bdd60     oraexectask:ssprvn.obj
 0002:00015d84       ??_C@_0N@A@prvfexallocm?$AA@ 00000001400bdd84     oraexectask:ssprvn.obj
 0002:00015d94       ??_C@_0BH@A@ssprvn_getNICBindOrder?$AA@ 00000001400bdd94     oraexectask:ssprvn.obj
 0002:00015dac       ??_C@_07A@?$DMNIC?$DO?0?5?$AA@ 00000001400bddac     oraexectask:ssprvn.obj
 0002:00015db4       ??_C@_07A@?5?$DM?1NIC?$DO?$AA@ 00000001400bddb4     oraexectask:ssprvn.obj
 0002:00015dbc       ??_C@_0L@A@?$DMIPV4?0?5?$DO?0?5?$AA@ 00000001400bddbc     oraexectask:ssprvn.obj
 0002:00015dc8       ??_C@_0L@A@?$DMIPV6?0?5?$DO?0?5?$AA@ 00000001400bddc8     oraexectask:ssprvn.obj
 0002:00015dd4       ??_C@_0N@A@?0?5?$DMMETRIC?0?5?$DO?$AA@ 00000001400bddd4     oraexectask:ssprvn.obj
 0002:00015de4       ??_C@_05A@?$DMNIC?$DO?$AA@ 00000001400bdde4     oraexectask:ssprvn.obj
 0002:00015dec       ??_C@_0CO@A@?$CFs?0?5?$CFs?0?5?$DMIPV4?0?5?$CFs?$DO?0?5?$DMIPV6?0?5?$CFs?$DO?0?5?$DMMETRIC?0?5?$CFlu?$DO?$AA@ 00000001400bddec     oraexectask:ssprvn.obj
 0002:00015e1c       ??_C@_06A@?$DM?1NIC?$DO?$AA@ 00000001400bde1c     oraexectask:ssprvn.obj
 0002:00015e24       ??_C@_09A@ipmi_init?$AA@   00000001400bde24     oraexectask:sprvni.obj
 0002:00015e30       ??_C@_09A@ipmi_send?$AA@   00000001400bde30     oraexectask:sprvni.obj
 0002:00016068       ??_C@_01A@_?$AA@           00000001400be068     oraexectask:prvFixupConstants.obj
 0002:0001606c       ??_C@_04A@1234?$AA@        00000001400be06c     oraexectask:prvFixupConstants.obj
 0002:000160e0       ??_C@_08A@bad?5cast?$AA@   00000001400be0e0     oraexectask:prvFixupTrace.obj
 0002:000160ec       ??_C@_03A@?5?9?5?$AA@      00000001400be0ec     oraexectask:prvFixupTrace.obj
 0002:000160f0       ??_C@_0BG@A@cvu_fixup_trace_0?4log?$AA@ 00000001400be0f0     oraexectask:prvFixupTrace.obj
 0002:000168a0       ??_C@_0BD@A@vector?$DMT?$DO?5too?5long?$AA@ 00000001400be8a0     oraexectask:sprvFixupUtility.obj
 0002:000168b4       ??_C@_0BM@A@invalid?5vector?$DMT?$DO?5subscript?$AA@ 00000001400be8b4     oraexectask:sprvFixupUtility.obj
 0002:000168d0       ??_C@_0BL@A@sFixupUtil?3?3readScratchPad?$AA@ 00000001400be8d0     oraexectask:sprvFixupUtility.obj
 0002:000168ec       ??_C@_0CB@A@Failed?5to?5open?5scratch?5pad?5file?5?$AA@ 00000001400be8ec     oraexectask:sprvFixupUtility.obj
 0002:00016910       ??_C@_0BJ@A@sFixupUtil?3?3readErrorPad?$AA@ 00000001400be910     oraexectask:sprvFixupUtility.obj
 0002:0001692c       ??_C@_02A@?5?$DO?$AA@      00000001400be92c     oraexectask:sprvFixupUtility.obj
 0002:00016930       ??_C@_0N@A@?52?$DO?1dev?1null?$AA@ 00000001400be930     oraexectask:sprvFixupUtility.obj
 0002:00016940       ??_C@_03A@?52?$DO?$AA@     00000001400be940     oraexectask:sprvFixupUtility.obj
 0002:00016944       ??_C@_0BP@A@sFixupUtil?3?3runCommandInternal?$AA@ 00000001400be944     oraexectask:sprvFixupUtility.obj
 0002:00016964       ??_C@_0BD@A@Executing?5command?5?$AA@ 00000001400be964     oraexectask:sprvFixupUtility.obj
 0002:00016978       ??_C@_0P@A@Exit?5code?5is?5?5?$AA@ 00000001400be978     oraexectask:sprvFixupUtility.obj
 0002:00016988       ??_C@_0BH@A@sFixupUtil?3?3runCommand?$AA@ 00000001400be988     oraexectask:sprvFixupUtility.obj
 0002:000169a0       ??_C@_0BO@A@Setting?5environment?5variable?5?$AA@ 00000001400be9a0     oraexectask:sprvFixupUtility.obj
 0002:000169c0       ??_C@_0CI@A@Failed?5to?5Set?5the?5environment?5variable?5?$AA@ 00000001400be9c0     oraexectask:sprvFixupUtility.obj
 0002:000169e8       ??_C@_0BE@A@?5Failed?5with?5error?5?$AA@ 00000001400be9e8     oraexectask:sprvFixupUtility.obj
 0002:000169fc       ??_C@_0CL@A@Successfully?5set?5the?5environment?5variable?5?$AA@ 00000001400be9fc     oraexectask:sprvFixupUtility.obj
 0002:00016a28       ??_C@_0CA@A@Calling?5runCommandInternal?5for?5?$AA@ 00000001400bea28     oraexectask:sprvFixupUtility.obj
 0002:00016a48       ??_C@_0CH@A@Exit?5code?5from?5runCommandInternal?5is?5?5?$AA@ 00000001400bea48     oraexectask:sprvFixupUtility.obj
 0002:00016a70       ??_C@_01A@?$CI?$AA@        00000001400bea70     oraexectask:sprvFixupUtility.obj
 0002:00016a74       ??_C@_01A@?$CJ?$AA@        00000001400bea74     oraexectask:sprvFixupUtility.obj
 0002:00016a78       ??_C@_0BD@A@sFixupUtil?3?3runExe?$AA@ 00000001400bea78     oraexectask:sprvFixupUtility.obj
 0002:00016a8c       ??_C@_0CH@A@sFixupUtil?3?3addScriptTracesToTraceFile?$AA@ 00000001400bea8c     oraexectask:sprvFixupUtility.obj
 0002:00016ab4       ??_C@_0CC@A@Failed?5to?5open?5script?5trace?5file?5?$AA@ 00000001400beab4     oraexectask:sprvFixupUtility.obj
 0002:00016ad8       ??_C@_0CH@A@Adding?5trace?5from?5execution?5of?5script?5?$AA@ 00000001400bead8     oraexectask:sprvFixupUtility.obj
 0002:00016b00       ??_C@_0BP@A@sFixupUtil?3?3deleteFileIfExists?$AA@ 00000001400beb00     oraexectask:sprvFixupUtility.obj
 0002:00016b20       ??_C@_0P@A@Deleting?5file?5?$AA@ 00000001400beb20     oraexectask:sprvFixupUtility.obj
 0002:00016b40       ??_C@_0EB@A@Failed?5to?5obtain?5the?5current?5working?5directory?5path?5error?5no?5is?5?$AA@ 00000001400beb40     oraexectask:sprvFixupUtility.obj
 0002:00016ba0       ??_C@_0BP@A@sFixupUtil?3?3checkFileExistence?$AA@ 00000001400beba0     oraexectask:sprvFixupUtility.obj
 0002:00016bc0       ??_C@_0BM@A@Checking?5existence?5of?5file?5?$AA@ 00000001400bebc0     oraexectask:sprvFixupUtility.obj
 0002:00016bdc       ??_C@_0L@A@?5not?5found?$AA@ 00000001400bebdc     oraexectask:sprvFixupUtility.obj
 0002:00016be8       ??_C@_07A@?5exists?$AA@    00000001400bebe8     oraexectask:sprvFixupUtility.obj
 0002:00016bf0       ??_C@_0CE@A@sFixupUtil?3?3checkDirectoryExistence?$AA@ 00000001400bebf0     oraexectask:sprvFixupUtility.obj
 0002:00016c14       ??_C@_0CB@A@Checking?5existence?5of?5directory?5?$AA@ 00000001400bec14     oraexectask:sprvFixupUtility.obj
 0002:00016c38       ??_C@_0BA@A@?5does?5not?5exist?$AA@ 00000001400bec38     oraexectask:sprvFixupUtility.obj
 0002:00016c48       ??_C@_06A@RMDIR?5?$AA@     00000001400bec48     oraexectask:sprvFixupUtility.obj
 0002:00016c50       ??_C@_06A@?5?1S?5?1Q?$AA@  00000001400bec50     oraexectask:sprvFixupUtility.obj
 0002:00016c60       ??_C@_0ED@A@disposeScratchPad?$CI?$CJ?5?9?5Failed?5to?5cleanup?5the?5scratch?5pad?5directory?5?$AA@ 00000001400bec60     oraexectask:sprvFixupUtility.obj
 0002:00016cc0       ??_C@_0L@A@?5errno?5is?5?$AA@ 00000001400becc0     oraexectask:sprvFixupUtility.obj
 0002:00016ccc       ??_C@_0BL@A@sFixupUtil?3?3initScratchPad?$AA@ 00000001400beccc     oraexectask:sprvFixupUtility.obj
 0002:00016ce8       ??_C@_0BJ@A@initializing?5scratch?5pad?$AA@ 00000001400bece8     oraexectask:sprvFixupUtility.obj
 0002:00016d20       ??_C@_0FM@A@initScratchPad?$CI?$CJ?5?9?5Failed?5to?5initialize?0?5scratch?5directory?5could?5not?5be?5created?5error?5code?5?$AA@ 00000001400bed20     oraexectask:sprvFixupUtility.obj
 0002:00016d80       ??_C@_04A@true?$AA@        00000001400bed80     oraexectask:sprvFixupUtility.obj
 0002:00016d88       ??_C@_05A@false?$AA@       00000001400bed88     oraexectask:sprvFixupUtility.obj
 0002:00016d90       ??_C@_0BE@A@parseStringToLong?$CI?$CJ?$AA@ 00000001400bed90     oraexectask:sprvFixupUtility.obj
 0002:00016da4       ??_C@_0BO@A@Failed?5to?5parse?5input?5string?5?$AA@ 00000001400beda4     oraexectask:sprvFixupUtility.obj
 0002:00016dc4       ??_C@_0CI@A@?5as?5long?5integer?4?5Throwing?5an?5exception?$AA@ 00000001400bedc4     oraexectask:sprvFixupUtility.obj
 0002:00016dec       ??_C@_0BJ@A@Failed?5to?5parse?5string?5?8?$AA@ 00000001400bedec     oraexectask:sprvFixupUtility.obj
 0002:00016e08       ??_C@_0BD@A@?8?5to?5long?5integer?4?$AA@ 00000001400bee08     oraexectask:sprvFixupUtility.obj
 0002:00016e1c       ??_C@_0BM@A@parseStringToUnsignedLong?$CI?$CJ?$AA@ 00000001400bee1c     oraexectask:sprvFixupUtility.obj
 0002:00016e38       ??_C@_0DB@A@?5as?5unsigned?5long?5integer?4?5Throwing?5an?5exception?$AA@ 00000001400bee38     oraexectask:sprvFixupUtility.obj
 0002:00016e6c       ??_C@_0BM@A@?8?5to?5unsigned?5long?5integer?4?$AA@ 00000001400bee6c     oraexectask:sprvFixupUtility.obj
 0002:00016e88       ??_C@_0BG@A@parseStringToDouble?$CI?$CJ?$AA@ 00000001400bee88     oraexectask:sprvFixupUtility.obj
 0002:00016ea0       ??_C@_0CC@A@?5as?5double?4?5Throwing?5an?5exception?$AA@ 00000001400beea0     oraexectask:sprvFixupUtility.obj
 0002:00016ec4       ??_C@_0N@A@?8?5to?5double?4?$AA@ 00000001400beec4     oraexectask:sprvFixupUtility.obj
 0002:00016ed4       ??_C@_03A@0?40?$AA@        00000001400beed4     oraexectask:sprvFixupUtility.obj
 0002:000177e0       ??_C@_0BO@A@FixupUtil?3?3splitStringByDelim?$AA@ 00000001400bf7e0     oraexectask:prvFixupUtility.obj
 0002:00017800       ??_C@_0M@A@Splitting?5?3?$AA@ 00000001400bf800     oraexectask:prvFixupUtility.obj
 0002:0001780c       ??_C@_0BB@A@?5for?5delimiter?5?$CI?$AA@ 00000001400bf80c     oraexectask:prvFixupUtility.obj
 0002:00017820       ??_C@_0CL@A@No?5delimiter?5found?0?5Added?5input?5as?5token?5?3?$AA@ 00000001400bf820     oraexectask:prvFixupUtility.obj
 0002:0001784c       ??_C@_0O@A@Added?5token?5?3?$AA@ 00000001400bf84c     oraexectask:prvFixupUtility.obj
 0002:0001785c       ??_C@_0BI@A@Returning?5list?5of?5size?3?$AA@ 00000001400bf85c     oraexectask:prvFixupUtility.obj
 0002:00017874       ??_C@_0BP@A@FixupUtil?3?3splitStringBySpaces?$AA@ 00000001400bf874     oraexectask:prvFixupUtility.obj
 0002:00017894       ??_C@_0BC@A@?5for?5white?5spaces?$AA@ 00000001400bf894     oraexectask:prvFixupUtility.obj
 0002:000178a8       ??_C@_02A@?5?7?$AA@        00000001400bf8a8     oraexectask:prvFixupUtility.obj
 0002:000178ac       ??_C@_0M@A@Splitting?5?$CI?$AA@ 00000001400bf8ac     oraexectask:prvFixupUtility.obj
 0002:000178b8       ??_C@_01A@?$CC?$AA@        00000001400bf8b8     oraexectask:prvFixupUtility.obj
 0002:000178bc       ??_C@_0O@A@Adding?5Token?$CI?$AA@ 00000001400bf8bc     oraexectask:prvFixupUtility.obj
 0002:000178cc       ??_C@_0M@A@NodeName?5?3?5?$AA@ 00000001400bf8cc     oraexectask:prvFixupUtility.obj
 0002:000178d8       ??_C@_0N@A@NodeValue?5?3?5?$AA@ 00000001400bf8d8     oraexectask:prvFixupUtility.obj
 0002:000178e8       ??_C@_0BE@A@?$DN?5Attribute?5List?5?$DN?5?$AA@ 00000001400bf8e8     oraexectask:prvFixupUtility.obj
 0002:000178fc       ??_C@_01A@?$DN?$AA@        00000001400bf8fc     oraexectask:prvFixupUtility.obj
 0002:00017900       ??_C@_0BE@A@REVERSE_PATH_FILTER?$AA@ 00000001400bf900     oraexectask:prvFixupUtility.obj
 0002:00017914       ??_C@_0BB@A@CHECK_DAX_ACCESS?$AA@ 00000001400bf914     oraexectask:prvFixupUtility.obj
 0002:00017928       ??_C@_0O@A@MEMLOCK_LIMIT?$AA@ 00000001400bf928     oraexectask:prvFixupUtility.obj
 0002:00017938       ??_C@_0P@A@MAX_LOCKED_MEM?$AA@ 00000001400bf938     oraexectask:prvFixupUtility.obj
 0002:00017948       ??_C@_0BD@A@CHECK_GSD_RESOURCE?$AA@ 00000001400bf948     oraexectask:prvFixupUtility.obj
 0002:0001795c       ??_C@_0BC@A@ENABLED_HUGE_PAGE?$AA@ 00000001400bf95c     oraexectask:prvFixupUtility.obj
 0002:00017970       ??_C@_0BC@A@CHECK_IOCP_STATUS?$AA@ 00000001400bf970     oraexectask:prvFixupUtility.obj
 0002:00017984       ??_C@_0P@A@CHECK_ZEROCONF?$AA@ 00000001400bf984     oraexectask:prvFixupUtility.obj
 0002:00017994       ??_C@_0BH@A@STASKCHECKIPMPSETTINGS?$AA@ 00000001400bf994     oraexectask:prvFixupUtility.obj
 0002:000179ac       ??_C@_0BI@A@STASKDEVICEFILESETTINGS?$AA@ 00000001400bf9ac     oraexectask:prvFixupUtility.obj
 0002:000179c4       ??_C@_0BF@A@TASKDAEMONNOTRUNNING?$AA@ 00000001400bf9c4     oraexectask:prvFixupUtility.obj
 0002:000179dc       ??_C@_0BF@A@TASKDAEMONLIVELINESS?$AA@ 00000001400bf9dc     oraexectask:prvFixupUtility.obj
 0002:000179f4       ??_C@_0BD@A@TASKUSERNOTINGROUP?$AA@ 00000001400bf9f4     oraexectask:prvFixupUtility.obj
 0002:00017a08       ??_C@_0N@A@TASKUSERMASK?$AA@ 00000001400bfa08     oraexectask:prvFixupUtility.obj
 0002:00017a18       ??_C@_0BC@A@TASKUSEREXISTENCE?$AA@ 00000001400bfa18     oraexectask:prvFixupUtility.obj
 0002:00017a2c       ??_C@_0N@A@TASKRUNLEVEL?$AA@ 00000001400bfa2c     oraexectask:prvFixupUtility.obj
 0002:00017a3c       ??_C@_0N@A@TASKPINNODES?$AA@ 00000001400bfa3c     oraexectask:prvFixupUtility.obj
 0002:00017a4c       ??_C@_0M@A@TASKPACKAGE?$AA@ 00000001400bfa4c     oraexectask:prvFixupUtility.obj
 0002:00017a58       ??_C@_0BD@A@TASKGROUPEXISTENCE?$AA@ 00000001400bfa58     oraexectask:prvFixupUtility.obj
 0002:00017a6c       ??_C@_0BE@A@TASKGROUPMEMBERSHIP?$AA@ 00000001400bfa6c     oraexectask:prvFixupUtility.obj
 0002:00017a80       ??_C@_0BA@A@TASKKERNELPARAM?$AA@ 00000001400bfa80     oraexectask:prvFixupUtility.obj
 0002:00017a90       ??_C@_0BA@A@TASKSHELLLIMITS?$AA@ 00000001400bfa90     oraexectask:prvFixupUtility.obj
 0002:00017aa0       ??_C@_05A@PLSQL?$AA@       00000001400bfaa0     oraexectask:prvFixupUtility.obj
 0002:00017aa8       ??_C@_03A@SQL?$AA@         00000001400bfaa8     oraexectask:prvFixupUtility.obj
 0002:00017aac       ??_C@_05A@BATCH?$AA@       00000001400bfaac     oraexectask:prvFixupUtility.obj
 0002:00017ab4       ??_C@_04A@PERL?$AA@        00000001400bfab4     oraexectask:prvFixupUtility.obj
 0002:00017abc       ??_C@_05A@SHELL?$AA@       00000001400bfabc     oraexectask:prvFixupUtility.obj
 0002:00017ac4       ??_C@_0CH@A@FixupUtil?3?3updateEntryInsideConfigFile?$AA@ 00000001400bfac4     oraexectask:prvFixupUtility.obj
 0002:00017aec       ??_C@_05A@ENTRY?$AA@       00000001400bfaec     oraexectask:prvFixupUtility.obj
 0002:00017af4       ??_C@_0DP@A@Could?5not?5open?5file?0?5Failed?5to?5read?5the?5param?5value?5from?5file?5?$AA@ 00000001400bfaf4     oraexectask:prvFixupUtility.obj
 0002:00017b34       ??_C@_0CG@A@Checking?5line?5starting?5with?5pattern?5?8?$AA@ 00000001400bfb34     oraexectask:prvFixupUtility.obj
 0002:00017b5c       ??_C@_0L@A@?8?5at?5line?$DN?$AA@ 00000001400bfb5c     oraexectask:prvFixupUtility.obj
 0002:00017b68       ??_C@_0CG@A@Found?5exact?5matching?5line?5at?5number?3?5?$AA@ 00000001400bfb68     oraexectask:prvFixupUtility.obj
 0002:00017b90       ??_C@_0CF@A@Commenting?5matching?5record?5at?5line?5?$CI?$AA@ 00000001400bfb90     oraexectask:prvFixupUtility.obj
 0002:00017bb8       ??_C@_03A@?$CJ?3?5?$AA@    00000001400bfbb8     oraexectask:prvFixupUtility.obj
 0002:00017bbc       ??_C@_0BD@A@After?5Commenting?5?8?$AA@ 00000001400bfbbc     oraexectask:prvFixupUtility.obj
 0002:00017bd0       ??_C@_0M@A@?8?5value?5in?5?$AA@ 00000001400bfbd0     oraexectask:prvFixupUtility.obj
 0002:00017bdc       ??_C@_0BC@A@?5at?5line?5became?3?5?$AA@ 00000001400bfbdc     oraexectask:prvFixupUtility.obj
 0002:00017bf0       ??_C@_0BK@A@Value?5in?5config?5file?5is?5?$CI?$AA@ 00000001400bfbf0     oraexectask:prvFixupUtility.obj
 0002:00017c0c       ??_C@_0CE@A@No?5update?5required?0?5Current?5value?5?8?$AA@ 00000001400bfc0c     oraexectask:prvFixupUtility.obj
 0002:00017c30       ??_C@_0CJ@A@?8?5is?5already?5same?5as?5the?5expected?5value?5?$AA@ 00000001400bfc30     oraexectask:prvFixupUtility.obj
 0002:00017c5c       ??_C@_0CD@A@Updating?5matching?5record?5at?5line?5?$CI?$AA@ 00000001400bfc5c     oraexectask:prvFixupUtility.obj
 0002:00017c80       ??_C@_0BB@A@After?5Updating?5?8?$AA@ 00000001400bfc80     oraexectask:prvFixupUtility.obj
 0002:00017c94       ??_C@_01A@?$CD?$AA@        00000001400bfc94     oraexectask:prvFixupUtility.obj
 0002:00017c98       ??_C@_0BP@A@No?5existing?5record?5found?5for?5?8?$AA@ 00000001400bfc98     oraexectask:prvFixupUtility.obj
 0002:00017cb8       ??_C@_0BN@A@?8?5inside?5specified?5conf?5file?$AA@ 00000001400bfcb8     oraexectask:prvFixupUtility.obj
 0002:00017cd8       ??_C@_0BJ@A@?$CD?5Recommended?5value?5for?5?$AA@ 00000001400bfcd8     oraexectask:prvFixupUtility.obj
 0002:00017cf4       ??_C@_0BK@A@Entering?5new?5record?5for?5?8?$AA@ 00000001400bfcf4     oraexectask:prvFixupUtility.obj
 0002:00017d10       ??_C@_0BM@A@?8?5inside?5specified?5file?5as?5?$AA@ 00000001400bfd10     oraexectask:prvFixupUtility.obj
 0002:00017d2c       ??_C@_04A@EXIT?$AA@        00000001400bfd2c     oraexectask:prvFixupUtility.obj
 0002:00017d34       ??_C@_09A@?$DMNLS_MSG?$DO?$AA@ 00000001400bfd34     oraexectask:prvFixupUtility.obj
 0002:00017d40       ??_C@_0BA@A@?$DMDISP_FACILITY?$DO?$AA@ 00000001400bfd40     oraexectask:prvFixupUtility.obj
 0002:00017d50       ??_C@_0BB@A@?$DM?1DISP_FACILITY?$DO?$AA@ 00000001400bfd50     oraexectask:prvFixupUtility.obj
 0002:00017d64       ??_C@_0L@A@?$DMMSG_DATA?$DO?$AA@ 00000001400bfd64     oraexectask:prvFixupUtility.obj
 0002:00017d70       ??_C@_06A@?$DMDATA?$DO?$AA@ 00000001400bfd70     oraexectask:prvFixupUtility.obj
 0002:00017d78       ??_C@_07A@?$DM?1DATA?$DO?$AA@ 00000001400bfd78     oraexectask:prvFixupUtility.obj
 0002:00017d80       ??_C@_0M@A@?$DM?1MSG_DATA?$DO?$AA@ 00000001400bfd80     oraexectask:prvFixupUtility.obj
 0002:00017d8c       ??_C@_0L@A@?$DM?1NLS_MSG?$DO?$AA@ 00000001400bfd8c     oraexectask:prvFixupUtility.obj
 0002:00017d98       ??_C@_0BL@A@FixupUtil?3?3createDirectory?$AA@ 00000001400bfd98     oraexectask:prvFixupUtility.obj
 0002:00017db4       ??_C@_0BE@A@Creating?5directory?5?$AA@ 00000001400bfdb4     oraexectask:prvFixupUtility.obj
 0002:00017dc8       ??_C@_0BO@A@FixupUtil?3?3checkFileExistence?$AA@ 00000001400bfdc8     oraexectask:prvFixupUtility.obj
 0002:00017de8       ??_C@_0CD@A@FixupUtil?3?3checkDirectoryExistence?$AA@ 00000001400bfde8     oraexectask:prvFixupUtility.obj
 0002:00017e0c       ??_C@_0BM@A@FixupUtil?3?3compareHostnames?$AA@ 00000001400bfe0c     oraexectask:prvFixupUtility.obj
 0002:00017e28       ??_C@_0N@A@hostName1?5?$DN?5?$AA@ 00000001400bfe28     oraexectask:prvFixupUtility.obj
 0002:00017e38       ??_C@_0N@A@hostName2?5?$DN?5?$AA@ 00000001400bfe38     oraexectask:prvFixupUtility.obj
 0002:00017e48       ??_C@_0BE@A@Lengths?5DONOT?5match?$AA@ 00000001400bfe48     oraexectask:prvFixupUtility.obj
 0002:00017e5c       ??_C@_0O@A@Lengths?5MATCH?$AA@ 00000001400bfe5c     oraexectask:prvFixupUtility.obj
 0002:00017e6c       ??_C@_0BA@A@Returning?5FALSE?$AA@ 00000001400bfe6c     oraexectask:prvFixupUtility.obj
 0002:00017e7c       ??_C@_0P@A@Returning?5TRUE?$AA@ 00000001400bfe7c     oraexectask:prvFixupUtility.obj
 0002:00017e8c       ??_C@_0BE@A@FixupUtil?3?3copyFile?$AA@ 00000001400bfe8c     oraexectask:prvFixupUtility.obj
 0002:00017ea0       ??_C@_0CA@A@Failed?5to?5open?5the?5source?5file?5?$AA@ 00000001400bfea0     oraexectask:prvFixupUtility.obj
 0002:00017ec0       ??_C@_0CO@A@Failed?5to?5create?5the?5target?5file?5at?5location?5?$AA@ 00000001400bfec0     oraexectask:prvFixupUtility.obj
 0002:00017ef0       ??_C@_0CB@A@Successfully?5copied?5source?5file?5?$AA@ 00000001400bfef0     oraexectask:prvFixupUtility.obj
 0002:00017f14       ??_C@_0BL@A@?5contents?5to?5tareget?5file?5?$AA@ 00000001400bff14     oraexectask:prvFixupUtility.obj
 0002:00018078       ??_C@_0BN@A@NativeHandler?3?3getInstance?$CI?$CJ?$AA@ 00000001400c0078     oraexectask:prvFixupHandler.obj
 0002:00018098       ??_C@_0CG@A@Instance?5does?5not?5exists?5creating?5one?$AA@ 00000001400c0098     oraexectask:prvFixupHandler.obj
 0002:000180c0       ??_C@_0BM@A@Returning?5Instance?5on?5node?5?$AA@ 00000001400c00c0     oraexectask:prvFixupHandler.obj
 0002:000180dc       ??_C@_0BO@A@?5for?5input?5data?5file?5at?5path?5?$AA@ 00000001400c00dc     oraexectask:prvFixupHandler.obj
 0002:000180fc       ??_C@_0BK@A@NativeHandler?3?3?$HOdispose?$CI?$CJ?$AA@ 00000001400c00fc     oraexectask:prvFixupHandler.obj
 0002:00018118       ??_C@_0BK@A@Destructing?5NativeHandler?$AA@ 00000001400c0118     oraexectask:prvFixupHandler.obj
 0002:00018134       ??_C@_0BO@A@NativeHandler?3?3performFixup?$CI?$CJ?$AA@ 00000001400c0134     oraexectask:prvFixupHandler.obj
 0002:00018154       ??_C@_0CM@A@Perform?5Fix?9up?5Called?5for?5fix?9up?5Data?5file?5?$AA@ 00000001400c0154     oraexectask:prvFixupHandler.obj
